LIBRARY qt5core

EXPORTS

	_Z10forcepointR11QTextStream
	_Z10noshowbaseR11QTextStream
	_Z10qAllocMoreii
	_Z10qHBNewFacePvPF8HB_ErrorS_jPhPjE
	_Z10qShapeItemP14HB_ShaperItem_
	_Z10qTerminatev
	_Z10qvsnprintfPcyPKcS_
	_Z10scientificR11QTextStream
	_Z11noforcesignR11QTextStream
	_Z11qHBFreeFaceP11HB_FaceRec_
	_Z11qHBLoadFaceP11HB_FaceRec_
	_Z11qUncompressPKhi
	_Z11qWinAppInstv
	_Z11qt_assert_xPKcS0_S0_i
	_Z11qt_int_sqrtj
	_Z12noforcepointR11QTextStream
	_Z12qAppFileNamev
	_Z12qFreeAlignedPv
	_Z12qSharedBuildv
	_Z13lowercasebaseR11QTextStream
	_Z13qErrnoWarningPKcz
	_Z13qErrnoWarningiPKcz
	_Z13qFlagLocationPKc
	_Z13uppercasebaseR11QTextStream
	_Z14qAddPreRoutinePFvvE
	_Z14qDecodeDataUrlRK4QUrlR7QStringR10QByteArray
	_Z14qFloatDistancedd
	_Z14qFloatDistanceff
	_Z14qMallocAlignedyy
	_Z14qWinAppCmdShowv
	_Z15lowercasedigitsR11QTextStream
	_Z15qAddPostRoutinePFvvE
	_Z15qIsEffectiveTLDRK7QString
	_Z15qReallocAlignedPvyyy
	_Z15qTopLevelDomainRK7QString
	_Z15qWinAppPrevInstv
	_Z15qWinLogToStderrv
	_Z15qt_error_stringi
	_Z15uppercasedigitsR11QTextStream
	_Z16qt_check_pointerPKci
	_Z17qt_localeFromLCIDm
	_Z17qt_message_output9QtMsgTypeRK18QMessageLogContextRK7QString
	_Z18qDetectCpuFeaturesv
	_Z18qInstallMsgHandlerPFv9QtMsgTypePKcE
	_Z18qRemovePostRoutinePFvvE
	_Z18qSetMessagePatternRK7QString
	_Z19qcoreVariantHandlerv
	_Z20qMessageFormatString9QtMsgTypeRK18QMessageLogContextRK7QString
	_Z20qt_qFindChild_helperPK7QObjectRK7QStringRK11QMetaObject6QFlagsIN2Qt15FindChildOptionEE
	_Z21qDeleteInEventHandlerP7QObject
	_Z21qRegisterResourceDataiPKhS0_S0_
	_Z21qt_call_post_routinesv
	_Z21qt_regexp_toCanonicalRK7QStringN7QRegExp13PatternSyntaxE
	_Z22qInstallMessageHandlerPFv9QtMsgTypeRK18QMessageLogContextRK7QStringE
	_Z23qUnregisterResourceDataiPKhS0_S0_
	_Z23qt_qFindChildren_helperPK7QObjectRK18QRegularExpressionRK11QMetaObjectP5QListIPvE6QFlagsIN2Qt15FindChildOptionEE
	_Z23qt_qFindChildren_helperPK7QObjectRK7QRegExpRK11QMetaObjectP5QListIPvE6QFlagsIN2Qt15FindChildOptionEE
	_Z23qt_qFindChildren_helperPK7QObjectRK7QStringRK11QMetaObjectP5QListIPvE6QFlagsIN2Qt15FindChildOptionEE
	_Z24qGlobalPostedEventsCountv
	_Z24qcoreStateMachineHandlerv
	_Z25qEnvironmentVariableIsSetPKc
	_Z27qEnvironmentVariableIsEmptyPKc
	_Z29qRegisterStaticPluginFunction13QStaticPlugin
	_Z29qt_applicationName_noFallbackv
	_Z2wsR11QTextStream
	_Z32qt_register_signal_spy_callbacksRK21QSignalSpyCallbackSet
	_Z3binR11QTextStream
	_Z3bomR11QTextStream
	_Z3decR11QTextStream
	_Z3hexR11QTextStream
	_Z3octR11QTextStream
	_Z4endlR11QTextStream
	_Z4leftR11QTextStream
	_Z4qInfv
	_Z5fixedR11QTextStream
	_Z5flushR11QTextStream
	_Z5qFreePv
	_Z5qHash13QLatin1Stringj
	_Z5qHashRK10QByteArrayj
	_Z5qHashRK10QStringRefj
	_Z5qHashRK4QUrlj
	_Z5qHashRK5QDatej
	_Z5qHashRK5QTimej
	_Z5qHashRK5QUuidj
	_Z5qHashRK7QStringj
	_Z5qHashRK9QBitArrayj
	_Z5qHashRK9QDateTimej
	_Z5qHashdj
	_Z5qHashej
	_Z5qHashfj
	_Z5qQNaNv
	_Z5qSNaNv
	_Z5qdtoadiiPiS_PPcS1_
	_Z5qrandv
	_Z5resetR11QTextStream
	_Z5rightR11QTextStream
	_Z6centerR11QTextStream
	_Z6qIsInfd
	_Z6qIsInff
	_Z6qIsNaNd
	_Z6qIsNaNf
	_Z6qsrandj
	_Z6qtTrIdPKci
	_Z7qMallocy
	_Z7qMemSetPviy
	_Z7qgetenvPKc
	_Z7qputenvPKcRK10QByteArray
	_Z7qstrcmpPKcS0_
	_Z7qstrcmpRK10QByteArrayPKc
	_Z7qstrcmpRK10QByteArrayS1_
	_Z7qstrcpyPcPKc
	_Z7qstrdupPKc
	_Z7qstrtodPKcPS0_Pb
	_Z7qt_hashRK10QStringRef
	_Z7qt_hashRK7QString
	_Z8qAppNamev
	_Z8qMemCopyPvPKvy
	_Z8qReallocPvy
	_Z8qWinMainP11HINSTANCE__S0_PciRiR7QVectorIS1_E
	_Z8qstricmpPKcS0_
	_Z8qstrncpyPcPKcj
	_Z8showbaseR11QTextStream
	_Z9decodeMSGRK6tagMSG
	_Z9forcesignR11QTextStream
	_Z9qBadAllocv
	_Z9qChecksumPKcj
	_Z9qCompressPKhii
	_Z9qIsFinited
	_Z9qIsFinitef
	_Z9qsnprintfPcyPKcz
	_Z9qstrnicmpPKcS0_j
	_Z9qt_assertPKcS0_i
	_Z9qunsetenvPKc
	_ZN10QArrayData10deallocateEPS_yy
	_ZN10QArrayData11shared_nullE
	_ZN10QArrayData8allocateEyyy6QFlagsINS_16AllocationOptionEE
	_ZN10QByteArray10fromBase64ERKS_
	_ZN10QByteArray10fromBase64ERKS_6QFlagsINS_12Base64OptionEE
	_ZN10QByteArray10setRawDataEPKcj
	_ZN10QByteArray11fromRawDataEPKci
	_ZN10QByteArray11reallocDataEj6QFlagsIN10QArrayData16AllocationOptionEE
	_ZN10QByteArray19fromPercentEncodingERKS_c
	_ZN10QByteArray4chopEi
	_ZN10QByteArray4fillEci
	_ZN10QByteArray5clearEv
	_ZN10QByteArray6appendEPKc
	_ZN10QByteArray6appendEPKci
	_ZN10QByteArray6appendERKS_
	_ZN10QByteArray6appendEc
	_ZN10QByteArray6expandEi
	_ZN10QByteArray6insertEiPKc
	_ZN10QByteArray6insertEiPKci
	_ZN10QByteArray6insertEiRKS_
	_ZN10QByteArray6insertEic
	_ZN10QByteArray6numberEdci
	_ZN10QByteArray6numberEii
	_ZN10QByteArray6numberEji
	_ZN10QByteArray6numberExi
	_ZN10QByteArray6numberEyi
	_ZN10QByteArray6removeEii
	_ZN10QByteArray6resizeEi
	_ZN10QByteArray6setNumEdci
	_ZN10QByteArray6setNumExi
	_ZN10QByteArray6setNumEyi
	_ZN10QByteArray7fromHexERKS_
	_ZN10QByteArray7prependEPKc
	_ZN10QByteArray7prependEPKci
	_ZN10QByteArray7prependERKS_
	_ZN10QByteArray7prependEc
	_ZN10QByteArray7replaceEPKcRKS_
	_ZN10QByteArray7replaceEPKciS1_i
	_ZN10QByteArray7replaceERKS_S1_
	_ZN10QByteArray7replaceEcRKS_
	_ZN10QByteArray7replaceEcc
	_ZN10QByteArray7replaceEiiPKc
	_ZN10QByteArray7replaceEiiPKci
	_ZN10QByteArray7replaceEiiRKS_
	_ZN10QByteArray8truncateEi
	_ZN10QByteArrayC1EPKci
	_ZN10QByteArrayC1EiN2Qt14InitializationE
	_ZN10QByteArrayC1Eic
	_ZN10QByteArrayC2EPKci
	_ZN10QByteArrayC2EiN2Qt14InitializationE
	_ZN10QByteArrayC2Eic
	_ZN10QByteArrayD1Ev
	_ZN10QByteArrayaSEPKc
	_ZN10QByteArrayaSERKS_
	_ZN10QEventLoop11qt_metacallEN11QMetaObject4CallEiPPv
	_ZN10QEventLoop11qt_metacastEPKc
	_ZN10QEventLoop13processEventsE6QFlagsINS_17ProcessEventsFlagEE
	_ZN10QEventLoop13processEventsE6QFlagsINS_17ProcessEventsFlagEEi
	_ZN10QEventLoop16staticMetaObjectE
	_ZN10QEventLoop18qt_static_metacallEP7QObjectN11QMetaObject4CallEiPPv
	_ZN10QEventLoop4execE6QFlagsINS_17ProcessEventsFlagEE
	_ZN10QEventLoop4exitEi
	_ZN10QEventLoop4quitEv
	_ZN10QEventLoop5eventEP6QEvent
	_ZN10QEventLoop6wakeUpEv
	_ZN10QEventLoopC1EP7QObject
	_ZN10QEventLoopC2EP7QObject
	_ZN10QEventLoopD0Ev
	_ZN10QEventLoopD1Ev
	_ZN10QEventLoopD2Ev
	_ZN10QJsonArray14fromStringListERK11QStringList
	_ZN10QJsonArray15fromVariantListERK5QListI8QVariantE
	_ZN10QJsonArray6appendERK10QJsonValue
	_ZN10QJsonArray6detachEj
	_ZN10QJsonArray6insertEiRK10QJsonValue
	_ZN10QJsonArray6takeAtEi
	_ZN10QJsonArray7compactEv
	_ZN10QJsonArray7prependERK10QJsonValue
	_ZN10QJsonArray7replaceEiRK10QJsonValue
	_ZN10QJsonArray8removeAtEi
	_ZN10QJsonArrayC1EPN12QJsonPrivate4DataEPNS0_5ArrayE
	_ZN10QJsonArrayC1ERKS_
	_ZN10QJsonArrayC1Ev
	_ZN10QJsonArrayC2EPN12QJsonPrivate4DataEPNS0_5ArrayE
	_ZN10QJsonArrayC2ERKS_
	_ZN10QJsonArrayC2Ev
	_ZN10QJsonArrayD1Ev
	_ZN10QJsonArrayD2Ev
	_ZN10QJsonArrayaSERKS_
	_ZN10QJsonArrayixEi
	_ZN10QJsonValue11fromVariantERK8QVariant
	_ZN10QJsonValue27stringDataFromQStringHelperERK7QString
	_ZN10QJsonValue6detachEv
	_ZN10QJsonValueC1E13QLatin1String
	_ZN10QJsonValueC1ENS_4TypeE
	_ZN10QJsonValueC1EPN12QJsonPrivate4DataEPNS0_4BaseERKNS0_5ValueE
	_ZN10QJsonValueC1ERK10QJsonArray
	_ZN10QJsonValueC1ERK11QJsonObject
	_ZN10QJsonValueC1ERK7QString
	_ZN10QJsonValueC1ERKS_
	_ZN10QJsonValueC1Eb
	_ZN10QJsonValueC1Ed
	_ZN10QJsonValueC1Ei
	_ZN10QJsonValueC1Ex
	_ZN10QJsonValueC2E13QLatin1String
	_ZN10QJsonValueC2ENS_4TypeE
	_ZN10QJsonValueC2EPN12QJsonPrivate4DataEPNS0_4BaseERKNS0_5ValueE
	_ZN10QJsonValueC2ERK10QJsonArray
	_ZN10QJsonValueC2ERK11QJsonObject
	_ZN10QJsonValueC2ERK7QString
	_ZN10QJsonValueC2ERKS_
	_ZN10QJsonValueC2Eb
	_ZN10QJsonValueC2Ed
	_ZN10QJsonValueC2Ei
	_ZN10QJsonValueC2Ex
	_ZN10QJsonValueD1Ev
	_ZN10QJsonValueD2Ev
	_ZN10QJsonValueaSERKS_
	_ZN10QMutexPool11createMutexEi
	_ZN10QMutexPool17globalInstanceGetEPKv
	_ZN10QMutexPool8instanceEv
	_ZN10QMutexPoolC1EN6QMutex13RecursionModeEi
	_ZN10QMutexPoolC2EN6QMutex13RecursionModeEi
	_ZN10QMutexPoolD1Ev
	_ZN10QMutexPoolD2Ev
	_ZN10QSemaphore10tryAcquireEi
	_ZN10QSemaphore10tryAcquireEii
	_ZN10QSemaphore7acquireEi
	_ZN10QSemaphore7releaseEi
	_ZN10QSemaphoreC1Ei
	_ZN10QSemaphoreC2Ei
	_ZN10QSemaphoreD1Ev
	_ZN10QSemaphoreD2Ev
	_ZN10QTextCodec11codecForMibEi
	_ZN10QTextCodec12codecForHtmlERK10QByteArray
	_ZN10QTextCodec12codecForHtmlERK10QByteArrayPS_
	_ZN10QTextCodec12codecForNameERK10QByteArray
	_ZN10QTextCodec13availableMibsEv
	_ZN10QTextCodec14ConverterStateD1Ev
	_ZN10QTextCodec14ConverterStateD2Ev
	_ZN10QTextCodec14codecForLocaleEv
	_ZN10QTextCodec15availableCodecsEv
	_ZN10QTextCodec15codecForUtfTextERK10QByteArray
	_ZN10QTextCodec15codecForUtfTextERK10QByteArrayPS_
	_ZN10QTextCodec17setCodecForLocaleEPS_
	_ZN10QTextCodecC1Ev
	_ZN10QTextCodecC2Ev
	_ZN10QTextCodecD0Ev
	_ZN10QTextCodecD1Ev
	_ZN10QTextCodecD2Ev
	_ZN11QBasicMutex11isRecursiveEv
	_ZN11QBasicMutex12lockInternalEi
	_ZN11QBasicMutex12lockInternalEv
	_ZN11QBasicMutex14unlockInternalEv
	_ZN11QBasicTimer4stopEv
	_ZN11QBasicTimer5startEiN2Qt9TimerTypeEP7QObject
	_ZN11QBasicTimer5startEiP7QObject
	_ZN11QChildEventC1EN6QEvent4TypeEP7QObject
	_ZN11QChildEventC2EN6QEvent4TypeEP7QObject
	_ZN11QChildEventD0Ev
	_ZN11QChildEventD1Ev
	_ZN11QChildEventD2Ev
	_ZN11QDataStream10writeBytesEPKcj
	_ZN11QDataStream11readRawDataEPci
	_ZN11QDataStream11resetStatusEv
	_ZN11QDataStream11skipRawDataEi
	_ZN11QDataStream11unsetDeviceEv
	_ZN11QDataStream12setByteOrderENS_9ByteOrderE
	_ZN11QDataStream12writeRawDataEPKci
	_ZN11QDataStream25setFloatingPointPrecisionENS_22FloatingPointPrecisionE
	_ZN11QDataStream9readBytesERPcRj
	_ZN11QDataStream9setDeviceEP9QIODevice
	_ZN11QDataStream9setStatusENS_6StatusE
	_ZN11QDataStreamC1EP10QByteArray6QFlagsIN9QIODevice12OpenModeFlagEE
	_ZN11QDataStreamC1EP9QIODevice
	_ZN11QDataStreamC1ERK10QByteArray
	_ZN11QDataStreamC1Ev
	_ZN11QDataStreamC2EP10QByteArray6QFlagsIN9QIODevice12OpenModeFlagEE
	_ZN11QDataStreamC2EP9QIODevice
	_ZN11QDataStreamC2ERK10QByteArray
	_ZN11QDataStreamC2Ev
	_ZN11QDataStreamD1Ev
	_ZN11QDataStreamD2Ev
	_ZN11QDataStreamlsEPKc
	_ZN11QDataStreamlsEa
	_ZN11QDataStreamlsEb
	_ZN11QDataStreamlsEd
	_ZN11QDataStreamlsEf
	_ZN11QDataStreamlsEi
	_ZN11QDataStreamlsEs
	_ZN11QDataStreamlsEx
	_ZN11QDataStreamrsERPc
	_ZN11QDataStreamrsERa
	_ZN11QDataStreamrsERb
	_ZN11QDataStreamrsERd
	_ZN11QDataStreamrsERf
	_ZN11QDataStreamrsERi
	_ZN11QDataStreamrsERs
	_ZN11QDataStreamrsERx
	_ZN11QFileDevice10unsetErrorEv
	_ZN11QFileDevice11qt_metacallEN11QMetaObject4CallEiPPv
	_ZN11QFileDevice11qt_metacastEPKc
	_ZN11QFileDevice12readLineDataEPcx
	_ZN11QFileDevice14setPermissionsE6QFlagsINS_10PermissionEE
	_ZN11QFileDevice16staticMetaObjectE
	_ZN11QFileDevice18qt_static_metacallEP7QObjectN11QMetaObject4CallEiPPv
	_ZN11QFileDevice3mapExxNS_14MemoryMapFlagsE
	_ZN11QFileDevice4seekEx
	_ZN11QFileDevice5closeEv
	_ZN11QFileDevice5flushEv
	_ZN11QFileDevice5unmapEPh
	_ZN11QFileDevice6resizeEx
	_ZN11QFileDevice8readDataEPcx
	_ZN11QFileDevice9writeDataEPKcx
	_ZN11QFileDeviceC1EP7QObject
	_ZN11QFileDeviceC1ER18QFileDevicePrivateP7QObject
	_ZN11QFileDeviceC1Ev
	_ZN11QFileDeviceC2EP7QObject
	_ZN11QFileDeviceC2ER18QFileDevicePrivateP7QObject
	_ZN11QFileDeviceC2Ev
	_ZN11QFileDeviceD0Ev
	_ZN11QFileDeviceD1Ev
	_ZN11QFileDeviceD2Ev
	_ZN11QFinalState11qt_metacallEN11QMetaObject4CallEiPPv
	_ZN11QFinalState11qt_metacastEPKc
	_ZN11QFinalState16staticMetaObjectE
	_ZN11QFinalState18qt_static_metacallEP7QObjectN11QMetaObject4CallEiPPv
	_ZN11QFinalState5eventEP6QEvent
	_ZN11QFinalState6onExitEP6QEvent
	_ZN11QFinalState7onEntryEP6QEvent
	_ZN11QFinalStateC1EP6QState
	_ZN11QFinalStateC2EP6QState
	_ZN11QFinalStateD0Ev
	_ZN11QFinalStateD1Ev
	_ZN11QFinalStateD2Ev
	_ZN11QJsonObject10setValueAtEiRK10QJsonValue
	_ZN11QJsonObject14fromVariantMapERK4QMapI7QString8QVariantE
	_ZN11QJsonObject4findERK7QString
	_ZN11QJsonObject4takeERK7QString
	_ZN11QJsonObject5eraseENS_8iteratorE
	_ZN11QJsonObject6detachEj
	_ZN11QJsonObject6insertERK7QStringRK10QJsonValue
	_ZN11QJsonObject6removeERK7QString
	_ZN11QJsonObject7compactEv
	_ZN11QJsonObjectC1EPN12QJsonPrivate4DataEPNS0_6ObjectE
	_ZN11QJsonObjectC1ERKS_
	_ZN11QJsonObjectC1Ev
	_ZN11QJsonObjectC2EPN12QJsonPrivate4DataEPNS0_6ObjectE
	_ZN11QJsonObjectC2ERKS_
	_ZN11QJsonObjectC2Ev
	_ZN11QJsonObjectD1Ev
	_ZN11QJsonObjectD2Ev
	_ZN11QJsonObjectaSERKS_
	_ZN11QJsonObjectixERK7QString
	_ZN11QLocaleData17bytearrayToDoubleEPKcPbS2_
	_ZN11QLocaleData19bytearrayToLongLongEPKciPbS2_
	_ZN11QLocaleData22bytearrayToUnsLongLongEPKciPb
	_ZN11QMetaMethod14fromSignalImplEPK11QMetaObjectPPv
	_ZN11QMetaObject10ConnectionC1ERKS0_
	_ZN11QMetaObject10ConnectionC1Ev
	_ZN11QMetaObject10ConnectionC2ERKS0_
	_ZN11QMetaObject10ConnectionC2Ev
	_ZN11QMetaObject10ConnectionD1Ev
	_ZN11QMetaObject10ConnectionD2Ev
	_ZN11QMetaObject10ConnectionaSERKS0_
	_ZN11QMetaObject10disconnectEPK7QObjectiS2_i
	_ZN11QMetaObject12invokeMethodEP7QObjectPKcN2Qt14ConnectionTypeE22QGenericReturnArgument16QGenericArgumentS7_S7_S7_S7_S7_S7_S7_S7_S7_
	_ZN11QMetaObject13disconnectOneEPK7QObjectiS2_i
	_ZN11QMetaObject14normalizedTypeEPKc
	_ZN11QMetaObject16checkConnectArgsEPKcS1_
	_ZN11QMetaObject16checkConnectArgsERK11QMetaMethodS2_
	_ZN11QMetaObject18connectSlotsByNameEP7QObject
	_ZN11QMetaObject19normalizedSignatureEPKc
	_ZN11QMetaObject7connectEPK7QObjectiS2_iiPi
	_ZN11QMetaObject8activateEP7QObjectPKS_iPPv
	_ZN11QMetaObject8activateEP7QObjectiPPv
	_ZN11QMetaObject8activateEP7QObjectiiPPv
	_ZN11QMetaObject8metacallEP7QObjectNS_4CallEiPPv
	_ZN11QObjectDataD0Ev
	_ZN11QObjectDataD1Ev
	_ZN11QObjectDataD2Ev
	_ZN11QReadLocker6unlockEv
	_ZN11QTextStream10setPadCharE5QChar
	_ZN11QTextStream11resetStatusEv
	_ZN11QTextStream13setFieldWidthEi
	_ZN11QTextStream14setIntegerBaseEi
	_ZN11QTextStream14setNumberFlagsE6QFlagsINS_10NumberFlagEE
	_ZN11QTextStream14skipWhiteSpaceEv
	_ZN11QTextStream17setFieldAlignmentENS_14FieldAlignmentE
	_ZN11QTextStream20setAutoDetectUnicodeEb
	_ZN11QTextStream21setRealNumberNotationENS_18RealNumberNotationE
	_ZN11QTextStream22setRealNumberPrecisionEi
	_ZN11QTextStream24setGenerateByteOrderMarkEb
	_ZN11QTextStream4readEx
	_ZN11QTextStream4seekEx
	_ZN11QTextStream5flushEv
	_ZN11QTextStream5resetEv
	_ZN11QTextStream7readAllEv
	_ZN11QTextStream8readLineEx
	_ZN11QTextStream8setCodecEP10QTextCodec
	_ZN11QTextStream8setCodecEPKc
	_ZN11QTextStream9setDeviceEP9QIODevice
	_ZN11QTextStream9setLocaleERK7QLocale
	_ZN11QTextStream9setStatusENS_6StatusE
	_ZN11QTextStream9setStringEP7QString6QFlagsIN9QIODevice12OpenModeFlagEE
	_ZN11QTextStreamC1EP10QByteArray6QFlagsIN9QIODevice12OpenModeFlagEE
	_ZN11QTextStreamC1EP6_iobuf6QFlagsIN9QIODevice12OpenModeFlagEE
	_ZN11QTextStreamC1EP7QString6QFlagsIN9QIODevice12OpenModeFlagEE
	_ZN11QTextStreamC1EP9QIODevice
	_ZN11QTextStreamC1ERK10QByteArray6QFlagsIN9QIODevice12OpenModeFlagEE
	_ZN11QTextStreamC1Ev
	_ZN11QTextStreamC2EP10QByteArray6QFlagsIN9QIODevice12OpenModeFlagEE
	_ZN11QTextStreamC2EP6_iobuf6QFlagsIN9QIODevice12OpenModeFlagEE
	_ZN11QTextStreamC2EP7QString6QFlagsIN9QIODevice12OpenModeFlagEE
	_ZN11QTextStreamC2EP9QIODevice
	_ZN11QTextStreamC2ERK10QByteArray6QFlagsIN9QIODevice12OpenModeFlagEE
	_ZN11QTextStreamC2Ev
	_ZN11QTextStreamD0Ev
	_ZN11QTextStreamD1Ev
	_ZN11QTextStreamD2Ev
	_ZN11QTextStreamlsE13QLatin1String
	_ZN11QTextStreamlsE5QChar
	_ZN11QTextStreamlsEPKc
	_ZN11QTextStreamlsEPKv
	_ZN11QTextStreamlsERK10QByteArray
	_ZN11QTextStreamlsERK7QString
	_ZN11QTextStreamlsEc
	_ZN11QTextStreamlsEd
	_ZN11QTextStreamlsEf
	_ZN11QTextStreamlsEi
	_ZN11QTextStreamlsEj
	_ZN11QTextStreamlsEl
	_ZN11QTextStreamlsEm
	_ZN11QTextStreamlsEs
	_ZN11QTextStreamlsEt
	_ZN11QTextStreamlsEx
	_ZN11QTextStreamlsEy
	_ZN11QTextStreamrsEPc
	_ZN11QTextStreamrsER10QByteArray
	_ZN11QTextStreamrsER5QChar
	_ZN11QTextStreamrsER7QString
	_ZN11QTextStreamrsERc
	_ZN11QTextStreamrsERd
	_ZN11QTextStreamrsERf
	_ZN11QTextStreamrsERi
	_ZN11QTextStreamrsERj
	_ZN11QTextStreamrsERl
	_ZN11QTextStreamrsERm
	_ZN11QTextStreamrsERs
	_ZN11QTextStreamrsERt
	_ZN11QTextStreamrsERx
	_ZN11QTextStreamrsERy
	_ZN11QThreadPool11qt_metacallEN11QMetaObject4CallEiPPv
	_ZN11QThreadPool11qt_metacastEPKc
	_ZN11QThreadPool11waitForDoneEi
	_ZN11QThreadPool13releaseThreadEv
	_ZN11QThreadPool13reserveThreadEv
	_ZN11QThreadPool14globalInstanceEv
	_ZN11QThreadPool16setExpiryTimeoutEi
	_ZN11QThreadPool16staticMetaObjectE
	_ZN11QThreadPool17setMaxThreadCountEi
	_ZN11QThreadPool18qt_static_metacallEP7QObjectN11QMetaObject4CallEiPPv
	_ZN11QThreadPool5clearEv
	_ZN11QThreadPool5startEP9QRunnablei
	_ZN11QThreadPool8tryStartEP9QRunnable
	_ZN11QThreadPoolC1EP7QObject
	_ZN11QThreadPoolC2EP7QObject
	_ZN11QThreadPoolD0Ev
	_ZN11QThreadPoolD1Ev
	_ZN11QThreadPoolD2Ev
	_ZN11QTimerEventC1Ei
	_ZN11QTimerEventC2Ei
	_ZN11QTimerEventD0Ev
	_ZN11QTimerEventD1Ev
	_ZN11QTimerEventD2Ev
	_ZN11QTranslator11qt_metacallEN11QMetaObject4CallEiPPv
	_ZN11QTranslator11qt_metacastEPKc
	_ZN11QTranslator16staticMetaObjectE
	_ZN11QTranslator18qt_static_metacallEP7QObjectN11QMetaObject4CallEiPPv
	_ZN11QTranslator4loadEPKhiRK7QString
	_ZN11QTranslator4loadERK7QLocaleRK7QStringS5_S5_S5_
	_ZN11QTranslator4loadERK7QStringS2_S2_S2_
	_ZN11QTranslatorC1EP7QObject
	_ZN11QTranslatorC2EP7QObject
	_ZN11QTranslatorD0Ev
	_ZN11QTranslatorD1Ev
	_ZN11QTranslatorD2Ev
	_ZN12QDirIterator4nextEv
	_ZN12QDirIteratorC1ERK4QDir6QFlagsINS_12IteratorFlagEE
	_ZN12QDirIteratorC1ERK7QString6QFlagsIN4QDir6FilterEES3_INS_12IteratorFlagEE
	_ZN12QDirIteratorC1ERK7QString6QFlagsINS_12IteratorFlagEE
	_ZN12QDirIteratorC1ERK7QStringRK11QStringList6QFlagsIN4QDir6FilterEES6_INS_12IteratorFlagEE
	_ZN12QDirIteratorC2ERK4QDir6QFlagsINS_12IteratorFlagEE
	_ZN12QDirIteratorC2ERK7QString6QFlagsIN4QDir6FilterEES3_INS_12IteratorFlagEE
	_ZN12QDirIteratorC2ERK7QString6QFlagsINS_12IteratorFlagEE
	_ZN12QDirIteratorC2ERK7QStringRK11QStringList6QFlagsIN4QDir6FilterEES6_INS_12IteratorFlagEE
	_ZN12QDirIteratorD1Ev
	_ZN12QDirIteratorD2Ev
	_ZN12QEasingCurve12setAmplitudeEd
	_ZN12QEasingCurve12setOvershootEd
	_ZN12QEasingCurve13addTCBSegmentERK7QPointFddd
	_ZN12QEasingCurve13setCustomTypeEPFddE
	_ZN12QEasingCurve16staticMetaObjectE
	_ZN12QEasingCurve21addCubicBezierSegmentERK7QPointFS2_S2_
	_ZN12QEasingCurve7setTypeENS_4TypeE
	_ZN12QEasingCurve9setPeriodEd
	_ZN12QEasingCurveC1ENS_4TypeE
	_ZN12QEasingCurveC1ERKS_
	_ZN12QEasingCurveC2ENS_4TypeE
	_ZN12QEasingCurveC2ERKS_
	_ZN12QEasingCurveD1Ev
	_ZN12QEasingCurveD2Ev
	_ZN12QLibraryInfo12isDebugBuildEv
	_ZN12QLibraryInfo16licensedProductsEv
	_ZN12QLibraryInfo23platformPluginArgumentsERK7QString
	_ZN12QLibraryInfo5buildEv
	_ZN12QLibraryInfo8licenseeEv
	_ZN12QLibraryInfo8locationENS_15LibraryLocationE
	_ZN12QLibraryInfo9buildDateEv
	_ZN12QLibraryInfoC1Ev
	_ZN12QLibraryInfoC2Ev
	_ZN12QMapDataBase10createDataEv
	_ZN12QMapDataBase10createNodeEiiP12QMapNodeBaseb
	_ZN12QMapDataBase10rotateLeftEP12QMapNodeBase
	_ZN12QMapDataBase11rotateRightEP12QMapNodeBase
	_ZN12QMapDataBase11shared_nullE
	_ZN12QMapDataBase18recalcMostLeftNodeEv
	_ZN12QMapDataBase20freeNodeAndRebalanceEP12QMapNodeBase
	_ZN12QMapDataBase8freeDataEPS_
	_ZN12QMapDataBase8freeTreeEP12QMapNodeBasei
	_ZN12QMapDataBase9rebalanceEP12QMapNodeBase
	_ZN12QSystemError8toStringEv
	_ZN12QTextDecoder9toUnicodeEP7QStringPKci
	_ZN12QTextDecoder9toUnicodeEPKci
	_ZN12QTextDecoder9toUnicodeERK10QByteArray
	_ZN12QTextDecoderC1EPK10QTextCodec6QFlagsINS0_14ConversionFlagEE
	_ZN12QTextDecoderC2EPK10QTextCodec6QFlagsINS0_14ConversionFlagEE
	_ZN12QTextDecoderD1Ev
	_ZN12QTextDecoderD2Ev
	_ZN12QTextEncoder11fromUnicodeEPK5QChari
	_ZN12QTextEncoder11fromUnicodeERK7QString
	_ZN12QTextEncoderC1EPK10QTextCodec6QFlagsINS0_14ConversionFlagEE
	_ZN12QTextEncoderC2EPK10QTextCodec6QFlagsINS0_14ConversionFlagEE
	_ZN12QTextEncoderD1Ev
	_ZN12QTextEncoderD2Ev
	_ZN12QWriteLocker6unlockEv
	_ZN13QElapsedTimer10invalidateEv
	_ZN13QElapsedTimer11isMonotonicEv
	_ZN13QElapsedTimer5startEv
	_ZN13QElapsedTimer7restartEv
	_ZN13QElapsedTimer9clockTypeEv
	_ZN13QFileSelector11qt_metacallEN11QMetaObject4CallEiPPv
	_ZN13QFileSelector11qt_metacastEPKc
	_ZN13QFileSelector16staticMetaObjectE
	_ZN13QFileSelector17setExtraSelectorsERK11QStringList
	_ZN13QFileSelector18qt_static_metacallEP7QObjectN11QMetaObject4CallEiPPv
	_ZN13QFileSelectorC1EP7QObject
	_ZN13QFileSelectorC2EP7QObject
	_ZN13QFileSelectorD0Ev
	_ZN13QFileSelectorD1Ev
	_ZN13QFileSelectorD2Ev
	_ZN13QHistoryState11qt_metacallEN11QMetaObject4CallEiPPv
	_ZN13QHistoryState11qt_metacastEPKc
	_ZN13QHistoryState14setHistoryTypeENS_11HistoryTypeE
	_ZN13QHistoryState15setDefaultStateEP14QAbstractState
	_ZN13QHistoryState16staticMetaObjectE
	_ZN13QHistoryState18qt_static_metacallEP7QObjectN11QMetaObject4CallEiPPv
	_ZN13QHistoryState5eventEP6QEvent
	_ZN13QHistoryState6onExitEP6QEvent
	_ZN13QHistoryState7onEntryEP6QEvent
	_ZN13QHistoryStateC1ENS_11HistoryTypeEP6QState
	_ZN13QHistoryStateC1EP6QState
	_ZN13QHistoryStateC2ENS_11HistoryTypeEP6QState
	_ZN13QHistoryStateC2EP6QState
	_ZN13QHistoryStateD0Ev
	_ZN13QHistoryStateD1Ev
	_ZN13QHistoryStateD2Ev
	_ZN13QJsonDocument11fromRawDataEPKciNS_14DataValidationE
	_ZN13QJsonDocument11fromVariantERK8QVariant
	_ZN13QJsonDocument14fromBinaryDataERK10QByteArrayNS_14DataValidationE
	_ZN13QJsonDocument8fromJsonERK10QByteArrayP15QJsonParseError
	_ZN13QJsonDocument8setArrayERK10QJsonArray
	_ZN13QJsonDocument9setObjectERK11QJsonObject
	_ZN13QJsonDocumentC1EPN12QJsonPrivate4DataE
	_ZN13QJsonDocumentC1ERK10QJsonArray
	_ZN13QJsonDocumentC1ERK11QJsonObject
	_ZN13QJsonDocumentC1ERKS_
	_ZN13QJsonDocumentC1Ev
	_ZN13QJsonDocumentC2EPN12QJsonPrivate4DataE
	_ZN13QJsonDocumentC2ERK10QJsonArray
	_ZN13QJsonDocumentC2ERK11QJsonObject
	_ZN13QJsonDocumentC2ERKS_
	_ZN13QJsonDocumentC2Ev
	_ZN13QJsonDocumentD1Ev
	_ZN13QJsonDocumentD2Ev
	_ZN13QJsonDocumentaSERKS_
	_ZN13QJsonValueRefaSERK10QJsonValue
	_ZN13QJsonValueRefaSERKS_
	_ZN13QMetaPropertyC1Ev
	_ZN13QMetaPropertyC2Ev
	_ZN13QMimeDatabaseC1Ev
	_ZN13QMimeDatabaseC2Ev
	_ZN13QMimeDatabaseD1Ev
	_ZN13QMimeDatabaseD2Ev
	_ZN13QPluginLoader11qt_metacallEN11QMetaObject4CallEiPPv
	_ZN13QPluginLoader11qt_metacastEPKc
	_ZN13QPluginLoader11setFileNameERK7QString
	_ZN13QPluginLoader12setLoadHintsE6QFlagsIN8QLibrary8LoadHintEE
	_ZN13QPluginLoader13staticPluginsEv
	_ZN13QPluginLoader15staticInstancesEv
	_ZN13QPluginLoader16staticMetaObjectE
	_ZN13QPluginLoader18qt_static_metacallEP7QObjectN11QMetaObject4CallEiPPv
	_ZN13QPluginLoader4loadEv
	_ZN13QPluginLoader6unloadEv
	_ZN13QPluginLoader8instanceEv
	_ZN13QPluginLoaderC1EP7QObject
	_ZN13QPluginLoaderC1ERK7QStringP7QObject
	_ZN13QPluginLoaderC2EP7QObject
	_ZN13QPluginLoaderC2ERK7QStringP7QObject
	_ZN13QPluginLoaderD0Ev
	_ZN13QPluginLoaderD1Ev
	_ZN13QPluginLoaderD2Ev
	_ZN13QSharedMemory11qt_metacallEN11QMetaObject4CallEiPPv
	_ZN13QSharedMemory11qt_metacastEPKc
	_ZN13QSharedMemory12setNativeKeyERK7QString
	_ZN13QSharedMemory16staticMetaObjectE
	_ZN13QSharedMemory18qt_static_metacallEP7QObjectN11QMetaObject4CallEiPPv
	_ZN13QSharedMemory4dataEv
	_ZN13QSharedMemory4lockEv
	_ZN13QSharedMemory6attachENS_10AccessModeE
	_ZN13QSharedMemory6createEiNS_10AccessModeE
	_ZN13QSharedMemory6detachEv
	_ZN13QSharedMemory6setKeyERK7QString
	_ZN13QSharedMemory6unlockEv
	_ZN13QSharedMemoryC1EP7QObject
	_ZN13QSharedMemoryC1ERK7QStringP7QObject
	_ZN13QSharedMemoryC2EP7QObject
	_ZN13QSharedMemoryC2ERK7QStringP7QObject
	_ZN13QSharedMemoryD0Ev
	_ZN13QSharedMemoryD1Ev
	_ZN13QSharedMemoryD2Ev
	_ZN13QSignalMapper10setMappingEP7QObjectP7QWidget
	_ZN13QSignalMapper10setMappingEP7QObjectRK7QString
	_ZN13QSignalMapper10setMappingEP7QObjectS1_
	_ZN13QSignalMapper10setMappingEP7QObjecti
	_ZN13QSignalMapper11qt_metacallEN11QMetaObject4CallEiPPv
	_ZN13QSignalMapper11qt_metacastEPKc
	_ZN13QSignalMapper14removeMappingsEP7QObject
	_ZN13QSignalMapper16staticMetaObjectE
	_ZN13QSignalMapper18qt_static_metacallEP7QObjectN11QMetaObject4CallEiPPv
	_ZN13QSignalMapper3mapEP7QObject
	_ZN13QSignalMapper3mapEv
	_ZN13QSignalMapper6mappedEP7QObject
	_ZN13QSignalMapper6mappedEP7QWidget
	_ZN13QSignalMapper6mappedERK7QString
	_ZN13QSignalMapper6mappedEi
	_ZN13QSignalMapperC1EP7QObject
	_ZN13QSignalMapperC2EP7QObject
	_ZN13QSignalMapperD0Ev
	_ZN13QSignalMapperD1Ev
	_ZN13QSignalMapperD2Ev
	_ZN13QStateMachine10clearErrorEv
	_ZN13QStateMachine11SignalEventC1EP7QObjectiRK5QListI8QVariantE
	_ZN13QStateMachine11SignalEventC2EP7QObjectiRK5QListI8QVariantE
	_ZN13QStateMachine11SignalEventD0Ev
	_ZN13QStateMachine11SignalEventD1Ev
	_ZN13QStateMachine11SignalEventD2Ev
	_ZN13QStateMachine11eventFilterEP7QObjectP6QEvent
	_ZN13QStateMachine11qt_metacallEN11QMetaObject4CallEiPPv
	_ZN13QStateMachine11qt_metacastEPKc
	_ZN13QStateMachine11removeStateEP14QAbstractState
	_ZN13QStateMachine11setAnimatedEb
	_ZN13QStateMachine12WrappedEventC1EP7QObjectP6QEvent
	_ZN13QStateMachine12WrappedEventC2EP7QObjectP6QEvent
	_ZN13QStateMachine12WrappedEventD0Ev
	_ZN13QStateMachine12WrappedEventD1Ev
	_ZN13QStateMachine12WrappedEventD2Ev
	_ZN13QStateMachine12endMicrostepEP6QEvent
	_ZN13QStateMachine14beginMicrostepEP6QEvent
	_ZN13QStateMachine16postDelayedEventEP6QEventi
	_ZN13QStateMachine16staticMetaObjectE
	_ZN13QStateMachine18cancelDelayedEventEi
	_ZN13QStateMachine18qt_static_metacallEP7QObjectN11QMetaObject4CallEiPPv
	_ZN13QStateMachine19addDefaultAnimationEP18QAbstractAnimation
	_ZN13QStateMachine20endSelectTransitionsEP6QEvent
	_ZN13QStateMachine22beginSelectTransitionsEP6QEvent
	_ZN13QStateMachine22removeDefaultAnimationEP18QAbstractAnimation
	_ZN13QStateMachine22setGlobalRestorePolicyEN6QState13RestorePolicyE
	_ZN13QStateMachine4stopEv
	_ZN13QStateMachine5eventEP6QEvent
	_ZN13QStateMachine5startEv
	_ZN13QStateMachine6onExitEP6QEvent
	_ZN13QStateMachine7onEntryEP6QEvent
	_ZN13QStateMachine7startedENS_14QPrivateSignalE
	_ZN13QStateMachine7stoppedENS_14QPrivateSignalE
	_ZN13QStateMachine8addStateEP14QAbstractState
	_ZN13QStateMachine9postEventEP6QEventNS_13EventPriorityE
	_ZN13QStateMachineC1EN6QState9ChildModeEP7QObject
	_ZN13QStateMachineC1EP7QObject
	_ZN13QStateMachineC1ER20QStateMachinePrivateP7QObject
	_ZN13QStateMachineC2EN6QState9ChildModeEP7QObject
	_ZN13QStateMachineC2EP7QObject
	_ZN13QStateMachineC2ER20QStateMachinePrivateP7QObject
	_ZN13QStateMachineD0Ev
	_ZN13QStateMachineD1Ev
	_ZN13QStateMachineD2Ev
	_ZN13QSystemLocaleC1Eb
	_ZN13QSystemLocaleC1Ev
	_ZN13QSystemLocaleC2Eb
	_ZN13QSystemLocaleC2Ev
	_ZN13QSystemLocaleD0Ev
	_ZN13QSystemLocaleD1Ev
	_ZN13QSystemLocaleD2Ev
	_ZN13QTemporaryDir13setAutoRemoveEb
	_ZN13QTemporaryDir6removeEv
	_ZN13QTemporaryDirC1ERK7QString
	_ZN13QTemporaryDirC1Ev
	_ZN13QTemporaryDirC2ERK7QString
	_ZN13QTemporaryDirC2Ev
	_ZN13QTemporaryDirD1Ev
	_ZN13QTemporaryDirD2Ev
	_ZN13QUnicodeTools11initScriptsEPKtiPh
	_ZN13QUnicodeTools18initCharAttributesEPKtiPKNS_10ScriptItemEiP15QCharAttributes6QFlagsINS_19CharAttributeOptionEE
	_ZN13QUnifiedTimer10timerEventEP11QTimerEvent
	_ZN13QUnifiedTimer11qt_metacallEN11QMetaObject4CallEiPPv
	_ZN13QUnifiedTimer11qt_metacastEPKc
	_ZN13QUnifiedTimer11startTimersEv
	_ZN13QUnifiedTimer12localRestartEv
	_ZN13QUnifiedTimer16staticMetaObjectE
	_ZN13QUnifiedTimer17setTimingIntervalEi
	_ZN13QUnifiedTimer18qt_static_metacallEP7QObjectN11QMetaObject4CallEiPPv
	_ZN13QUnifiedTimer18stopAnimationTimerEP23QAbstractAnimationTimer
	_ZN13QUnifiedTimer19pauseAnimationTimerEP23QAbstractAnimationTimeri
	_ZN13QUnifiedTimer19startAnimationTimerEP23QAbstractAnimationTimer
	_ZN13QUnifiedTimer20resumeAnimationTimerEP23QAbstractAnimationTimer
	_ZN13QUnifiedTimer21runningAnimationCountEv
	_ZN13QUnifiedTimer21updateAnimationTimersEx
	_ZN13QUnifiedTimer22installAnimationDriverEP16QAnimationDriver
	_ZN13QUnifiedTimer24registerProfilerCallbackEPFvxE
	_ZN13QUnifiedTimer24uninstallAnimationDriverEP16QAnimationDriver
	_ZN13QUnifiedTimer27canUninstallAnimationDriverEP16QAnimationDriver
	_ZN13QUnifiedTimer34maybeUpdateAnimationsToCurrentTimeEv
	_ZN13QUnifiedTimer39closestPausedAnimationTimerTimeToFinishEv
	_ZN13QUnifiedTimer7restartEv
	_ZN13QUnifiedTimer8instanceEb
	_ZN13QUnifiedTimer8instanceEv
	_ZN13QUnifiedTimer9stopTimerEv
	_ZN13QUnifiedTimerC1Ev
	_ZN13QUnifiedTimerC2Ev
	_ZN14QAbstractState11qt_metacallEN11QMetaObject4CallEiPPv
	_ZN14QAbstractState11qt_metacastEPKc
	_ZN14QAbstractState16staticMetaObjectE
	_ZN14QAbstractState18qt_static_metacallEP7QObjectN11QMetaObject4CallEiPPv
	_ZN14QAbstractState5eventEP6QEvent
	_ZN14QAbstractState6exitedENS_14QPrivateSignalE
	_ZN14QAbstractState7enteredENS_14QPrivateSignalE
	_ZN14QAbstractStateC1EP6QState
	_ZN14QAbstractStateC1ER21QAbstractStatePrivateP6QState
	_ZN14QAbstractStateC2EP6QState
	_ZN14QAbstractStateC2ER21QAbstractStatePrivateP6QState
	_ZN14QAbstractStateD0Ev
	_ZN14QAbstractStateD1Ev
	_ZN14QAbstractStateD2Ev
	_ZN14QFactoryLoader10refreshAllEv
	_ZN14QFactoryLoader11qt_metacallEN11QMetaObject4CallEiPPv
	_ZN14QFactoryLoader11qt_metacastEPKc
	_ZN14QFactoryLoader16staticMetaObjectE
	_ZN14QFactoryLoader18qt_static_metacallEP7QObjectN11QMetaObject4CallEiPPv
	_ZN14QFactoryLoader6updateEv
	_ZN14QFactoryLoaderC1EPKcRK7QStringN2Qt15CaseSensitivityE
	_ZN14QFactoryLoaderC2EPKcRK7QStringN2Qt15CaseSensitivityE
	_ZN14QFactoryLoaderD0Ev
	_ZN14QFactoryLoaderD1Ev
	_ZN14QFactoryLoaderD2Ev
	_ZN14QItemSelection5mergeERKS_6QFlagsIN19QItemSelectionModel13SelectionFlagEE
	_ZN14QItemSelection5splitERK19QItemSelectionRangeS2_PS_
	_ZN14QItemSelection6selectERK11QModelIndexS2_
	_ZN14QItemSelectionC1ERK11QModelIndexS2_
	_ZN14QItemSelectionC2ERK11QModelIndexS2_
	_ZN14QLocalePrivate12codeToScriptERK7QString
	_ZN14QLocalePrivate12scriptToCodeEN7QLocale6ScriptE
	_ZN14QLocalePrivate13codeToCountryERK7QString
	_ZN14QLocalePrivate13countryToCodeEN7QLocale7CountryE
	_ZN14QLocalePrivate14codeToLanguageERK7QString
	_ZN14QLocalePrivate14languageToCodeEN7QLocale8LanguageE
	_ZN14QLocalePrivate17getLangAndCountryERK7QStringRN7QLocale8LanguageERNS3_6ScriptERNS3_7CountryE
	_ZN14QLocalePrivate19updateSystemPrivateEv
	_ZN14QMetaCallEvent13placeMetaCallEP7QObject
	_ZN14QMetaCallEventC1EPN9QtPrivate15QSlotObjectBaseEPK7QObjectiiPiPPvP10QSemaphore
	_ZN14QMetaCallEventC1EttPFvP7QObjectN11QMetaObject4CallEiPPvEPKS0_iiPiS5_P10QSemaphore
	_ZN14QMetaCallEventC2EPN9QtPrivate15QSlotObjectBaseEPK7QObjectiiPiPPvP10QSemaphore
	_ZN14QMetaCallEventC2EttPFvP7QObjectN11QMetaObject4CallEiPPvEPKS0_iiPiS5_P10QSemaphore
	_ZN14QMetaCallEventD0Ev
	_ZN14QMetaCallEventD1Ev
	_ZN14QMetaCallEventD2Ev
	_ZN14QObjectPrivate10disconnectEPK7QObjectiPPv
	_ZN14QObjectPrivate11connectImplEPK7QObjectiS2_PPvPN9QtPrivate15QSlotObjectBaseEN2Qt14ConnectionTypeEPKiPK11QMetaObject
	_ZN14QObjectPrivate13addConnectionEiPNS_10ConnectionE
	_ZN14QObjectPrivate14deleteChildrenEv
	_ZN14QObjectPrivate16setParent_helperEP7QObject
	_ZN14QObjectPrivate19_q_reregisterTimersEPv
	_ZN14QObjectPrivate19moveToThread_helperEv
	_ZN14QObjectPrivate20cleanConnectionListsEv
	_ZN14QObjectPrivate20setThreadData_helperEP11QThreadDataS1_
	_ZN14QObjectPrivate7connectEPK7QObjectiPN9QtPrivate15QSlotObjectBaseEN2Qt14ConnectionTypeE
	_ZN14QObjectPrivateC1Ei
	_ZN14QObjectPrivateC2Ei
	_ZN14QObjectPrivateD0Ev
	_ZN14QObjectPrivateD1Ev
	_ZN14QObjectPrivateD2Ev
	_ZN14QReadWriteLock11lockForReadEv
	_ZN14QReadWriteLock12lockForWriteEv
	_ZN14QReadWriteLock14tryLockForReadEi
	_ZN14QReadWriteLock14tryLockForReadEv
	_ZN14QReadWriteLock15tryLockForWriteEi
	_ZN14QReadWriteLock15tryLockForWriteEv
	_ZN14QReadWriteLock6unlockEv
	_ZN14QReadWriteLockC1ENS_13RecursionModeE
	_ZN14QReadWriteLockC2ENS_13RecursionModeE
	_ZN14QReadWriteLockD1Ev
	_ZN14QReadWriteLockD2Ev
	_ZN14QStandardPaths11displayNameENS_16StandardLocationE
	_ZN14QStandardPaths14enableTestModeEb
	_ZN14QStandardPaths14findExecutableERK7QStringRK11QStringList
	_ZN14QStandardPaths16writableLocationENS_16StandardLocationE
	_ZN14QStandardPaths17isTestModeEnabledEv
	_ZN14QStandardPaths17standardLocationsENS_16StandardLocationE
	_ZN14QStandardPaths18setTestModeEnabledEb
	_ZN14QStandardPaths6locateENS_16StandardLocationERK7QString6QFlagsINS_12LocateOptionEE
	_ZN14QStandardPaths9locateAllENS_16StandardLocationERK7QString6QFlagsINS_12LocateOptionEE
	_ZN14QStringMatcher10setPatternERK7QString
	_ZN14QStringMatcher18setCaseSensitivityEN2Qt15CaseSensitivityE
	_ZN14QStringMatcherC1EPK5QChariN2Qt15CaseSensitivityE
	_ZN14QStringMatcherC1ERK7QStringN2Qt15CaseSensitivityE
	_ZN14QStringMatcherC1ERKS_
	_ZN14QStringMatcherC1Ev
	_ZN14QStringMatcherC2EPK5QChariN2Qt15CaseSensitivityE
	_ZN14QStringMatcherC2ERK7QStringN2Qt15CaseSensitivityE
	_ZN14QStringMatcherC2ERKS_
	_ZN14QStringMatcherC2Ev
	_ZN14QStringMatcherD1Ev
	_ZN14QStringMatcherD2Ev
	_ZN14QStringMatcheraSERKS_
	_ZN14QSystemLibrary4loadEPKwb
	_ZN14QTemporaryFile11qt_metacallEN11QMetaObject4CallEiPPv
	_ZN14QTemporaryFile11qt_metacastEPKc
	_ZN14QTemporaryFile13setAutoRemoveEb
	_ZN14QTemporaryFile15setFileTemplateERK7QString
	_ZN14QTemporaryFile16createNativeFileER5QFile
	_ZN14QTemporaryFile16staticMetaObjectE
	_ZN14QTemporaryFile18qt_static_metacallEP7QObjectN11QMetaObject4CallEiPPv
	_ZN14QTemporaryFile4openE6QFlagsIN9QIODevice12OpenModeFlagEE
	_ZN14QTemporaryFileC1EP7QObject
	_ZN14QTemporaryFileC1ERK7QString
	_ZN14QTemporaryFileC1ERK7QStringP7QObject
	_ZN14QTemporaryFileC1Ev
	_ZN14QTemporaryFileC2EP7QObject
	_ZN14QTemporaryFileC2ERK7QString
	_ZN14QTemporaryFileC2ERK7QStringP7QObject
	_ZN14QTemporaryFileC2Ev
	_ZN14QTemporaryFileD0Ev
	_ZN14QTemporaryFileD1Ev
	_ZN14QTemporaryFileD2Ev
	_ZN14QUnicodeTables10propertiesEj
	_ZN14QUnicodeTables10propertiesEt
	_ZN14QUnicodeTables14lineBreakClassEj
	_ZN14QUnicodeTables14wordBreakClassEj
	_ZN14QUnicodeTables18graphemeBreakClassEj
	_ZN14QUnicodeTables18sentenceBreakClassEj
	_ZN14QWaitCondition4waitEP14QReadWriteLockm
	_ZN14QWaitCondition4waitEP6QMutexm
	_ZN14QWaitCondition7wakeAllEv
	_ZN14QWaitCondition7wakeOneEv
	_ZN14QWaitConditionC1Ev
	_ZN14QWaitConditionC2Ev
	_ZN14QWaitConditionD1Ev
	_ZN14QWaitConditionD2Ev
	_ZN15QAnimationGroup11qt_metacallEN11QMetaObject4CallEiPPv
	_ZN15QAnimationGroup11qt_metacastEPKc
	_ZN15QAnimationGroup12addAnimationEP18QAbstractAnimation
	_ZN15QAnimationGroup13takeAnimationEi
	_ZN15QAnimationGroup15insertAnimationEiP18QAbstractAnimation
	_ZN15QAnimationGroup15removeAnimationEP18QAbstractAnimation
	_ZN15QAnimationGroup16staticMetaObjectE
	_ZN15QAnimationGroup18qt_static_metacallEP7QObjectN11QMetaObject4CallEiPPv
	_ZN15QAnimationGroup5clearEv
	_ZN15QAnimationGroup5eventEP6QEvent
	_ZN15QAnimationGroupC1EP7QObject
	_ZN15QAnimationGroupC1ER22QAnimationGroupPrivateP7QObject
	_ZN15QAnimationGroupC2EP7QObject
	_ZN15QAnimationGroupC2ER22QAnimationGroupPrivateP7QObject
	_ZN15QAnimationGroupD0Ev
	_ZN15QAnimationGroupD1Ev
	_ZN15QAnimationGroupD2Ev
	_ZN15QDateTimeParser11parseFormatERK7QString
	_ZN15QDateTimeParserD0Ev
	_ZN15QDateTimeParserD1Ev
	_ZN15QIPAddressUtils8parseIp4ERjPK5QCharS3_
	_ZN15QIPAddressUtils8parseIp6ERA16_hPK5QCharS4_
	_ZN15QIPAddressUtils8toStringER7QStringPh
	_ZN15QIPAddressUtils8toStringER7QStringj
	_ZN15QLinkedListData11shared_nullE
	_ZN15QObjectUserDataD0Ev
	_ZN15QObjectUserDataD1Ev
	_ZN15QObjectUserDataD2Ev
	_ZN15QPauseAnimation11qt_metacallEN11QMetaObject4CallEiPPv
	_ZN15QPauseAnimation11qt_metacastEPKc
	_ZN15QPauseAnimation11setDurationEi
	_ZN15QPauseAnimation16staticMetaObjectE
	_ZN15QPauseAnimation17updateCurrentTimeEi
	_ZN15QPauseAnimation18qt_static_metacallEP7QObjectN11QMetaObject4CallEiPPv
	_ZN15QPauseAnimation5eventEP6QEvent
	_ZN15QPauseAnimationC1EP7QObject
	_ZN15QPauseAnimationC1EiP7QObject
	_ZN15QPauseAnimationC2EP7QObject
	_ZN15QPauseAnimationC2EiP7QObject
	_ZN15QPauseAnimationD0Ev
	_ZN15QPauseAnimationD1Ev
	_ZN15QPauseAnimationD2Ev
	_ZN15QSocketNotifier10setEnabledEb
	_ZN15QSocketNotifier11qt_metacallEN11QMetaObject4CallEiPPv
	_ZN15QSocketNotifier11qt_metacastEPKc
	_ZN15QSocketNotifier16staticMetaObjectE
	_ZN15QSocketNotifier18qt_static_metacallEP7QObjectN11QMetaObject4CallEiPPv
	_ZN15QSocketNotifier5eventEP6QEvent
	_ZN15QSocketNotifier9activatedEiNS_14QPrivateSignalE
	_ZN15QSocketNotifierC1ExNS_4TypeEP7QObject
	_ZN15QSocketNotifierC2ExNS_4TypeEP7QObject
	_ZN15QSocketNotifierD0Ev
	_ZN15QSocketNotifierD1Ev
	_ZN15QSocketNotifierD2Ev
	_ZN15QVariantPrivate15registerHandlerEiPKN8QVariant7HandlerE
	_ZN15QtSharedPointer20ExternalRefCountData16setQObjectSharedEPK7QObjectb
	_ZN15QtSharedPointer20ExternalRefCountData18checkQObjectSharedEPK7QObject
	_ZN15QtSharedPointer20ExternalRefCountData9getAndRefEPK7QObject
	_ZN15QtSharedPointer22internalSafetyCheckAddEPKvPVKv
	_ZN15QtSharedPointer25internalSafetyCheckRemoveEPKv
	_ZN15QtSharedPointer31weakPointerFromVariant_internalERK8QVariant
	_ZN15QtSharedPointer33sharedPointerFromVariant_internalERK8QVariant
	_ZN16QAnimationDriver11qt_metacallEN11QMetaObject4CallEiPPv
	_ZN16QAnimationDriver11qt_metacastEPKc
	_ZN16QAnimationDriver12setStartTimeEx
	_ZN16QAnimationDriver16advanceAnimationEx
	_ZN16QAnimationDriver16staticMetaObjectE
	_ZN16QAnimationDriver18qt_static_metacallEP7QObjectN11QMetaObject4CallEiPPv
	_ZN16QAnimationDriver4stopEv
	_ZN16QAnimationDriver5startEv
	_ZN16QAnimationDriver7advanceEv
	_ZN16QAnimationDriver7installEv
	_ZN16QAnimationDriver7startedEv
	_ZN16QAnimationDriver7stoppedEv
	_ZN16QAnimationDriver9uninstallEv
	_ZN16QAnimationDriverC1EP7QObject
	_ZN16QAnimationDriverC1ER23QAnimationDriverPrivateP7QObject
	_ZN16QAnimationDriverC2EP7QObject
	_ZN16QAnimationDriverC2ER23QAnimationDriverPrivateP7QObject
	_ZN16QAnimationDriverD0Ev
	_ZN16QAnimationDriverD1Ev
	_ZN16QAnimationDriverD2Ev
	_ZN16QCollatorPrivate4initEv
	_ZN16QCollatorPrivate7cleanupEv
	_ZN16QCollatorSortKeyC1EP23QCollatorSortKeyPrivate
	_ZN16QCollatorSortKeyC1ERKS_
	_ZN16QCollatorSortKeyC2EP23QCollatorSortKeyPrivate
	_ZN16QCollatorSortKeyC2ERKS_
	_ZN16QCollatorSortKeyD1Ev
	_ZN16QCollatorSortKeyD2Ev
	_ZN16QCollatorSortKeyaSERKS_
	_ZN16QCoreApplication10startingUpEv
	_ZN16QCoreApplication11aboutToQuitENS_14QPrivateSignalE
	_ZN16QCoreApplication11closingDownEv
	_ZN16QCoreApplication11qt_metacallEN11QMetaObject4CallEiPPv
	_ZN16QCoreApplication11qt_metacastEPKc
	_ZN16QCoreApplication12libraryPathsEv
	_ZN16QCoreApplication12setAttributeEN2Qt20ApplicationAttributeEb
	_ZN16QCoreApplication13compressEventEP6QEventP7QObjectP14QPostEventList
	_ZN16QCoreApplication13processEventsE6QFlagsIN10QEventLoop17ProcessEventsFlagEE
	_ZN16QCoreApplication13processEventsE6QFlagsIN10QEventLoop17ProcessEventsFlagEEi
	_ZN16QCoreApplication13testAttributeEN2Qt20ApplicationAttributeE
	_ZN16QCoreApplication14addLibraryPathERK7QString
	_ZN16QCoreApplication14applicationPidEv
	_ZN16QCoreApplication14notifyInternalEP7QObjectP6QEvent
	_ZN16QCoreApplication15applicationNameEv
	_ZN16QCoreApplication15eventDispatcherEv
	_ZN16QCoreApplication15isSetuidAllowedEv
	_ZN16QCoreApplication15setLibraryPathsERK11QStringList
	_ZN16QCoreApplication16hasPendingEventsEv
	_ZN16QCoreApplication16organizationNameEv
	_ZN16QCoreApplication16removeTranslatorEP11QTranslator
	_ZN16QCoreApplication16sendPostedEventsEP7QObjecti
	_ZN16QCoreApplication16setSetuidAllowedEb
	_ZN16QCoreApplication16staticMetaObjectE
	_ZN16QCoreApplication17installTranslatorEP11QTranslator
	_ZN16QCoreApplication17isQuitLockEnabledEv
	_ZN16QCoreApplication17removeLibraryPathERK7QString
	_ZN16QCoreApplication18applicationDirPathEv
	_ZN16QCoreApplication18applicationVersionEv
	_ZN16QCoreApplication18organizationDomainEv
	_ZN16QCoreApplication18qt_static_metacallEP7QObjectN11QMetaObject4CallEiPPv
	_ZN16QCoreApplication18removePostedEventsEP7QObjecti
	_ZN16QCoreApplication18setApplicationNameERK7QString
	_ZN16QCoreApplication18setEventDispatcherEP24QAbstractEventDispatcher
	_ZN16QCoreApplication18setQuitLockEnabledEb
	_ZN16QCoreApplication19applicationFilePathEv
	_ZN16QCoreApplication19setOrganizationNameERK7QString
	_ZN16QCoreApplication21setApplicationVersionERK7QString
	_ZN16QCoreApplication21setOrganizationDomainERK7QString
	_ZN16QCoreApplication22applicationNameChangedEv
	_ZN16QCoreApplication23organizationNameChangedEv
	_ZN16QCoreApplication23removeNativeEventFilterEP26QAbstractNativeEventFilter
	_ZN16QCoreApplication24installNativeEventFilterEP26QAbstractNativeEventFilter
	_ZN16QCoreApplication25applicationVersionChangedEv
	_ZN16QCoreApplication25organizationDomainChangedEv
	_ZN16QCoreApplication4execEv
	_ZN16QCoreApplication4exitEi
	_ZN16QCoreApplication4initEv
	_ZN16QCoreApplication4quitEv
	_ZN16QCoreApplication4selfE
	_ZN16QCoreApplication5eventEP6QEvent
	_ZN16QCoreApplication5flushEv
	_ZN16QCoreApplication6notifyEP7QObjectP6QEvent
	_ZN16QCoreApplication9argumentsEv
	_ZN16QCoreApplication9postEventEP7QObjectP6QEventi
	_ZN16QCoreApplication9translateEPKcS1_S1_i
	_ZN16QCoreApplicationC1ER23QCoreApplicationPrivate
	_ZN16QCoreApplicationC1ERiPPci
	_ZN16QCoreApplicationC2ER23QCoreApplicationPrivate
	_ZN16QCoreApplicationC2ERiPPci
	_ZN16QCoreApplicationD0Ev
	_ZN16QCoreApplicationD1Ev
	_ZN16QCoreApplicationD2Ev
	_ZN16QDebugStateSaverC1ER6QDebug
	_ZN16QDebugStateSaverC2ER6QDebug
	_ZN16QDebugStateSaverD1Ev
	_ZN16QDebugStateSaverD2Ev
	_ZN16QEventLoopLockerC1EP10QEventLoop
	_ZN16QEventLoopLockerC1EP7QThread
	_ZN16QEventLoopLockerC1Ev
	_ZN16QEventLoopLockerC2EP10QEventLoop
	_ZN16QEventLoopLockerC2EP7QThread
	_ZN16QEventLoopLockerC2Ev
	_ZN16QEventLoopLockerD1Ev
	_ZN16QEventLoopLockerD2Ev
	_ZN16QEventTransition11qt_metacallEN11QMetaObject4CallEiPPv
	_ZN16QEventTransition11qt_metacastEPKc
	_ZN16QEventTransition12onTransitionEP6QEvent
	_ZN16QEventTransition12setEventTypeEN6QEvent4TypeE
	_ZN16QEventTransition14setEventSourceEP7QObject
	_ZN16QEventTransition16staticMetaObjectE
	_ZN16QEventTransition18qt_static_metacallEP7QObjectN11QMetaObject4CallEiPPv
	_ZN16QEventTransition5eventEP6QEvent
	_ZN16QEventTransition9eventTestEP6QEvent
	_ZN16QEventTransitionC1EP6QState
	_ZN16QEventTransitionC1EP7QObjectN6QEvent4TypeEP6QState
	_ZN16QEventTransitionC1ER23QEventTransitionPrivateP6QState
	_ZN16QEventTransitionC1ER23QEventTransitionPrivateP7QObjectN6QEvent4TypeEP6QState
	_ZN16QEventTransitionC2EP6QState
	_ZN16QEventTransitionC2EP7QObjectN6QEvent4TypeEP6QState
	_ZN16QEventTransitionC2ER23QEventTransitionPrivateP6QState
	_ZN16QEventTransitionC2ER23QEventTransitionPrivateP7QObjectN6QEvent4TypeEP6QState
	_ZN16QEventTransitionD0Ev
	_ZN16QEventTransitionD1Ev
	_ZN16QEventTransitionD2Ev
	_ZN16QIODevicePrivate13putCharHelperEc
	_ZN16QIODevicePrivate4peekEPcx
	_ZN16QIODevicePrivate4peekEx
	_ZN16QIODevicePrivateC1Ev
	_ZN16QIODevicePrivateC2Ev
	_ZN16QIODevicePrivateD0Ev
	_ZN16QIODevicePrivateD1Ev
	_ZN16QIODevicePrivateD2Ev
	_ZN16QLoggingCategory10setEnabledE9QtMsgTypeb
	_ZN16QLoggingCategory13installFilterEPFvPS_E
	_ZN16QLoggingCategory14setFilterRulesERK7QString
	_ZN16QLoggingCategory15defaultCategoryEv
	_ZN16QLoggingCategoryC1EPKc
	_ZN16QLoggingCategoryC2EPKc
	_ZN16QLoggingCategoryD1Ev
	_ZN16QLoggingCategoryD2Ev
	_ZN16QMetaEnumBuilder6addKeyERK10QByteArrayi
	_ZN16QMetaEnumBuilder9removeKeyEi
	_ZN16QMetaEnumBuilder9setIsFlagEb
	_ZN16QMetaStringTable18preferredAlignmentEv
	_ZN16QMetaStringTable5enterERK10QByteArray
	_ZN16QMetaStringTableC1ERK10QByteArray
	_ZN16QMetaStringTableC2ERK10QByteArray
	_ZN16QStringListModel10insertRowsEiiRK11QModelIndex
	_ZN16QStringListModel10removeRowsEiiRK11QModelIndex
	_ZN16QStringListModel11qt_metacallEN11QMetaObject4CallEiPPv
	_ZN16QStringListModel11qt_metacastEPKc
	_ZN16QStringListModel13setStringListERK11QStringList
	_ZN16QStringListModel16staticMetaObjectE
	_ZN16QStringListModel18qt_static_metacallEP7QObjectN11QMetaObject4CallEiPPv
	_ZN16QStringListModel4sortEiN2Qt9SortOrderE
	_ZN16QStringListModel7setDataERK11QModelIndexRK8QVarianti
	_ZN16QStringListModelC1EP7QObject
	_ZN16QStringListModelC1ERK11QStringListP7QObject
	_ZN16QStringListModelC2EP7QObject
	_ZN16QStringListModelC2ERK11QStringListP7QObject
	_ZN16QSystemSemaphore6setKeyERK7QStringiNS_10AccessModeE
	_ZN16QSystemSemaphore7acquireEv
	_ZN16QSystemSemaphore7releaseEi
	_ZN16QSystemSemaphoreC1ERK7QStringiNS_10AccessModeE
	_ZN16QSystemSemaphoreC2ERK7QStringiNS_10AccessModeE
	_ZN16QSystemSemaphoreD1Ev
	_ZN16QSystemSemaphoreD2Ev
	_ZN16QTimeZonePrivate11invalidDataEv
	_ZN16QTimeZonePrivate12toOffsetDataERKNS_4DataE
	_ZN16QTimeZonePrivate15isoOffsetFormatEi
	_ZN16QTimeZonePrivate17ianaIdToWindowsIdERK10QByteArray
	_ZN16QTimeZonePrivate17invalidOffsetDataEv
	_ZN16QTimeZonePrivate18windowsIdToIanaIdsERK10QByteArray
	_ZN16QTimeZonePrivate18windowsIdToIanaIdsERK10QByteArrayN7QLocale7CountryE
	_ZN16QTimeZonePrivate24windowsIdToDefaultIanaIdERK10QByteArray
	_ZN16QTimeZonePrivate24windowsIdToDefaultIanaIdERK10QByteArrayN7QLocale7CountryE
	_ZN16QTimeZonePrivate5cloneEv
	_ZN16QTimeZonePrivate9isValidIdERK10QByteArray
	_ZN16QTimeZonePrivateC1ERKS_
	_ZN16QTimeZonePrivateC1Ev
	_ZN16QTimeZonePrivateC2ERKS_
	_ZN16QTimeZonePrivateC2Ev
	_ZN16QTimeZonePrivateD0Ev
	_ZN16QTimeZonePrivateD1Ev
	_ZN16QTimeZonePrivateD2Ev
	_ZN16QXmlStreamReader10raiseErrorERK7QString
	_ZN16QXmlStreamReader15readElementTextENS_24ReadElementTextBehaviourE
	_ZN16QXmlStreamReader17setEntityResolverEP24QXmlStreamEntityResolver
	_ZN16QXmlStreamReader18skipCurrentElementEv
	_ZN16QXmlStreamReader20readNextStartElementEv
	_ZN16QXmlStreamReader22setNamespaceProcessingEb
	_ZN16QXmlStreamReader28addExtraNamespaceDeclarationERK30QXmlStreamNamespaceDeclaration
	_ZN16QXmlStreamReader29addExtraNamespaceDeclarationsERK7QVectorI30QXmlStreamNamespaceDeclarationE
	_ZN16QXmlStreamReader5clearEv
	_ZN16QXmlStreamReader7addDataEPKc
	_ZN16QXmlStreamReader7addDataERK10QByteArray
	_ZN16QXmlStreamReader7addDataERK7QString
	_ZN16QXmlStreamReader8readNextEv
	_ZN16QXmlStreamReader9setDeviceEP9QIODevice
	_ZN16QXmlStreamReaderC1EP9QIODevice
	_ZN16QXmlStreamReaderC1EPKc
	_ZN16QXmlStreamReaderC1ERK10QByteArray
	_ZN16QXmlStreamReaderC1ERK7QString
	_ZN16QXmlStreamReaderC1Ev
	_ZN16QXmlStreamReaderC2EP9QIODevice
	_ZN16QXmlStreamReaderC2EPKc
	_ZN16QXmlStreamReaderC2ERK10QByteArray
	_ZN16QXmlStreamReaderC2ERK7QString
	_ZN16QXmlStreamReaderC2Ev
	_ZN16QXmlStreamReaderD1Ev
	_ZN16QXmlStreamReaderD2Ev
	_ZN16QXmlStreamWriter10writeCDATAERK7QString
	_ZN16QXmlStreamWriter12writeCommentERK7QString
	_ZN16QXmlStreamWriter14writeAttributeERK19QXmlStreamAttribute
	_ZN16QXmlStreamWriter14writeAttributeERK7QStringS2_
	_ZN16QXmlStreamWriter14writeAttributeERK7QStringS2_S2_
	_ZN16QXmlStreamWriter14writeNamespaceERK7QStringS2_
	_ZN16QXmlStreamWriter15writeAttributesERK20QXmlStreamAttributes
	_ZN16QXmlStreamWriter15writeCharactersERK7QString
	_ZN16QXmlStreamWriter15writeEndElementEv
	_ZN16QXmlStreamWriter16writeEndDocumentEv
	_ZN16QXmlStreamWriter16writeTextElementERK7QStringS2_
	_ZN16QXmlStreamWriter16writeTextElementERK7QStringS2_S2_
	_ZN16QXmlStreamWriter17setAutoFormattingEb
	_ZN16QXmlStreamWriter17writeCurrentTokenERK16QXmlStreamReader
	_ZN16QXmlStreamWriter17writeEmptyElementERK7QString
	_ZN16QXmlStreamWriter17writeEmptyElementERK7QStringS2_
	_ZN16QXmlStreamWriter17writeStartElementERK7QString
	_ZN16QXmlStreamWriter17writeStartElementERK7QStringS2_
	_ZN16QXmlStreamWriter18writeStartDocumentERK7QString
	_ZN16QXmlStreamWriter18writeStartDocumentERK7QStringb
	_ZN16QXmlStreamWriter18writeStartDocumentEv
	_ZN16QXmlStreamWriter20writeEntityReferenceERK7QString
	_ZN16QXmlStreamWriter21writeDefaultNamespaceERK7QString
	_ZN16QXmlStreamWriter23setAutoFormattingIndentEi
	_ZN16QXmlStreamWriter26writeProcessingInstructionERK7QStringS2_
	_ZN16QXmlStreamWriter8setCodecEP10QTextCodec
	_ZN16QXmlStreamWriter8setCodecEPKc
	_ZN16QXmlStreamWriter8writeDTDERK7QString
	_ZN16QXmlStreamWriter9setDeviceEP9QIODevice
	_ZN16QXmlStreamWriterC1EP10QByteArray
	_ZN16QXmlStreamWriterC1EP7QString
	_ZN16QXmlStreamWriterC1EP9QIODevice
	_ZN16QXmlStreamWriterC1Ev
	_ZN16QXmlStreamWriterC2EP10QByteArray
	_ZN16QXmlStreamWriterC2EP7QString
	_ZN16QXmlStreamWriterC2EP9QIODevice
	_ZN16QXmlStreamWriterC2Ev
	_ZN16QXmlStreamWriterD1Ev
	_ZN16QXmlStreamWriterD2Ev
	_ZN17QByteArrayMatcher10setPatternERK10QByteArray
	_ZN17QByteArrayMatcherC1EPKci
	_ZN17QByteArrayMatcherC1ERK10QByteArray
	_ZN17QByteArrayMatcherC1ERKS_
	_ZN17QByteArrayMatcherC1Ev
	_ZN17QByteArrayMatcherC2EPKci
	_ZN17QByteArrayMatcherC2ERK10QByteArray
	_ZN17QByteArrayMatcherC2ERKS_
	_ZN17QByteArrayMatcherC2Ev
	_ZN17QByteArrayMatcherD1Ev
	_ZN17QByteArrayMatcherD2Ev
	_ZN17QByteArrayMatcheraSERKS_
	_ZN17QFactoryInterfaceD0Ev
	_ZN17QFactoryInterfaceD1Ev
	_ZN17QSignalTransition11qt_metacallEN11QMetaObject4CallEiPPv
	_ZN17QSignalTransition11qt_metacastEPKc
	_ZN17QSignalTransition12onTransitionEP6QEvent
	_ZN17QSignalTransition15setSenderObjectEPK7QObject
	_ZN17QSignalTransition16staticMetaObjectE
	_ZN17QSignalTransition18qt_static_metacallEP7QObjectN11QMetaObject4CallEiPPv
	_ZN17QSignalTransition5eventEP6QEvent
	_ZN17QSignalTransition9eventTestEP6QEvent
	_ZN17QSignalTransition9setSignalERK10QByteArray
	_ZN17QSignalTransitionC1EP6QState
	_ZN17QSignalTransitionC1EPK7QObjectPKcP6QState
	_ZN17QSignalTransitionC2EP6QState
	_ZN17QSignalTransitionC2EPK7QObjectPKcP6QState
	_ZN17QSignalTransitionD0Ev
	_ZN17QSignalTransitionD1Ev
	_ZN17QSignalTransitionD2Ev
	_ZN17QVariantAnimation11qt_metacallEN11QMetaObject4CallEiPPv
	_ZN17QVariantAnimation11qt_metacastEPKc
	_ZN17QVariantAnimation11setDurationEi
	_ZN17QVariantAnimation11setEndValueERK8QVariant
	_ZN17QVariantAnimation11updateStateEN18QAbstractAnimation5StateES1_
	_ZN17QVariantAnimation12setKeyValuesERK7QVectorI5QPairId8QVariantEE
	_ZN17QVariantAnimation12valueChangedERK8QVariant
	_ZN17QVariantAnimation13setKeyValueAtEdRK8QVariant
	_ZN17QVariantAnimation13setStartValueERK8QVariant
	_ZN17QVariantAnimation14setEasingCurveERK12QEasingCurve
	_ZN17QVariantAnimation16staticMetaObjectE
	_ZN17QVariantAnimation17updateCurrentTimeEi
	_ZN17QVariantAnimation18qt_static_metacallEP7QObjectN11QMetaObject4CallEiPPv
	_ZN17QVariantAnimation18updateCurrentValueERK8QVariant
	_ZN17QVariantAnimation20registerInterpolatorEPF8QVariantPKvS2_dEi
	_ZN17QVariantAnimation5eventEP6QEvent
	_ZN17QVariantAnimationC1EP7QObject
	_ZN17QVariantAnimationC1ER24QVariantAnimationPrivateP7QObject
	_ZN17QVariantAnimationC2EP7QObject
	_ZN17QVariantAnimationC2ER24QVariantAnimationPrivateP7QObject
	_ZN17QVariantAnimationD0Ev
	_ZN17QVariantAnimationD1Ev
	_ZN17QVariantAnimationD2Ev
	_ZN17QWinEventNotifier10setEnabledEb
	_ZN17QWinEventNotifier11qt_metacallEN11QMetaObject4CallEiPPv
	_ZN17QWinEventNotifier11qt_metacastEPKc
	_ZN17QWinEventNotifier16staticMetaObjectE
	_ZN17QWinEventNotifier18qt_static_metacallEP7QObjectN11QMetaObject4CallEiPPv
	_ZN17QWinEventNotifier5eventEP6QEvent
	_ZN17QWinEventNotifier9activatedEPvNS_14QPrivateSignalE
	_ZN17QWinEventNotifier9setHandleEPv
	_ZN17QWinEventNotifierC1EP7QObject
	_ZN17QWinEventNotifierC1EPvP7QObject
	_ZN17QWinEventNotifierC2EP7QObject
	_ZN17QWinEventNotifierC2EPvP7QObject
	_ZN17QWinEventNotifierD0Ev
	_ZN17QWinEventNotifierD1Ev
	_ZN17QWinEventNotifierD2Ev
	_ZN18QAbstractAnimation11qt_metacallEN11QMetaObject4CallEiPPv
	_ZN18QAbstractAnimation11qt_metacastEPKc
	_ZN18QAbstractAnimation11updateStateENS_5StateES0_
	_ZN18QAbstractAnimation12setDirectionENS_9DirectionE
	_ZN18QAbstractAnimation12setLoopCountEi
	_ZN18QAbstractAnimation12stateChangedENS_5StateES0_
	_ZN18QAbstractAnimation14setCurrentTimeEi
	_ZN18QAbstractAnimation15updateDirectionENS_9DirectionE
	_ZN18QAbstractAnimation16directionChangedENS_9DirectionE
	_ZN18QAbstractAnimation16staticMetaObjectE
	_ZN18QAbstractAnimation18currentLoopChangedEi
	_ZN18QAbstractAnimation18qt_static_metacallEP7QObjectN11QMetaObject4CallEiPPv
	_ZN18QAbstractAnimation4stopEv
	_ZN18QAbstractAnimation5eventEP6QEvent
	_ZN18QAbstractAnimation5pauseEv
	_ZN18QAbstractAnimation5startENS_14DeletionPolicyE
	_ZN18QAbstractAnimation6resumeEv
	_ZN18QAbstractAnimation8finishedEv
	_ZN18QAbstractAnimation9setPausedEb
	_ZN18QAbstractAnimationC1EP7QObject
	_ZN18QAbstractAnimationC1ER25QAbstractAnimationPrivateP7QObject
	_ZN18QAbstractAnimationC2EP7QObject
	_ZN18QAbstractAnimationC2ER25QAbstractAnimationPrivateP7QObject
	_ZN18QAbstractAnimationD0Ev
	_ZN18QAbstractAnimationD1Ev
	_ZN18QAbstractAnimationD2Ev
	_ZN18QAbstractItemModel10decodeDataEiiRK11QModelIndexR11QDataStream
	_ZN18QAbstractItemModel10insertRowsEiiRK11QModelIndex
	_ZN18QAbstractItemModel10modelResetENS_14QPrivateSignalE
	_ZN18QAbstractItemModel10removeRowsEiiRK11QModelIndex
	_ZN18QAbstractItemModel11dataChangedERK11QModelIndexS2_RK7QVectorIiE
	_ZN18QAbstractItemModel11endMoveRowsEv
	_ZN18QAbstractItemModel11moveColumnsERK11QModelIndexiiS2_i
	_ZN18QAbstractItemModel11qt_metacallEN11QMetaObject4CallEiPPv
	_ZN18QAbstractItemModel11qt_metacastEPKc
	_ZN18QAbstractItemModel11rowsRemovedERK11QModelIndexiiNS_14QPrivateSignalE
	_ZN18QAbstractItemModel11setItemDataERK11QModelIndexRK4QMapIi8QVariantE
	_ZN18QAbstractItemModel12columnsMovedERK11QModelIndexiiS2_iNS_14QPrivateSignalE
	_ZN18QAbstractItemModel12dropMimeDataEPK9QMimeDataN2Qt10DropActionEiiRK11QModelIndex
	_ZN18QAbstractItemModel12rowsInsertedERK11QModelIndexiiNS_14QPrivateSignalE
	_ZN18QAbstractItemModel13beginMoveRowsERK11QModelIndexiiS2_i
	_ZN18QAbstractItemModel13endInsertRowsEv
	_ZN18QAbstractItemModel13endRemoveRowsEv
	_ZN18QAbstractItemModel13endResetModelEv
	_ZN18QAbstractItemModel13insertColumnsEiiRK11QModelIndex
	_ZN18QAbstractItemModel13layoutChangedERK5QListI21QPersistentModelIndexENS_16LayoutChangeHintE
	_ZN18QAbstractItemModel13removeColumnsEiiRK11QModelIndex
	_ZN18QAbstractItemModel13setHeaderDataEiN2Qt11OrientationERK8QVarianti
	_ZN18QAbstractItemModel14columnsRemovedERK11QModelIndexiiNS_14QPrivateSignalE
	_ZN18QAbstractItemModel14doSetRoleNamesERK5QHashIi10QByteArrayE
	_ZN18QAbstractItemModel14endMoveColumnsEv
	_ZN18QAbstractItemModel15beginInsertRowsERK11QModelIndexii
	_ZN18QAbstractItemModel15beginRemoveRowsERK11QModelIndexii
	_ZN18QAbstractItemModel15beginResetModelEv
	_ZN18QAbstractItemModel15columnsInsertedERK11QModelIndexiiNS_14QPrivateSignalE
	_ZN18QAbstractItemModel16beginMoveColumnsERK11QModelIndexiiS2_i
	_ZN18QAbstractItemModel16endInsertColumnsEv
	_ZN18QAbstractItemModel16endRemoveColumnsEv
	_ZN18QAbstractItemModel16staticMetaObjectE
	_ZN18QAbstractItemModel17headerDataChangedEN2Qt11OrientationEii
	_ZN18QAbstractItemModel17resetInternalDataEv
	_ZN18QAbstractItemModel18beginInsertColumnsERK11QModelIndexii
	_ZN18QAbstractItemModel18beginRemoveColumnsERK11QModelIndexii
	_ZN18QAbstractItemModel18qt_static_metacallEP7QObjectN11QMetaObject4CallEiPPv
	_ZN18QAbstractItemModel18rowsAboutToBeMovedERK11QModelIndexiiS2_iNS_14QPrivateSignalE
	_ZN18QAbstractItemModel19modelAboutToBeResetENS_14QPrivateSignalE
	_ZN18QAbstractItemModel20rowsAboutToBeRemovedERK11QModelIndexiiNS_14QPrivateSignalE
	_ZN18QAbstractItemModel21changePersistentIndexERK11QModelIndexS2_
	_ZN18QAbstractItemModel21columnsAboutToBeMovedERK11QModelIndexiiS2_iNS_14QPrivateSignalE
	_ZN18QAbstractItemModel21rowsAboutToBeInsertedERK11QModelIndexiiNS_14QPrivateSignalE
	_ZN18QAbstractItemModel22layoutAboutToBeChangedERK5QListI21QPersistentModelIndexENS_16LayoutChangeHintE
	_ZN18QAbstractItemModel23columnsAboutToBeRemovedERK11QModelIndexiiNS_14QPrivateSignalE
	_ZN18QAbstractItemModel24columnsAboutToBeInsertedERK11QModelIndexiiNS_14QPrivateSignalE
	_ZN18QAbstractItemModel25changePersistentIndexListERK5QListI11QModelIndexES4_
	_ZN18QAbstractItemModel25doSetSupportedDragActionsE6QFlagsIN2Qt10DropActionEE
	_ZN18QAbstractItemModel4sortEiN2Qt9SortOrderE
	_ZN18QAbstractItemModel6revertEv
	_ZN18QAbstractItemModel6submitEv
	_ZN18QAbstractItemModel7setDataERK11QModelIndexRK8QVarianti
	_ZN18QAbstractItemModel8moveRowsERK11QModelIndexiiS2_i
	_ZN18QAbstractItemModel9fetchMoreERK11QModelIndex
	_ZN18QAbstractItemModel9rowsMovedERK11QModelIndexiiS2_iNS_14QPrivateSignalE
	_ZN18QAbstractItemModelC1EP7QObject
	_ZN18QAbstractItemModelC1ER25QAbstractItemModelPrivateP7QObject
	_ZN18QAbstractItemModelC2EP7QObject
	_ZN18QAbstractItemModelC2ER25QAbstractItemModelPrivateP7QObject
	_ZN18QAbstractItemModelD0Ev
	_ZN18QAbstractItemModelD1Ev
	_ZN18QAbstractItemModelD2Ev
	_ZN18QAbstractListModel11qt_metacallEN11QMetaObject4CallEiPPv
	_ZN18QAbstractListModel11qt_metacastEPKc
	_ZN18QAbstractListModel12dropMimeDataEPK9QMimeDataN2Qt10DropActionEiiRK11QModelIndex
	_ZN18QAbstractListModel16staticMetaObjectE
	_ZN18QAbstractListModel18qt_static_metacallEP7QObjectN11QMetaObject4CallEiPPv
	_ZN18QAbstractListModelC1EP7QObject
	_ZN18QAbstractListModelC1ER25QAbstractItemModelPrivateP7QObject
	_ZN18QAbstractListModelC2EP7QObject
	_ZN18QAbstractListModelC2ER25QAbstractItemModelPrivateP7QObject
	_ZN18QAbstractListModelD0Ev
	_ZN18QAbstractListModelD1Ev
	_ZN18QAbstractListModelD2Ev
	_ZN18QCommandLineOption12setValueNameERK7QString
	_ZN18QCommandLineOption14setDescriptionERK7QString
	_ZN18QCommandLineOption15setDefaultValueERK7QString
	_ZN18QCommandLineOption16setDefaultValuesERK11QStringList
	_ZN18QCommandLineOptionC1ERK11QStringListRK7QStringS5_S5_
	_ZN18QCommandLineOptionC1ERK7QStringS2_S2_S2_
	_ZN18QCommandLineOptionC1ERKS_
	_ZN18QCommandLineOptionC2ERK11QStringListRK7QStringS5_S5_
	_ZN18QCommandLineOptionC2ERK7QStringS2_S2_S2_
	_ZN18QCommandLineOptionC2ERKS_
	_ZN18QCommandLineOptionD1Ev
	_ZN18QCommandLineOptionD2Ev
	_ZN18QCommandLineOptionaSERKS_
	_ZN18QCommandLineParser13addHelpOptionEv
	_ZN18QCommandLineParser16addVersionOptionEv
	_ZN18QCommandLineParser21addPositionalArgumentERK7QStringS2_S2_
	_ZN18QCommandLineParser24clearPositionalArgumentsEv
	_ZN18QCommandLineParser25setApplicationDescriptionERK7QString
	_ZN18QCommandLineParser27setSingleDashWordOptionModeENS_24SingleDashWordOptionModeE
	_ZN18QCommandLineParser5parseERK11QStringList
	_ZN18QCommandLineParser7processERK11QStringList
	_ZN18QCommandLineParser7processERK16QCoreApplication
	_ZN18QCommandLineParser8showHelpEi
	_ZN18QCommandLineParser9addOptionERK18QCommandLineOption
	_ZN18QCommandLineParserC1Ev
	_ZN18QCommandLineParserC2Ev
	_ZN18QCommandLineParserD1Ev
	_ZN18QCommandLineParserD2Ev
	_ZN18QCryptographicHash4hashERK10QByteArrayNS_9AlgorithmE
	_ZN18QCryptographicHash5resetEv
	_ZN18QCryptographicHash7addDataEP9QIODevice
	_ZN18QCryptographicHash7addDataEPKci
	_ZN18QCryptographicHash7addDataERK10QByteArray
	_ZN18QCryptographicHashC1ENS_9AlgorithmE
	_ZN18QCryptographicHashC2ENS_9AlgorithmE
	_ZN18QCryptographicHashD1Ev
	_ZN18QCryptographicHashD2Ev
	_ZN18QFileSystemWatcher10removePathERK7QString
	_ZN18QFileSystemWatcher11fileChangedERK7QStringNS_14QPrivateSignalE
	_ZN18QFileSystemWatcher11qt_metacallEN11QMetaObject4CallEiPPv
	_ZN18QFileSystemWatcher11qt_metacastEPKc
	_ZN18QFileSystemWatcher11removePathsERK11QStringList
	_ZN18QFileSystemWatcher16directoryChangedERK7QStringNS_14QPrivateSignalE
	_ZN18QFileSystemWatcher16staticMetaObjectE
	_ZN18QFileSystemWatcher18qt_static_metacallEP7QObjectN11QMetaObject4CallEiPPv
	_ZN18QFileSystemWatcher7addPathERK7QString
	_ZN18QFileSystemWatcher8addPathsERK11QStringList
	_ZN18QFileSystemWatcherC1EP7QObject
	_ZN18QFileSystemWatcherC1ERK11QStringListP7QObject
	_ZN18QFileSystemWatcherC2EP7QObject
	_ZN18QFileSystemWatcherC2ERK11QStringListP7QObject
	_ZN18QFileSystemWatcherD0Ev
	_ZN18QFileSystemWatcherD1Ev
	_ZN18QFileSystemWatcherD2Ev
	_ZN18QFutureWatcherBase11qt_metacallEN11QMetaObject4CallEiPPv
	_ZN18QFutureWatcherBase11qt_metacastEPKc
	_ZN18QFutureWatcherBase12togglePausedEv
	_ZN18QFutureWatcherBase13connectNotifyERK11QMetaMethod
	_ZN18QFutureWatcherBase13resultReadyAtEi
	_ZN18QFutureWatcherBase14resultsReadyAtEii
	_ZN18QFutureWatcherBase15waitForFinishedEv
	_ZN18QFutureWatcherBase16disconnectNotifyERK11QMetaMethod
	_ZN18QFutureWatcherBase16staticMetaObjectE
	_ZN18QFutureWatcherBase18qt_static_metacallEP7QObjectN11QMetaObject4CallEiPPv
	_ZN18QFutureWatcherBase19progressTextChangedERK7QString
	_ZN18QFutureWatcherBase20progressRangeChangedEii
	_ZN18QFutureWatcherBase20progressValueChangedEi
	_ZN18QFutureWatcherBase22connectOutputInterfaceEv
	_ZN18QFutureWatcherBase22setPendingResultsLimitEi
	_ZN18QFutureWatcherBase25disconnectOutputInterfaceEb
	_ZN18QFutureWatcherBase5eventEP6QEvent
	_ZN18QFutureWatcherBase5pauseEv
	_ZN18QFutureWatcherBase6cancelEv
	_ZN18QFutureWatcherBase6pausedEv
	_ZN18QFutureWatcherBase6resumeEv
	_ZN18QFutureWatcherBase7resumedEv
	_ZN18QFutureWatcherBase7startedEv
	_ZN18QFutureWatcherBase8canceledEv
	_ZN18QFutureWatcherBase8finishedEv
	_ZN18QFutureWatcherBase9setPausedEb
	_ZN18QFutureWatcherBaseC1EP7QObject
	_ZN18QFutureWatcherBaseC2EP7QObject
	_ZN18QMetaMethodBuilder11setRevisionEi
	_ZN18QMetaMethodBuilder13setAttributesEi
	_ZN18QMetaMethodBuilder13setReturnTypeERK10QByteArray
	_ZN18QMetaMethodBuilder17setParameterNamesERK5QListI10QByteArrayE
	_ZN18QMetaMethodBuilder6setTagERK10QByteArray
	_ZN18QMetaMethodBuilder9setAccessEN11QMetaMethod6AccessE
	_ZN18QMetaObjectBuilder11addPropertyERK10QByteArrayS2_i
	_ZN18QMetaObjectBuilder11addPropertyERK13QMetaProperty
	_ZN18QMetaObjectBuilder11deserializeER11QDataStreamRK4QMapI10QByteArrayPK11QMetaObjectE
	_ZN18QMetaObjectBuilder11indexOfSlotERK10QByteArray
	_ZN18QMetaObjectBuilder12addClassInfoERK10QByteArrayS2_
	_ZN18QMetaObjectBuilder12removeMethodEi
	_ZN18QMetaObjectBuilder12setClassNameERK10QByteArray
	_ZN18QMetaObjectBuilder13addEnumeratorERK10QByteArray
	_ZN18QMetaObjectBuilder13addEnumeratorERK9QMetaEnum
	_ZN18QMetaObjectBuilder13addMetaObjectEPK11QMetaObject6QFlagsINS_9AddMemberEE
	_ZN18QMetaObjectBuilder13indexOfMethodERK10QByteArray
	_ZN18QMetaObjectBuilder13indexOfSignalERK10QByteArray
	_ZN18QMetaObjectBuilder13setSuperClassEPK11QMetaObject
	_ZN18QMetaObjectBuilder14addConstructorERK10QByteArray
	_ZN18QMetaObjectBuilder14addConstructorERK11QMetaMethod
	_ZN18QMetaObjectBuilder14removePropertyEi
	_ZN18QMetaObjectBuilder15indexOfPropertyERK10QByteArray
	_ZN18QMetaObjectBuilder15removeClassInfoEi
	_ZN18QMetaObjectBuilder16indexOfClassInfoERK10QByteArray
	_ZN18QMetaObjectBuilder16removeEnumeratorEi
	_ZN18QMetaObjectBuilder17indexOfEnumeratorERK10QByteArray
	_ZN18QMetaObjectBuilder17removeConstructorEi
	_ZN18QMetaObjectBuilder18indexOfConstructorERK10QByteArray
	_ZN18QMetaObjectBuilder19fromRelocatableDataEP11QMetaObjectPKS0_RK10QByteArray
	_ZN18QMetaObjectBuilder20addRelatedMetaObjectEPK11QMetaObject
	_ZN18QMetaObjectBuilder23removeRelatedMetaObjectEi
	_ZN18QMetaObjectBuilder25setStaticMetacallFunctionEPFvP7QObjectN11QMetaObject4CallEiPPvE
	_ZN18QMetaObjectBuilder7addSlotERK10QByteArray
	_ZN18QMetaObjectBuilder8setFlagsE6QFlagsINS_14MetaObjectFlagEE
	_ZN18QMetaObjectBuilder9addMethodERK10QByteArray
	_ZN18QMetaObjectBuilder9addMethodERK10QByteArrayS2_
	_ZN18QMetaObjectBuilder9addMethodERK11QMetaMethod
	_ZN18QMetaObjectBuilder9addSignalERK10QByteArray
	_ZN18QMetaObjectBuilderC1EPK11QMetaObject6QFlagsINS_9AddMemberEE
	_ZN18QMetaObjectBuilderC1Ev
	_ZN18QMetaObjectBuilderC2EPK11QMetaObject6QFlagsINS_9AddMemberEE
	_ZN18QMetaObjectBuilderC2Ev
	_ZN18QMetaObjectBuilderD0Ev
	_ZN18QMetaObjectBuilderD1Ev
	_ZN18QMetaObjectBuilderD2Ev
	_ZN18QMetaObjectPrivate11signalIndexERK11QMetaMethod
	_ZN18QMetaObjectPrivate12signalOffsetEPK11QMetaObject
	_ZN18QMetaObjectPrivate19absoluteSignalCountEPK11QMetaObject
	_ZN18QMetaObjectPrivate6signalEPK11QMetaObjecti
	_ZN18QPropertyAnimation11qt_metacallEN11QMetaObject4CallEiPPv
	_ZN18QPropertyAnimation11qt_metacastEPKc
	_ZN18QPropertyAnimation11updateStateEN18QAbstractAnimation5StateES1_
	_ZN18QPropertyAnimation15setPropertyNameERK10QByteArray
	_ZN18QPropertyAnimation15setTargetObjectEP7QObject
	_ZN18QPropertyAnimation16staticMetaObjectE
	_ZN18QPropertyAnimation18qt_static_metacallEP7QObjectN11QMetaObject4CallEiPPv
	_ZN18QPropertyAnimation18updateCurrentValueERK8QVariant
	_ZN18QPropertyAnimation5eventEP6QEvent
	_ZN18QPropertyAnimationC1EP7QObject
	_ZN18QPropertyAnimationC1EP7QObjectRK10QByteArrayS1_
	_ZN18QPropertyAnimationC2EP7QObject
	_ZN18QPropertyAnimationC2EP7QObjectRK10QByteArrayS1_
	_ZN18QPropertyAnimationD0Ev
	_ZN18QPropertyAnimationD1Ev
	_ZN18QPropertyAnimationD2Ev
	_ZN18QRegularExpression10setPatternERK7QString
	_ZN18QRegularExpression17setPatternOptionsE6QFlagsINS_13PatternOptionEE
	_ZN18QRegularExpression6escapeERK7QString
	_ZN18QRegularExpressionC1ER25QRegularExpressionPrivate
	_ZN18QRegularExpressionC1ERK7QString6QFlagsINS_13PatternOptionEE
	_ZN18QRegularExpressionC1ERKS_
	_ZN18QRegularExpressionC1Ev
	_ZN18QRegularExpressionC2ER25QRegularExpressionPrivate
	_ZN18QRegularExpressionC2ERK7QString6QFlagsINS_13PatternOptionEE
	_ZN18QRegularExpressionC2ERKS_
	_ZN18QRegularExpressionC2Ev
	_ZN18QRegularExpressionD1Ev
	_ZN18QRegularExpressionD2Ev
	_ZN18QRegularExpressionaSERKS_
	_ZN18QThreadPoolPrivate11enqueueTaskEP9QRunnablei
	_ZN18QThreadPoolPrivate11startThreadEP9QRunnable
	_ZN18QThreadPoolPrivate11waitForDoneEi
	_ZN18QThreadPoolPrivate13stealRunnableEP9QRunnable
	_ZN18QThreadPoolPrivate21tryToStartMoreThreadsEv
	_ZN18QThreadPoolPrivate5clearEv
	_ZN18QThreadPoolPrivate5resetEv
	_ZN18QThreadPoolPrivate8tryStartEP9QRunnable
	_ZN18QThreadPoolPrivateC1Ev
	_ZN18QThreadPoolPrivateC2Ev
	_ZN18QThreadStorageData3setEPv
	_ZN18QThreadStorageData6finishEPPv
	_ZN18QThreadStorageDataC1EPFvPvE
	_ZN18QThreadStorageDataC2EPFvPvE
	_ZN18QThreadStorageDataD1Ev
	_ZN18QThreadStorageDataD2Ev
	_ZN18QWindowsPipeReader10pipeClosedEv
	_ZN18QWindowsPipeReader11qt_metacallEN11QMetaObject4CallEiPPv
	_ZN18QWindowsPipeReader11qt_metacastEPKc
	_ZN18QWindowsPipeReader14checkPipeStateEv
	_ZN18QWindowsPipeReader14startAsyncReadEv
	_ZN18QWindowsPipeReader16staticMetaObjectE
	_ZN18QWindowsPipeReader16waitForReadyReadEi
	_ZN18QWindowsPipeReader17completeAsyncReadEmm
	_ZN18QWindowsPipeReader17waitForPipeClosedEi
	_ZN18QWindowsPipeReader18qt_static_metacallEP7QObjectN11QMetaObject4CallEiPPv
	_ZN18QWindowsPipeReader4readEPcx
	_ZN18QWindowsPipeReader4stopEv
	_ZN18QWindowsPipeReader8notifiedEjjP11_OVERLAPPED
	_ZN18QWindowsPipeReader8winErrorEmRK7QString
	_ZN18QWindowsPipeReader9readyReadEv
	_ZN18QWindowsPipeReader9setHandleEPv
	_ZN18QWindowsPipeReaderC1EP7QObject
	_ZN18QWindowsPipeReaderC2EP7QObject
	_ZN18QWindowsPipeReaderD0Ev
	_ZN18QWindowsPipeReaderD1Ev
	_ZN18QWindowsPipeReaderD2Ev
	_ZN18QWindowsPipeWriter11qt_metacallEN11QMetaObject4CallEiPPv
	_ZN18QWindowsPipeWriter11qt_metacastEPKc
	_ZN18QWindowsPipeWriter12bytesWrittenEx
	_ZN18QWindowsPipeWriter12waitForWriteEi
	_ZN18QWindowsPipeWriter16staticMetaObjectE
	_ZN18QWindowsPipeWriter18qt_static_metacallEP7QObjectN11QMetaObject4CallEiPPv
	_ZN18QWindowsPipeWriter3runEv
	_ZN18QWindowsPipeWriter5writeEPKcx
	_ZN18QWindowsPipeWriter8canWriteEv
	_ZN18QWindowsPipeWriterC1EPvP7QObject
	_ZN18QWindowsPipeWriterC2EPvP7QObject
	_ZN18QWindowsPipeWriterD0Ev
	_ZN18QWindowsPipeWriterD1Ev
	_ZN18QWindowsPipeWriterD2Ev
	_ZN19QAbstractFileEngine10syncToDiskEv
	_ZN19QAbstractFileEngine11setFileNameERK7QString
	_ZN19QAbstractFileEngine12endEntryListEv
	_ZN19QAbstractFileEngine14beginEntryListE6QFlagsIN4QDir6FilterEERK11QStringList
	_ZN19QAbstractFileEngine14setPermissionsEj
	_ZN19QAbstractFileEngine15renameOverwriteERK7QString
	_ZN19QAbstractFileEngine3mapExxN11QFileDevice14MemoryMapFlagsE
	_ZN19QAbstractFileEngine4copyERK7QString
	_ZN19QAbstractFileEngine4linkERK7QString
	_ZN19QAbstractFileEngine4openE6QFlagsIN9QIODevice12OpenModeFlagEE
	_ZN19QAbstractFileEngine4readEPcx
	_ZN19QAbstractFileEngine4seekEx
	_ZN19QAbstractFileEngine5closeEv
	_ZN19QAbstractFileEngine5flushEv
	_ZN19QAbstractFileEngine5unmapEPh
	_ZN19QAbstractFileEngine5writeEPKcx
	_ZN19QAbstractFileEngine6createERK7QString
	_ZN19QAbstractFileEngine6removeEv
	_ZN19QAbstractFileEngine6renameERK7QString
	_ZN19QAbstractFileEngine7setSizeEx
	_ZN19QAbstractFileEngine8readLineEPcx
	_ZN19QAbstractFileEngine8setErrorEN11QFileDevice9FileErrorERK7QString
	_ZN19QAbstractFileEngine9extensionENS_9ExtensionEPKNS_15ExtensionOptionEPNS_15ExtensionReturnE
	_ZN19QAbstractFileEngineC1ER26QAbstractFileEnginePrivate
	_ZN19QAbstractFileEngineC1Ev
	_ZN19QAbstractFileEngineC2ER26QAbstractFileEnginePrivate
	_ZN19QAbstractFileEngineC2Ev
	_ZN19QAbstractFileEngineD0Ev
	_ZN19QAbstractFileEngineD1Ev
	_ZN19QAbstractFileEngineD2Ev
	_ZN19QAbstractProxyModel11qt_metacallEN11QMetaObject4CallEiPPv
	_ZN19QAbstractProxyModel11qt_metacastEPKc
	_ZN19QAbstractProxyModel11setItemDataERK11QModelIndexRK4QMapIi8QVariantE
	_ZN19QAbstractProxyModel13setHeaderDataEiN2Qt11OrientationERK8QVarianti
	_ZN19QAbstractProxyModel14setSourceModelEP18QAbstractItemModel
	_ZN19QAbstractProxyModel16staticMetaObjectE
	_ZN19QAbstractProxyModel17resetInternalDataEv
	_ZN19QAbstractProxyModel18qt_static_metacallEP7QObjectN11QMetaObject4CallEiPPv
	_ZN19QAbstractProxyModel18sourceModelChangedENS_14QPrivateSignalE
	_ZN19QAbstractProxyModel4sortEiN2Qt9SortOrderE
	_ZN19QAbstractProxyModel6revertEv
	_ZN19QAbstractProxyModel6submitEv
	_ZN19QAbstractProxyModel7setDataERK11QModelIndexRK8QVarianti
	_ZN19QAbstractProxyModel9fetchMoreERK11QModelIndex
	_ZN19QAbstractProxyModelC1EP7QObject
	_ZN19QAbstractProxyModelC1ER26QAbstractProxyModelPrivateP7QObject
	_ZN19QAbstractProxyModelC2EP7QObject
	_ZN19QAbstractProxyModelC2ER26QAbstractProxyModelPrivateP7QObject
	_ZN19QAbstractProxyModelD0Ev
	_ZN19QAbstractProxyModelD1Ev
	_ZN19QAbstractProxyModelD2Ev
	_ZN19QAbstractTableModel11qt_metacallEN11QMetaObject4CallEiPPv
	_ZN19QAbstractTableModel11qt_metacastEPKc
	_ZN19QAbstractTableModel12dropMimeDataEPK9QMimeDataN2Qt10DropActionEiiRK11QModelIndex
	_ZN19QAbstractTableModel16staticMetaObjectE
	_ZN19QAbstractTableModel18qt_static_metacallEP7QObjectN11QMetaObject4CallEiPPv
	_ZN19QAbstractTableModelC1EP7QObject
	_ZN19QAbstractTableModelC1ER25QAbstractItemModelPrivateP7QObject
	_ZN19QAbstractTableModelC2EP7QObject
	_ZN19QAbstractTableModelC2ER25QAbstractItemModelPrivateP7QObject
	_ZN19QAbstractTableModelD0Ev
	_ZN19QAbstractTableModelD1Ev
	_ZN19QAbstractTableModelD2Ev
	_ZN19QAbstractTransition11qt_metacallEN11QMetaObject4CallEiPPv
	_ZN19QAbstractTransition11qt_metacastEPKc
	_ZN19QAbstractTransition12addAnimationEP18QAbstractAnimation
	_ZN19QAbstractTransition14setTargetStateEP14QAbstractState
	_ZN19QAbstractTransition15removeAnimationEP18QAbstractAnimation
	_ZN19QAbstractTransition15setTargetStatesERK5QListIP14QAbstractStateE
	_ZN19QAbstractTransition16staticMetaObjectE
	_ZN19QAbstractTransition18qt_static_metacallEP7QObjectN11QMetaObject4CallEiPPv
	_ZN19QAbstractTransition5eventEP6QEvent
	_ZN19QAbstractTransition9triggeredENS_14QPrivateSignalE
	_ZN19QAbstractTransitionC1EP6QState
	_ZN19QAbstractTransitionC1ER26QAbstractTransitionPrivateP6QState
	_ZN19QAbstractTransitionC2EP6QState
	_ZN19QAbstractTransitionC2ER26QAbstractTransitionPrivateP6QState
	_ZN19QAbstractTransitionD0Ev
	_ZN19QAbstractTransitionD1Ev
	_ZN19QAbstractTransitionD2Ev
	_ZN19QIdentityProxyModel10insertRowsEiiRK11QModelIndex
	_ZN19QIdentityProxyModel10removeRowsEiiRK11QModelIndex
	_ZN19QIdentityProxyModel11qt_metacallEN11QMetaObject4CallEiPPv
	_ZN19QIdentityProxyModel11qt_metacastEPKc
	_ZN19QIdentityProxyModel12dropMimeDataEPK9QMimeDataN2Qt10DropActionEiiRK11QModelIndex
	_ZN19QIdentityProxyModel13insertColumnsEiiRK11QModelIndex
	_ZN19QIdentityProxyModel13removeColumnsEiiRK11QModelIndex
	_ZN19QIdentityProxyModel14setSourceModelEP18QAbstractItemModel
	_ZN19QIdentityProxyModel16staticMetaObjectE
	_ZN19QIdentityProxyModel18qt_static_metacallEP7QObjectN11QMetaObject4CallEiPPv
	_ZN19QIdentityProxyModelC1EP7QObject
	_ZN19QIdentityProxyModelC1ER26QIdentityProxyModelPrivateP7QObject
	_ZN19QIdentityProxyModelC2EP7QObject
	_ZN19QIdentityProxyModelC2ER26QIdentityProxyModelPrivateP7QObject
	_ZN19QIdentityProxyModelD0Ev
	_ZN19QIdentityProxyModelD1Ev
	_ZN19QIdentityProxyModelD2Ev
	_ZN19QItemSelectionModel11qt_metacallEN11QMetaObject4CallEiPPv
	_ZN19QItemSelectionModel11qt_metacastEPKc
	_ZN19QItemSelectionModel14clearSelectionEv
	_ZN19QItemSelectionModel14currentChangedERK11QModelIndexS2_
	_ZN19QItemSelectionModel15setCurrentIndexERK11QModelIndex6QFlagsINS_13SelectionFlagEE
	_ZN19QItemSelectionModel16selectionChangedERK14QItemSelectionS2_
	_ZN19QItemSelectionModel16staticMetaObjectE
	_ZN19QItemSelectionModel17clearCurrentIndexEv
	_ZN19QItemSelectionModel17currentRowChangedERK11QModelIndexS2_
	_ZN19QItemSelectionModel18qt_static_metacallEP7QObjectN11QMetaObject4CallEiPPv
	_ZN19QItemSelectionModel20currentColumnChangedERK11QModelIndexS2_
	_ZN19QItemSelectionModel20emitSelectionChangedERK14QItemSelectionS2_
	_ZN19QItemSelectionModel5clearEv
	_ZN19QItemSelectionModel5resetEv
	_ZN19QItemSelectionModel6selectERK11QModelIndex6QFlagsINS_13SelectionFlagEE
	_ZN19QItemSelectionModel6selectERK14QItemSelection6QFlagsINS_13SelectionFlagEE
	_ZN19QItemSelectionModelC1EP18QAbstractItemModel
	_ZN19QItemSelectionModelC1EP18QAbstractItemModelP7QObject
	_ZN19QItemSelectionModelC1ER26QItemSelectionModelPrivateP18QAbstractItemModel
	_ZN19QItemSelectionModelC2EP18QAbstractItemModel
	_ZN19QItemSelectionModelC2EP18QAbstractItemModelP7QObject
	_ZN19QItemSelectionModelC2ER26QItemSelectionModelPrivateP18QAbstractItemModel
	_ZN19QItemSelectionModelD0Ev
	_ZN19QItemSelectionModelD1Ev
	_ZN19QItemSelectionModelD2Ev
	_ZN19QProcessEnvironment17systemEnvironmentEv
	_ZN19QProcessEnvironment5clearEv
	_ZN19QProcessEnvironment6insertERK7QStringS2_
	_ZN19QProcessEnvironment6insertERKS_
	_ZN19QProcessEnvironment6removeERK7QString
	_ZN19QProcessEnvironmentC1ERKS_
	_ZN19QProcessEnvironmentC1Ev
	_ZN19QProcessEnvironmentC2ERKS_
	_ZN19QProcessEnvironmentC2Ev
	_ZN19QProcessEnvironmentD1Ev
	_ZN19QProcessEnvironmentD2Ev
	_ZN19QProcessEnvironmentaSERKS_
	_ZN19QSequentialIterable14const_iterator3endEv
	_ZN19QSequentialIterable14const_iterator5beginEv
	_ZN19QSequentialIterable14const_iteratorC1ERKN17QtMetaTypePrivate23QSequentialIterableImplEP10QAtomicInt
	_ZN19QSequentialIterable14const_iteratorC1ERKS0_
	_ZN19QSequentialIterable14const_iteratorC1ERKS_P10QAtomicInt
	_ZN19QSequentialIterable14const_iteratorC2ERKN17QtMetaTypePrivate23QSequentialIterableImplEP10QAtomicInt
	_ZN19QSequentialIterable14const_iteratorC2ERKS0_
	_ZN19QSequentialIterable14const_iteratorC2ERKS_P10QAtomicInt
	_ZN19QSequentialIterable14const_iteratorD1Ev
	_ZN19QSequentialIterable14const_iteratorD2Ev
	_ZN19QSequentialIterable14const_iteratoraSERKS0_
	_ZN19QSequentialIterable14const_iteratormIEi
	_ZN19QSequentialIterable14const_iteratormmEi
	_ZN19QSequentialIterable14const_iteratormmEv
	_ZN19QSequentialIterable14const_iteratorpLEi
	_ZN19QSequentialIterable14const_iteratorppEi
	_ZN19QSequentialIterable14const_iteratorppEv
	_ZN19QSequentialIterableC1EN17QtMetaTypePrivate23QSequentialIterableImplE
	_ZN19QSequentialIterableC2EN17QtMetaTypePrivate23QSequentialIterableImplE
	_ZN19QTextBoundaryFinder11setPositionEi
	_ZN19QTextBoundaryFinder14toNextBoundaryEv
	_ZN19QTextBoundaryFinder18toPreviousBoundaryEv
	_ZN19QTextBoundaryFinder5toEndEv
	_ZN19QTextBoundaryFinder7toStartEv
	_ZN19QTextBoundaryFinderC1ENS_12BoundaryTypeEPK5QChariPhi
	_ZN19QTextBoundaryFinderC1ENS_12BoundaryTypeERK7QString
	_ZN19QTextBoundaryFinderC1ERKS_
	_ZN19QTextBoundaryFinderC1Ev
	_ZN19QTextBoundaryFinderC2ENS_12BoundaryTypeEPK5QChariPhi
	_ZN19QTextBoundaryFinderC2ENS_12BoundaryTypeERK7QString
	_ZN19QTextBoundaryFinderC2ERKS_
	_ZN19QTextBoundaryFinderC2Ev
	_ZN19QTextBoundaryFinderD1Ev
	_ZN19QTextBoundaryFinderD2Ev
	_ZN19QTextBoundaryFinderaSERKS_
	_ZN19QXmlStreamAttributeC1ERK7QStringS2_
	_ZN19QXmlStreamAttributeC1ERK7QStringS2_S2_
	_ZN19QXmlStreamAttributeC1ERKS_
	_ZN19QXmlStreamAttributeC1Ev
	_ZN19QXmlStreamAttributeC2ERK7QStringS2_
	_ZN19QXmlStreamAttributeC2ERK7QStringS2_S2_
	_ZN19QXmlStreamAttributeC2ERKS_
	_ZN19QXmlStreamAttributeC2Ev
	_ZN19QXmlStreamAttributeD1Ev
	_ZN19QXmlStreamAttributeD2Ev
	_ZN19QXmlStreamAttributeaSERKS_
	_ZN19QXmlStreamStringRefC1ERK10QStringRef
	_ZN20QAssociativeIterable14const_iterator3endEv
	_ZN20QAssociativeIterable14const_iterator5beginEv
	_ZN20QAssociativeIterable14const_iteratorC1ERKN17QtMetaTypePrivate24QAssociativeIterableImplEP10QAtomicInt
	_ZN20QAssociativeIterable14const_iteratorC1ERKS0_
	_ZN20QAssociativeIterable14const_iteratorC1ERKS_P10QAtomicInt
	_ZN20QAssociativeIterable14const_iteratorC2ERKN17QtMetaTypePrivate24QAssociativeIterableImplEP10QAtomicInt
	_ZN20QAssociativeIterable14const_iteratorC2ERKS0_
	_ZN20QAssociativeIterable14const_iteratorC2ERKS_P10QAtomicInt
	_ZN20QAssociativeIterable14const_iteratorD1Ev
	_ZN20QAssociativeIterable14const_iteratorD2Ev
	_ZN20QAssociativeIterable14const_iteratoraSERKS0_
	_ZN20QAssociativeIterable14const_iteratormIEi
	_ZN20QAssociativeIterable14const_iteratormmEi
	_ZN20QAssociativeIterable14const_iteratormmEv
	_ZN20QAssociativeIterable14const_iteratorpLEi
	_ZN20QAssociativeIterable14const_iteratorppEi
	_ZN20QAssociativeIterable14const_iteratorppEv
	_ZN20QAssociativeIterableC1EN17QtMetaTypePrivate24QAssociativeIterableImplE
	_ZN20QAssociativeIterableC2EN17QtMetaTypePrivate24QAssociativeIterableImplE
	_ZN20QContiguousCacheData12allocateDataEii
	_ZN20QContiguousCacheData8freeDataEPS_
	_ZN20QDeferredDeleteEventC1Ev
	_ZN20QDeferredDeleteEventC2Ev
	_ZN20QDeferredDeleteEventD0Ev
	_ZN20QDeferredDeleteEventD1Ev
	_ZN20QDeferredDeleteEventD2Ev
	_ZN20QFileSelectorPrivate10addStaticsERK11QStringList
	_ZN20QFileSelectorPrivate15updateSelectorsEv
	_ZN20QFileSelectorPrivate17platformSelectorsEv
	_ZN20QFileSelectorPrivateC1Ev
	_ZN20QFileSelectorPrivateC2Ev
	_ZN20QFutureInterfaceBase11setRunnableEP9QRunnable
	_ZN20QFutureInterfaceBase12setThrottledEb
	_ZN20QFutureInterfaceBase12togglePausedEv
	_ZN20QFutureInterfaceBase13reportStartedEv
	_ZN20QFutureInterfaceBase13setFilterModeEb
	_ZN20QFutureInterfaceBase13waitForResultEi
	_ZN20QFutureInterfaceBase13waitForResumeEv
	_ZN20QFutureInterfaceBase14exceptionStoreEv
	_ZN20QFutureInterfaceBase14reportCanceledEv
	_ZN20QFutureInterfaceBase14reportFinishedEv
	_ZN20QFutureInterfaceBase15reportExceptionERK10QException
	_ZN20QFutureInterfaceBase15resultStoreBaseEv
	_ZN20QFutureInterfaceBase15waitForFinishedEv
	_ZN20QFutureInterfaceBase16setProgressRangeEii
	_ZN20QFutureInterfaceBase16setProgressValueEi
	_ZN20QFutureInterfaceBase17waitForNextResultEv
	_ZN20QFutureInterfaceBase18reportResultsReadyEii
	_ZN20QFutureInterfaceBase19expectedResultCountEv
	_ZN20QFutureInterfaceBase22setExpectedResultCountEi
	_ZN20QFutureInterfaceBase23setProgressValueAndTextEiRK7QString
	_ZN20QFutureInterfaceBase6cancelEv
	_ZN20QFutureInterfaceBase9setPausedEb
	_ZN20QFutureInterfaceBaseC1ENS_5StateE
	_ZN20QFutureInterfaceBaseC1ERKS_
	_ZN20QFutureInterfaceBaseC2ENS_5StateE
	_ZN20QFutureInterfaceBaseC2ERKS_
	_ZN20QFutureInterfaceBaseD0Ev
	_ZN20QFutureInterfaceBaseD1Ev
	_ZN20QFutureInterfaceBaseD2Ev
	_ZN20QFutureInterfaceBaseaSERKS_
	_ZN20QMetaPropertyBuilder11setConstantEb
	_ZN20QMetaPropertyBuilder11setEditableEb
	_ZN20QMetaPropertyBuilder11setReadableEb
	_ZN20QMetaPropertyBuilder11setRevisionEi
	_ZN20QMetaPropertyBuilder11setWritableEb
	_ZN20QMetaPropertyBuilder12setStdCppSetEb
	_ZN20QMetaPropertyBuilder13setDesignableEb
	_ZN20QMetaPropertyBuilder13setEnumOrFlagEb
	_ZN20QMetaPropertyBuilder13setResettableEb
	_ZN20QMetaPropertyBuilder13setScriptableEb
	_ZN20QMetaPropertyBuilder15setNotifySignalERK18QMetaMethodBuilder
	_ZN20QMetaPropertyBuilder18removeNotifySignalEv
	_ZN20QMetaPropertyBuilder7setUserEb
	_ZN20QMetaPropertyBuilder8setFinalEb
	_ZN20QMetaPropertyBuilder9setStoredEb
	_ZN20QStateMachinePrivate10_q_processEv
	_ZN20QStateMachinePrivate10exitStatesEP6QEventRK5QListIP14QAbstractStateERK5QHashIS4_S2_I19QPropertyAssignmentEE
	_ZN20QStateMachinePrivate10isParallelEPK14QAbstractState
	_ZN20QStateMachinePrivate11enterStatesEP6QEventRK5QListIP14QAbstractStateES7_RK4QSetIS4_ER5QHashIS4_S2_I19QPropertyAssignmentEERKS2_IP18QAbstractAnimationE
	_ZN20QStateMachinePrivate12clearHistoryEv
	_ZN20QStateMachinePrivate12toFinalStateEP14QAbstractState
	_ZN20QStateMachinePrivate13processEventsENS_19EventProcessingModeE
	_ZN20QStateMachinePrivate14findErrorStateEP14QAbstractState
	_ZN20QStateMachinePrivate14isDescendantOfEPK14QAbstractStateS2_
	_ZN20QStateMachinePrivate14toHistoryStateEP14QAbstractState
	_ZN20QStateMachinePrivate15properAncestorsEPK14QAbstractStatePK6QState
	_ZN20QStateMachinePrivate15toStandardStateEP14QAbstractState
	_ZN20QStateMachinePrivate15toStandardStateEPK14QAbstractState
	_ZN20QStateMachinePrivate16addStatesToEnterEP14QAbstractStateP6QStateR4QSetIS1_ES6_
	_ZN20QStateMachinePrivate17postExternalEventEP6QEvent
	_ZN20QStateMachinePrivate17postInternalEventEP6QEvent
	_ZN20QStateMachinePrivate17stateExitLessThanEP14QAbstractStateS1_
	_ZN20QStateMachinePrivate18registerRestorableEP14QAbstractStateP7QObjectRK10QByteArrayRK8QVariant
	_ZN20QStateMachinePrivate18registerTransitionEP19QAbstractTransition
	_ZN20QStateMachinePrivate18stateEntryLessThanEP14QAbstractStateS1_
	_ZN20QStateMachinePrivate19computeStatesToExitERK5QListIP19QAbstractTransitionE
	_ZN20QStateMachinePrivate19handleFilteredEventEP7QObjectP6QEvent
	_ZN20QStateMachinePrivate19initializeAnimationEP18QAbstractAnimationRK19QPropertyAssignment
	_ZN20QStateMachinePrivate19registerTransitionsEP14QAbstractState
	_ZN20QStateMachinePrivate20_q_animationFinishedEv
	_ZN20QStateMachinePrivate20computeStatesToEnterERK5QListIP19QAbstractTransitionER4QSetIP14QAbstractStateE
	_ZN20QStateMachinePrivate20dequeueExternalEventEv
	_ZN20QStateMachinePrivate20dequeueInternalEventEv
	_ZN20QStateMachinePrivate20initializeAnimationsEP14QAbstractStateRK5QListIP18QAbstractAnimationERKS2_IS1_ER5QHashIS1_S2_I19QPropertyAssignmentEE
	_ZN20QStateMachinePrivate20unregisterTransitionEP19QAbstractTransition
	_ZN20QStateMachinePrivate21unregisterRestorablesERK5QListIP14QAbstractStateEP7QObjectRK10QByteArray
	_ZN20QStateMachinePrivate22cancelAllDelayedEventsEv
	_ZN20QStateMachinePrivate22handleTransitionSignalEP7QObjectiPPv
	_ZN20QStateMachinePrivate23maybeRegisterTransitionEP19QAbstractTransition
	_ZN20QStateMachinePrivate23registerEventTransitionEP16QEventTransition
	_ZN20QStateMachinePrivate24_q_killDelayedEventTimerEii
	_ZN20QStateMachinePrivate24addAncestorStatesToEnterEP14QAbstractStateP6QStateR4QSetIS1_ES6_
	_ZN20QStateMachinePrivate24executeTransitionContentEP6QEventRK5QListIP19QAbstractTransitionE
	_ZN20QStateMachinePrivate24registerSignalTransitionEP17QSignalTransition
	_ZN20QStateMachinePrivate24unregisterAllTransitionsEv
	_ZN20QStateMachinePrivate25_q_startDelayedEventTimerEii
	_ZN20QStateMachinePrivate25isExternalEventQueueEmptyEv
	_ZN20QStateMachinePrivate25isInternalEventQueueEmptyEv
	_ZN20QStateMachinePrivate25terminateActiveAnimationsEP14QAbstractStateRK5QHashIS1_5QListI19QPropertyAssignmentEE
	_ZN20QStateMachinePrivate25unregisterEventTransitionEP16QEventTransition
	_ZN20QStateMachinePrivate26unregisterSignalTransitionEP17QSignalTransition
	_ZN20QStateMachinePrivate28maybeRegisterEventTransitionEP16QEventTransition
	_ZN20QStateMachinePrivate29maybeRegisterSignalTransitionEP17QSignalTransition
	_ZN20QStateMachinePrivate38registerMultiThreadedSignalTransitionsEv
	_ZN20QStateMachinePrivate3getEP13QStateMachine
	_ZN20QStateMachinePrivate7handlerE
	_ZN20QStateMachinePrivate7isFinalEPK14QAbstractState
	_ZN20QStateMachinePrivate8_q_startEv
	_ZN20QStateMachinePrivate8setErrorEN13QStateMachine5ErrorEP14QAbstractState
	_ZN20QStateMachinePrivate9goToStateEP14QAbstractState
	_ZN20QStateMachinePrivate9microstepEP6QEventRK5QListIP19QAbstractTransitionE
	_ZN20QStateMachinePrivateC1Ev
	_ZN20QStateMachinePrivateC2Ev
	_ZN20QStateMachinePrivateD0Ev
	_ZN20QStateMachinePrivateD1Ev
	_ZN20QStateMachinePrivateD2Ev
	_ZN20QXmlStreamAttributes6appendERK7QStringS2_
	_ZN20QXmlStreamAttributes6appendERK7QStringS2_S2_
	_ZN21QAbstractConcatenable14appendLatin1ToEPKciP5QChar
	_ZN21QAbstractConcatenable16convertFromAsciiEPKciRP5QChar
	_ZN21QEventDispatcherWin3210startingUpEv
	_ZN21QEventDispatcherWin3211closingDownEv
	_ZN21QEventDispatcherWin3211qt_metacallEN11QMetaObject4CallEiPPv
	_ZN21QEventDispatcherWin3211qt_metacastEPKc
	_ZN21QEventDispatcherWin3213processEventsE6QFlagsIN10QEventLoop17ProcessEventsFlagEE
	_ZN21QEventDispatcherWin3213registerTimerEiiN2Qt9TimerTypeEP7QObject
	_ZN21QEventDispatcherWin3213remainingTimeEi
	_ZN21QEventDispatcherWin3215unregisterTimerEi
	_ZN21QEventDispatcherWin3216hasPendingEventsEv
	_ZN21QEventDispatcherWin3216sendPostedEventsEv
	_ZN21QEventDispatcherWin3216staticMetaObjectE
	_ZN21QEventDispatcherWin3216unregisterTimersEP7QObject
	_ZN21QEventDispatcherWin3218createInternalHwndEv
	_ZN21QEventDispatcherWin3218qt_static_metacallEP7QObjectN11QMetaObject4CallEiPPv
	_ZN21QEventDispatcherWin3221registerEventNotifierEP17QWinEventNotifier
	_ZN21QEventDispatcherWin3222activateEventNotifiersEv
	_ZN21QEventDispatcherWin3222registerSocketNotifierEP15QSocketNotifier
	_ZN21QEventDispatcherWin3223unregisterEventNotifierEP17QWinEventNotifier
	_ZN21QEventDispatcherWin3224unregisterSocketNotifierEP15QSocketNotifier
	_ZN21QEventDispatcherWin325eventEP6QEvent
	_ZN21QEventDispatcherWin325flushEv
	_ZN21QEventDispatcherWin326wakeUpEv
	_ZN21QEventDispatcherWin329interruptEv
	_ZN21QEventDispatcherWin32C1EP7QObject
	_ZN21QEventDispatcherWin32C1ER28QEventDispatcherWin32PrivateP7QObject
	_ZN21QEventDispatcherWin32C2EP7QObject
	_ZN21QEventDispatcherWin32C2ER28QEventDispatcherWin32PrivateP7QObject
	_ZN21QEventDispatcherWin32D0Ev
	_ZN21QEventDispatcherWin32D1Ev
	_ZN21QEventDispatcherWin32D2Ev
	_ZN21QObjectCleanupHandler11qt_metacallEN11QMetaObject4CallEiPPv
	_ZN21QObjectCleanupHandler11qt_metacastEPKc
	_ZN21QObjectCleanupHandler15objectDestroyedEP7QObject
	_ZN21QObjectCleanupHandler16staticMetaObjectE
	_ZN21QObjectCleanupHandler18qt_static_metacallEP7QObjectN11QMetaObject4CallEiPPv
	_ZN21QObjectCleanupHandler3addEP7QObject
	_ZN21QObjectCleanupHandler5clearEv
	_ZN21QObjectCleanupHandler6removeEP7QObject
	_ZN21QObjectCleanupHandlerC1Ev
	_ZN21QObjectCleanupHandlerC2Ev
	_ZN21QObjectCleanupHandlerD0Ev
	_ZN21QObjectCleanupHandlerD1Ev
	_ZN21QObjectCleanupHandlerD2Ev
	_ZN21QPersistentModelIndexC1ERK11QModelIndex
	_ZN21QPersistentModelIndexC1ERKS_
	_ZN21QPersistentModelIndexC1Ev
	_ZN21QPersistentModelIndexC2ERK11QModelIndex
	_ZN21QPersistentModelIndexC2ERKS_
	_ZN21QPersistentModelIndexC2Ev
	_ZN21QPersistentModelIndexD1Ev
	_ZN21QPersistentModelIndexD2Ev
	_ZN21QPersistentModelIndexaSERK11QModelIndex
	_ZN21QPersistentModelIndexaSERKS_
	_ZN21QSortFilterProxyModel10insertRowsEiiRK11QModelIndex
	_ZN21QSortFilterProxyModel10invalidateEv
	_ZN21QSortFilterProxyModel10removeRowsEiiRK11QModelIndex
	_ZN21QSortFilterProxyModel11qt_metacallEN11QMetaObject4CallEiPPv
	_ZN21QSortFilterProxyModel11qt_metacastEPKc
	_ZN21QSortFilterProxyModel11setSortRoleEi
	_ZN21QSortFilterProxyModel12dropMimeDataEPK9QMimeDataN2Qt10DropActionEiiRK11QModelIndex
	_ZN21QSortFilterProxyModel13filterChangedEv
	_ZN21QSortFilterProxyModel13insertColumnsEiiRK11QModelIndex
	_ZN21QSortFilterProxyModel13removeColumnsEiiRK11QModelIndex
	_ZN21QSortFilterProxyModel13setFilterRoleEi
	_ZN21QSortFilterProxyModel13setHeaderDataEiN2Qt11OrientationERK8QVarianti
	_ZN21QSortFilterProxyModel14setSourceModelEP18QAbstractItemModel
	_ZN21QSortFilterProxyModel15setFilterRegExpERK7QRegExp
	_ZN21QSortFilterProxyModel15setFilterRegExpERK7QString
	_ZN21QSortFilterProxyModel16invalidateFilterEv
	_ZN21QSortFilterProxyModel16staticMetaObjectE
	_ZN21QSortFilterProxyModel17setFilterWildcardERK7QString
	_ZN21QSortFilterProxyModel18qt_static_metacallEP7QObjectN11QMetaObject4CallEiPPv
	_ZN21QSortFilterProxyModel18setFilterKeyColumnEi
	_ZN21QSortFilterProxyModel18setSortLocaleAwareEb
	_ZN21QSortFilterProxyModel20setDynamicSortFilterEb
	_ZN21QSortFilterProxyModel20setFilterFixedStringERK7QString
	_ZN21QSortFilterProxyModel22setSortCaseSensitivityEN2Qt15CaseSensitivityE
	_ZN21QSortFilterProxyModel24setFilterCaseSensitivityEN2Qt15CaseSensitivityE
	_ZN21QSortFilterProxyModel4sortEiN2Qt9SortOrderE
	_ZN21QSortFilterProxyModel5clearEv
	_ZN21QSortFilterProxyModel7setDataERK11QModelIndexRK8QVarianti
	_ZN21QSortFilterProxyModel9fetchMoreERK11QModelIndex
	_ZN21QSortFilterProxyModelC1EP7QObject
	_ZN21QSortFilterProxyModelC2EP7QObject
	_ZN21QSortFilterProxyModelD0Ev
	_ZN21QSortFilterProxyModelD1Ev
	_ZN21QSortFilterProxyModelD2Ev
	_ZN22QDynamicMetaObjectData15objectDestroyedEP7QObject
	_ZN22QDynamicMetaObjectDataD0Ev
	_ZN22QDynamicMetaObjectDataD1Ev
	_ZN23QAbstractAnimationTimer11qt_metacallEN11QMetaObject4CallEiPPv
	_ZN23QAbstractAnimationTimer11qt_metacastEPKc
	_ZN23QAbstractAnimationTimer16staticMetaObjectE
	_ZN23QAbstractAnimationTimer18qt_static_metacallEP7QObjectN11QMetaObject4CallEiPPv
	_ZN23QCoreApplicationPrivate10initLocaleEv
	_ZN23QCoreApplicationPrivate10mainThreadEv
	_ZN23QCoreApplicationPrivate10shouldQuitEv
	_ZN23QCoreApplicationPrivate13checkInstanceEPKc
	_ZN23QCoreApplicationPrivate13notify_helperEP7QObjectP6QEvent
	_ZN23QCoreApplicationPrivate13setuidAllowedE
	_ZN23QCoreApplicationPrivate13theMainThreadE
	_ZN23QCoreApplicationPrivate14is_app_closingE
	_ZN23QCoreApplicationPrivate14is_app_runningE
	_ZN23QCoreApplicationPrivate15eventDispatcherE
	_ZN23QCoreApplicationPrivate16sendPostedEventsEP7QObjectiP11QThreadData
	_ZN23QCoreApplicationPrivate17cleanupThreadDataEv
	_ZN23QCoreApplicationPrivate17removePostedEventEP6QEvent
	_ZN23QCoreApplicationPrivate19app_compile_versionE
	_ZN23QCoreApplicationPrivate19checkReceiverThreadEP7QObject
	_ZN23QCoreApplicationPrivate20eventDispatcherReadyEv
	_ZN23QCoreApplicationPrivate21createEventDispatcherEv
	_ZN23QCoreApplicationPrivate21isTranslatorInstalledEP11QTranslator
	_ZN23QCoreApplicationPrivate22removePostedTimerEventEP7QObjecti
	_ZN23QCoreApplicationPrivate22setApplicationFilePathERK7QString
	_ZN23QCoreApplicationPrivate25cachedApplicationFilePathE
	_ZN23QCoreApplicationPrivate27processCommandLineArgumentsEv
	_ZN23QCoreApplicationPrivate29sendThroughObjectEventFiltersEP7QObjectP6QEvent
	_ZN23QCoreApplicationPrivate34sendThroughApplicationEventFiltersEP7QObjectP6QEvent
	_ZN23QCoreApplicationPrivate35appendApplicationPathToLibraryPathsEv
	_ZN23QCoreApplicationPrivate3refEv
	_ZN23QCoreApplicationPrivate5derefEv
	_ZN23QCoreApplicationPrivate7attribsE
	_ZN23QCoreApplicationPrivate9maybeQuitEv
	_ZN23QCoreApplicationPrivateC1ERiPPcj
	_ZN23QCoreApplicationPrivateC2ERiPPcj
	_ZN23QCoreApplicationPrivateD0Ev
	_ZN23QCoreApplicationPrivateD1Ev
	_ZN23QCoreApplicationPrivateD2Ev
	_ZN23QEventTransitionPrivate10unregisterEv
	_ZN23QEventTransitionPrivate13maybeRegisterEv
	_ZN23QEventTransitionPrivate3getEP16QEventTransition
	_ZN23QEventTransitionPrivateC1Ev
	_ZN23QEventTransitionPrivateC2Ev
	_ZN23QParallelAnimationGroup11qt_metacallEN11QMetaObject4CallEiPPv
	_ZN23QParallelAnimationGroup11qt_metacastEPKc
	_ZN23QParallelAnimationGroup11updateStateEN18QAbstractAnimation5StateES1_
	_ZN23QParallelAnimationGroup15updateDirectionEN18QAbstractAnimation9DirectionE
	_ZN23QParallelAnimationGroup16staticMetaObjectE
	_ZN23QParallelAnimationGroup17updateCurrentTimeEi
	_ZN23QParallelAnimationGroup18qt_static_metacallEP7QObjectN11QMetaObject4CallEiPPv
	_ZN23QParallelAnimationGroup5eventEP6QEvent
	_ZN23QParallelAnimationGroupC1EP7QObject
	_ZN23QParallelAnimationGroupC1ER30QParallelAnimationGroupPrivateP7QObject
	_ZN23QParallelAnimationGroupC2EP7QObject
	_ZN23QParallelAnimationGroupC2ER30QParallelAnimationGroupPrivateP7QObject
	_ZN23QParallelAnimationGroupD0Ev
	_ZN23QParallelAnimationGroupD1Ev
	_ZN23QParallelAnimationGroupD2Ev
	_ZN23QRegularExpressionMatchC1ER30QRegularExpressionMatchPrivate
	_ZN23QRegularExpressionMatchC1ERKS_
	_ZN23QRegularExpressionMatchC1Ev
	_ZN23QRegularExpressionMatchC2ER30QRegularExpressionMatchPrivate
	_ZN23QRegularExpressionMatchC2ERKS_
	_ZN23QRegularExpressionMatchC2Ev
	_ZN23QRegularExpressionMatchD1Ev
	_ZN23QRegularExpressionMatchD2Ev
	_ZN23QRegularExpressionMatchaSERKS_
	_ZN24QAbstractDeclarativeData13parentChangedE
	_ZN24QAbstractDeclarativeData13signalEmittedE
	_ZN24QAbstractDeclarativeData14destroyed_qml1E
	_ZN24QAbstractDeclarativeData17isSignalConnectedE
	_ZN24QAbstractDeclarativeData9destroyedE
	_ZN24QAbstractDeclarativeData9receiversE
	_ZN24QAbstractEventDispatcher10startingUpEv
	_ZN24QAbstractEventDispatcher11closingDownEv
	_ZN24QAbstractEventDispatcher11qt_metacallEN11QMetaObject4CallEiPPv
	_ZN24QAbstractEventDispatcher11qt_metacastEPKc
	_ZN24QAbstractEventDispatcher12aboutToBlockEv
	_ZN24QAbstractEventDispatcher13registerTimerEiN2Qt9TimerTypeEP7QObject
	_ZN24QAbstractEventDispatcher16staticMetaObjectE
	_ZN24QAbstractEventDispatcher17filterNativeEventERK10QByteArrayPvPl
	_ZN24QAbstractEventDispatcher18qt_static_metacallEP7QObjectN11QMetaObject4CallEiPPv
	_ZN24QAbstractEventDispatcher23removeNativeEventFilterEP26QAbstractNativeEventFilter
	_ZN24QAbstractEventDispatcher24installNativeEventFilterEP26QAbstractNativeEventFilter
	_ZN24QAbstractEventDispatcher5awakeEv
	_ZN24QAbstractEventDispatcher8instanceEP7QThread
	_ZN24QAbstractEventDispatcherC1EP7QObject
	_ZN24QAbstractEventDispatcherC1ER31QAbstractEventDispatcherPrivateP7QObject
	_ZN24QAbstractEventDispatcherC2EP7QObject
	_ZN24QAbstractEventDispatcherC2ER31QAbstractEventDispatcherPrivateP7QObject
	_ZN24QAbstractEventDispatcherD0Ev
	_ZN24QAbstractEventDispatcherD1Ev
	_ZN24QAbstractEventDispatcherD2Ev
	_ZN24QNonContiguousByteDevice11qt_metacallEN11QMetaObject4CallEiPPv
	_ZN24QNonContiguousByteDevice11qt_metacastEPKc
	_ZN24QNonContiguousByteDevice12disableResetEv
	_ZN24QNonContiguousByteDevice12readProgressExx
	_ZN24QNonContiguousByteDevice16staticMetaObjectE
	_ZN24QNonContiguousByteDevice18qt_static_metacallEP7QObjectN11QMetaObject4CallEiPPv
	_ZN24QNonContiguousByteDevice9readyReadEv
	_ZN24QNonContiguousByteDeviceC1Ev
	_ZN24QNonContiguousByteDeviceC2Ev
	_ZN24QNonContiguousByteDeviceD0Ev
	_ZN24QNonContiguousByteDeviceD1Ev
	_ZN24QNonContiguousByteDeviceD2Ev
	_ZN24QVariantAnimationPrivate15getInterpolatorEi
	_ZN24QWinOverlappedIoNotifier10setEnabledEb
	_ZN24QWinOverlappedIoNotifier11qt_metacallEN11QMetaObject4CallEiPPv
	_ZN24QWinOverlappedIoNotifier11qt_metacastEPKc
	_ZN24QWinOverlappedIoNotifier15waitForNotifiedEiP11_OVERLAPPED
	_ZN24QWinOverlappedIoNotifier16staticMetaObjectE
	_ZN24QWinOverlappedIoNotifier18qt_static_metacallEP7QObjectN11QMetaObject4CallEiPPv
	_ZN24QWinOverlappedIoNotifier8notifiedEjjP11_OVERLAPPED
	_ZN24QWinOverlappedIoNotifier9_q_notifyEv
	_ZN24QWinOverlappedIoNotifier9setHandleEPv
	_ZN24QWinOverlappedIoNotifierC1EP7QObject
	_ZN24QWinOverlappedIoNotifierC2EP7QObject
	_ZN24QWinOverlappedIoNotifierD0Ev
	_ZN24QWinOverlappedIoNotifierD1Ev
	_ZN24QWinOverlappedIoNotifierD2Ev
	_ZN24QXmlStreamEntityResolver13resolveEntityERK7QStringS2_
	_ZN24QXmlStreamEntityResolver23resolveUndeclaredEntityERK7QString
	_ZN24QXmlStreamEntityResolverD0Ev
	_ZN24QXmlStreamEntityResolverD1Ev
	_ZN24QXmlStreamEntityResolverD2Ev
	_ZN25QAbstractItemModelPrivate10itemsMovedERK11QModelIndexiiS2_iN2Qt11OrientationE
	_ZN25QAbstractItemModelPrivate11rowsRemovedERK11QModelIndexii
	_ZN25QAbstractItemModelPrivate12rowsInsertedERK11QModelIndexii
	_ZN25QAbstractItemModelPrivate14columnsRemovedERK11QModelIndexii
	_ZN25QAbstractItemModelPrivate15columnsInsertedERK11QModelIndexii
	_ZN25QAbstractItemModelPrivate15variantLessThanERK8QVariantS2_
	_ZN25QAbstractItemModelPrivate16defaultRoleNamesEv
	_ZN25QAbstractItemModelPrivate16staticEmptyModelEv
	_ZN25QAbstractItemModelPrivate19itemsAboutToBeMovedERK11QModelIndexiiS2_iN2Qt11OrientationE
	_ZN25QAbstractItemModelPrivate20rowsAboutToBeRemovedERK11QModelIndexii
	_ZN25QAbstractItemModelPrivate21movePersistentIndexesE7QVectorIP25QPersistentModelIndexDataEiRK11QModelIndexN2Qt11OrientationE
	_ZN25QAbstractItemModelPrivate21rowsAboutToBeInsertedERK11QModelIndexii
	_ZN25QAbstractItemModelPrivate23columnsAboutToBeRemovedERK11QModelIndexii
	_ZN25QAbstractItemModelPrivate24columnsAboutToBeInsertedERK11QModelIndexii
	_ZN25QAbstractItemModelPrivate25removePersistentIndexDataEP25QPersistentModelIndexData
	_ZN25QAbstractItemModelPrivate27invalidatePersistentIndexesEv
	_ZN25QAbstractItemModelPrivate9allowMoveERK11QModelIndexiiS2_iN2Qt11OrientationE
	_ZN25QSequentialAnimationGroup11insertPauseEii
	_ZN25QSequentialAnimationGroup11qt_metacallEN11QMetaObject4CallEiPPv
	_ZN25QSequentialAnimationGroup11qt_metacastEPKc
	_ZN25QSequentialAnimationGroup11updateStateEN18QAbstractAnimation5StateES1_
	_ZN25QSequentialAnimationGroup15updateDirectionEN18QAbstractAnimation9DirectionE
	_ZN25QSequentialAnimationGroup16staticMetaObjectE
	_ZN25QSequentialAnimationGroup17updateCurrentTimeEi
	_ZN25QSequentialAnimationGroup18qt_static_metacallEP7QObjectN11QMetaObject4CallEiPPv
	_ZN25QSequentialAnimationGroup23currentAnimationChangedEP18QAbstractAnimation
	_ZN25QSequentialAnimationGroup5eventEP6QEvent
	_ZN25QSequentialAnimationGroup8addPauseEi
	_ZN25QSequentialAnimationGroupC1EP7QObject
	_ZN25QSequentialAnimationGroupC1ER32QSequentialAnimationGroupPrivateP7QObject
	_ZN25QSequentialAnimationGroupC2EP7QObject
	_ZN25QSequentialAnimationGroupC2ER32QSequentialAnimationGroupPrivateP7QObject
	_ZN25QSequentialAnimationGroupD0Ev
	_ZN25QSequentialAnimationGroupD1Ev
	_ZN25QSequentialAnimationGroupD2Ev
	_ZN26QAbstractDynamicMetaObject14createPropertyEPKcS1_
	_ZN26QAbstractDynamicMetaObject19toDynamicMetaObjectEP7QObject
	_ZN26QAbstractDynamicMetaObject8metaCallEN11QMetaObject4CallEiPPv
	_ZN26QAbstractDynamicMetaObject8metaCallEP7QObjectN11QMetaObject4CallEiPPv
	_ZN26QAbstractFileEngineHandlerC1Ev
	_ZN26QAbstractFileEngineHandlerC2Ev
	_ZN26QAbstractFileEngineHandlerD0Ev
	_ZN26QAbstractFileEngineHandlerD1Ev
	_ZN26QAbstractFileEngineHandlerD2Ev
	_ZN26QAbstractNativeEventFilterC1Ev
	_ZN26QAbstractNativeEventFilterC2Ev
	_ZN26QAbstractNativeEventFilterD0Ev
	_ZN26QAbstractNativeEventFilterD1Ev
	_ZN26QAbstractNativeEventFilterD2Ev
	_ZN26QAbstractProxyModelPrivate23_q_sourceModelDestroyedEv
	_ZN26QAbstractTransitionPrivate13callEventTestEP6QEvent
	_ZN26QAbstractTransitionPrivate13emitTriggeredEv
	_ZN26QAbstractTransitionPrivate16callOnTransitionEP6QEvent
	_ZN26QAbstractTransitionPrivate3getEP19QAbstractTransition
	_ZN26QAbstractTransitionPrivateC1Ev
	_ZN26QAbstractTransitionPrivateC2Ev
	_ZN26QMessageAuthenticationCode4hashERK10QByteArrayS2_N18QCryptographicHash9AlgorithmE
	_ZN26QMessageAuthenticationCode5resetEv
	_ZN26QMessageAuthenticationCode6setKeyERK10QByteArray
	_ZN26QMessageAuthenticationCode7addDataEP9QIODevice
	_ZN26QMessageAuthenticationCode7addDataEPKci
	_ZN26QMessageAuthenticationCode7addDataERK10QByteArray
	_ZN26QMessageAuthenticationCodeC1EN18QCryptographicHash9AlgorithmERK10QByteArray
	_ZN26QMessageAuthenticationCodeC2EN18QCryptographicHash9AlgorithmERK10QByteArray
	_ZN26QMessageAuthenticationCodeD1Ev
	_ZN26QMessageAuthenticationCodeD2Ev
	_ZN27QAbstractFileEngineIterator7setPathERK7QString
	_ZN27QAbstractFileEngineIteratorC1E6QFlagsIN4QDir6FilterEERK11QStringList
	_ZN27QAbstractFileEngineIteratorC2E6QFlagsIN4QDir6FilterEERK11QStringList
	_ZN27QAbstractFileEngineIteratorD0Ev
	_ZN27QAbstractFileEngineIteratorD1Ev
	_ZN27QAbstractFileEngineIteratorD2Ev
	_ZN27QDynamicPropertyChangeEventC1ERK10QByteArray
	_ZN27QDynamicPropertyChangeEventC2ERK10QByteArray
	_ZN27QDynamicPropertyChangeEventD0Ev
	_ZN27QDynamicPropertyChangeEventD1Ev
	_ZN27QDynamicPropertyChangeEventD2Ev
	_ZN27QXmlStreamEntityDeclarationC1ERKS_
	_ZN27QXmlStreamEntityDeclarationC1Ev
	_ZN27QXmlStreamEntityDeclarationC2ERKS_
	_ZN27QXmlStreamEntityDeclarationC2Ev
	_ZN27QXmlStreamEntityDeclarationD1Ev
	_ZN27QXmlStreamEntityDeclarationD2Ev
	_ZN27QXmlStreamEntityDeclarationaSERKS_
	_ZN28QEventDispatcherWin32Private13registerTimerEP12WinTimerInfo
	_ZN28QEventDispatcherWin32Private14sendTimerEventEi
	_ZN28QEventDispatcherWin32Private15unregisterTimerEP12WinTimerInfo
	_ZN28QEventDispatcherWin32Private16doWsaAsyncSelectEi
	_ZN28QEventDispatcherWin32Private21activateEventNotifierEP17QWinEventNotifier
	_ZN28QEventDispatcherWin32PrivateC1Ev
	_ZN28QEventDispatcherWin32PrivateC2Ev
	_ZN28QEventDispatcherWin32PrivateD0Ev
	_ZN28QEventDispatcherWin32PrivateD1Ev
	_ZN28QEventDispatcherWin32PrivateD2Ev
	_ZN29QXmlStreamNotationDeclarationC1ERKS_
	_ZN29QXmlStreamNotationDeclarationC1Ev
	_ZN29QXmlStreamNotationDeclarationC2ERKS_
	_ZN29QXmlStreamNotationDeclarationC2Ev
	_ZN29QXmlStreamNotationDeclarationD1Ev
	_ZN29QXmlStreamNotationDeclarationD2Ev
	_ZN29QXmlStreamNotationDeclarationaSERKS_
	_ZN30QXmlStreamNamespaceDeclarationC1ERK7QStringS2_
	_ZN30QXmlStreamNamespaceDeclarationC1ERKS_
	_ZN30QXmlStreamNamespaceDeclarationC1Ev
	_ZN30QXmlStreamNamespaceDeclarationC2ERK7QStringS2_
	_ZN30QXmlStreamNamespaceDeclarationC2ERKS_
	_ZN30QXmlStreamNamespaceDeclarationC2Ev
	_ZN30QXmlStreamNamespaceDeclarationD1Ev
	_ZN30QXmlStreamNamespaceDeclarationD2Ev
	_ZN30QXmlStreamNamespaceDeclarationaSERKS_
	_ZN31QAbstractEventDispatcherPrivate14releaseTimerIdEi
	_ZN31QAbstractEventDispatcherPrivate15allocateTimerIdEv
	_ZN31QNonContiguousByteDeviceFactory4wrapEP24QNonContiguousByteDevice
	_ZN31QNonContiguousByteDeviceFactory6createE14QSharedPointerI11QRingBufferE
	_ZN31QNonContiguousByteDeviceFactory6createEP10QByteArray
	_ZN31QNonContiguousByteDeviceFactory6createEP9QIODevice
	_ZN31QRegularExpressionMatchIterator4nextEv
	_ZN31QRegularExpressionMatchIteratorC1ER38QRegularExpressionMatchIteratorPrivate
	_ZN31QRegularExpressionMatchIteratorC1ERKS_
	_ZN31QRegularExpressionMatchIteratorC1Ev
	_ZN31QRegularExpressionMatchIteratorC2ER38QRegularExpressionMatchIteratorPrivate
	_ZN31QRegularExpressionMatchIteratorC2ERKS_
	_ZN31QRegularExpressionMatchIteratorC2Ev
	_ZN31QRegularExpressionMatchIteratorD1Ev
	_ZN31QRegularExpressionMatchIteratorD2Ev
	_ZN31QRegularExpressionMatchIteratoraSERKS_
	_ZN4QDir10setCurrentERK7QString
	_ZN4QDir10setSortingE6QFlagsINS_8SortFlagEE
	_ZN4QDir11currentPathEv
	_ZN4QDir11searchPathsERK7QString
	_ZN4QDir12makeAbsoluteEv
	_ZN4QDir13addSearchPathERK7QStringS2_
	_ZN4QDir14isRelativePathERK7QString
	_ZN4QDir14setNameFiltersERK11QStringList
	_ZN4QDir14setSearchPathsERK7QStringRK11QStringList
	_ZN4QDir17removeRecursivelyEv
	_ZN4QDir18toNativeSeparatorsERK7QString
	_ZN4QDir20fromNativeSeparatorsERK7QString
	_ZN4QDir21addResourceSearchPathERK7QString
	_ZN4QDir21nameFiltersFromStringERK7QString
	_ZN4QDir2cdERK7QString
	_ZN4QDir4cdUpEv
	_ZN4QDir5matchERK11QStringListRK7QString
	_ZN4QDir5matchERK7QStringS2_
	_ZN4QDir6d_funcEv
	_ZN4QDir6drivesEv
	_ZN4QDir6removeERK7QString
	_ZN4QDir6renameERK7QStringS2_
	_ZN4QDir7setPathERK7QString
	_ZN4QDir8homePathEv
	_ZN4QDir8rootPathEv
	_ZN4QDir8tempPathEv
	_ZN4QDir9cleanPathERK7QString
	_ZN4QDir9separatorEv
	_ZN4QDir9setFilterE6QFlagsINS_6FilterEE
	_ZN4QDirC1ER11QDirPrivate
	_ZN4QDirC1ERK7QString
	_ZN4QDirC1ERK7QStringS2_6QFlagsINS_8SortFlagEES3_INS_6FilterEE
	_ZN4QDirC1ERKS_
	_ZN4QDirC2ER11QDirPrivate
	_ZN4QDirC2ERK7QString
	_ZN4QDirC2ERK7QStringS2_6QFlagsINS_8SortFlagEES3_INS_6FilterEE
	_ZN4QDirC2ERKS_
	_ZN4QDirD1Ev
	_ZN4QDirD2Ev
	_ZN4QDiraSERK7QString
	_ZN4QDiraSERKS_
	_ZN4QUrl11fromEncodedERK10QByteArrayNS_11ParsingModeE
	_ZN4QUrl11setFragmentERK7QStringNS_11ParsingModeE
	_ZN4QUrl11setPasswordERK7QStringNS_11ParsingModeE
	_ZN4QUrl11setUserInfoERK7QStringNS_11ParsingModeE
	_ZN4QUrl11setUserNameERK7QStringNS_11ParsingModeE
	_ZN4QUrl12idnWhitelistEv
	_ZN4QUrl12setAuthorityERK7QStringNS_11ParsingModeE
	_ZN4QUrl12toStringListERK5QListIS_E12QUrlTwoFlagsINS_19UrlFormattingOptionENS_25ComponentFormattingOptionEE
	_ZN4QUrl13fromLocalFileERK7QString
	_ZN4QUrl13fromUserInputERK7QString
	_ZN4QUrl14fromStringListERK11QStringListNS_11ParsingModeE
	_ZN4QUrl15setIdnWhitelistERK11QStringList
	_ZN4QUrl17toPercentEncodingERK7QStringRK10QByteArrayS5_
	_ZN4QUrl19fromPercentEncodingERK10QByteArray
	_ZN4QUrl27fromEncodedComponent_helperERK10QByteArray
	_ZN4QUrl5clearEv
	_ZN4QUrl5toAceERK7QString
	_ZN4QUrl6detachEv
	_ZN4QUrl6setUrlERK7QStringNS_11ParsingModeE
	_ZN4QUrl7fromAceERK10QByteArray
	_ZN4QUrl7setHostERK7QStringNS_11ParsingModeE
	_ZN4QUrl7setPathERK7QStringNS_11ParsingModeE
	_ZN4QUrl7setPortEi
	_ZN4QUrl8setQueryERK7QStringNS_11ParsingModeE
	_ZN4QUrl8setQueryERK9QUrlQuery
	_ZN4QUrl9setSchemeERK7QString
	_ZN4QUrlC1ERK7QStringNS_11ParsingModeE
	_ZN4QUrlC1ERKS_
	_ZN4QUrlC1Ev
	_ZN4QUrlC2ERK7QStringNS_11ParsingModeE
	_ZN4QUrlC2ERKS_
	_ZN4QUrlC2Ev
	_ZN4QUrlD1Ev
	_ZN4QUrlD2Ev
	_ZN4QUrlaSERK7QString
	_ZN4QUrlaSERKS_
	_ZN5QChar10digitValueEj
	_ZN5QChar11hasMirroredEj
	_ZN5QChar11joiningTypeEj
	_ZN5QChar11toTitleCaseEj
	_ZN5QChar12mirroredCharEj
	_ZN5QChar12toCaseFoldedEj
	_ZN5QChar13decompositionEj
	_ZN5QChar14combiningClassEj
	_ZN5QChar14isSpace_helperEj
	_ZN5QChar14unicodeVersionEj
	_ZN5QChar15isLetter_helperEj
	_ZN5QChar15isNumber_helperEj
	_ZN5QChar16decompositionTagEj
	_ZN5QChar21currentUnicodeVersionEv
	_ZN5QChar23isLetterOrNumber_helperEj
	_ZN5QChar6isMarkEj
	_ZN5QChar6scriptEj
	_ZN5QChar7isPrintEj
	_ZN5QChar7isPunctEj
	_ZN5QChar7joiningEj
	_ZN5QChar7toLowerEj
	_ZN5QChar7toUpperEj
	_ZN5QChar8categoryEj
	_ZN5QChar8isLetterEj
	_ZN5QChar8isSymbolEj
	_ZN5QChar9directionEj
	_ZN5QDate10fromStringERK7QStringN2Qt10DateFormatE
	_ZN5QDate10fromStringERK7QStringS2_
	_ZN5QDate10isLeapYearEi
	_ZN5QDate11currentDateEv
	_ZN5QDate11longDayNameEiNS_13MonthNameTypeE
	_ZN5QDate12shortDayNameEiNS_13MonthNameTypeE
	_ZN5QDate13longMonthNameEiNS_13MonthNameTypeE
	_ZN5QDate14shortMonthNameEiNS_13MonthNameTypeE
	_ZN5QDate7getDateEPiS0_S0_
	_ZN5QDate7isValidEiii
	_ZN5QDate7setDateEiii
	_ZN5QDateC1Eiii
	_ZN5QDateC2Eiii
	_ZN5QFile11permissionsERK7QString
	_ZN5QFile11qt_metacallEN11QMetaObject4CallEiPPv
	_ZN5QFile11qt_metacastEPKc
	_ZN5QFile11setFileNameERK7QString
	_ZN5QFile14setPermissionsE6QFlagsIN11QFileDevice10PermissionEE
	_ZN5QFile14setPermissionsERK7QString6QFlagsIN11QFileDevice10PermissionEE
	_ZN5QFile16staticMetaObjectE
	_ZN5QFile18qt_static_metacallEP7QObjectN11QMetaObject4CallEiPPv
	_ZN5QFile4copyERK7QString
	_ZN5QFile4copyERK7QStringS2_
	_ZN5QFile4linkERK7QString
	_ZN5QFile4linkERK7QStringS2_
	_ZN5QFile4openE6QFlagsIN9QIODevice12OpenModeFlagEE
	_ZN5QFile4openEP6_iobuf6QFlagsIN9QIODevice12OpenModeFlagEES2_IN11QFileDevice14FileHandleFlagEE
	_ZN5QFile4openEi6QFlagsIN9QIODevice12OpenModeFlagEES0_IN11QFileDevice14FileHandleFlagEE
	_ZN5QFile6existsERK7QString
	_ZN5QFile6removeERK7QString
	_ZN5QFile6removeEv
	_ZN5QFile6renameERK7QString
	_ZN5QFile6renameERK7QStringS2_
	_ZN5QFile6resizeERK7QStringx
	_ZN5QFile6resizeEx
	_ZN5QFile8readLinkERK7QString
	_ZN5QFileC1EP7QObject
	_ZN5QFileC1ER12QFilePrivateP7QObject
	_ZN5QFileC1ERK7QString
	_ZN5QFileC1ERK7QStringP7QObject
	_ZN5QFileC1Ev
	_ZN5QFileC2EP7QObject
	_ZN5QFileC2ER12QFilePrivateP7QObject
	_ZN5QFileC2ERK7QString
	_ZN5QFileC2ERK7QStringP7QObject
	_ZN5QFileC2Ev
	_ZN5QFileD0Ev
	_ZN5QFileD1Ev
	_ZN5QFileD2Ev
	_ZN5QSize9transposeEv
	_ZN5QTime10fromStringERK7QStringN2Qt10DateFormatE
	_ZN5QTime10fromStringERK7QStringS2_
	_ZN5QTime11currentTimeEv
	_ZN5QTime5startEv
	_ZN5QTime6setHMSEiiii
	_ZN5QTime7isValidEiiii
	_ZN5QTime7restartEv
	_ZN5QTimeC1Eiiii
	_ZN5QTimeC2Eiiii
	_ZN5QUuid10createUuidEv
	_ZN5QUuid11fromRfc4122ERK10QByteArray
	_ZN5QUuid12createUuidV3ERKS_RK10QByteArray
	_ZN5QUuid12createUuidV5ERKS_RK10QByteArray
	_ZN5QUuidC1EPKc
	_ZN5QUuidC1ERK10QByteArray
	_ZN5QUuidC1ERK7QString
	_ZN5QUuidC2EPKc
	_ZN5QUuidC2ERK10QByteArray
	_ZN5QUuidC2ERK7QString
	_ZN6QDebugD1Ev
	_ZN6QDebuglsEPKc
	_ZN6QDebuglsEc
	_ZN6QEvent16staticMetaObjectE
	_ZN6QEvent17registerEventTypeEi
	_ZN6QEventC1ENS_4TypeE
	_ZN6QEventC1ERKS_
	_ZN6QEventC2ENS_4TypeE
	_ZN6QEventC2ERKS_
	_ZN6QEventD0Ev
	_ZN6QEventD1Ev
	_ZN6QEventD2Ev
	_ZN6QEventaSERKS_
	_ZN6QLineF8setAngleEd
	_ZN6QLineF9fromPolarEdd
	_ZN6QMutex4lockEv
	_ZN6QMutex6unlockEv
	_ZN6QMutex7tryLockEi
	_ZN6QMutexC1ENS_13RecursionModeE
	_ZN6QMutexC2ENS_13RecursionModeE
	_ZN6QMutexD1Ev
	_ZN6QMutexD2Ev
	_ZN6QSizeF9transposeEv
	_ZN6QState11qt_metacallEN11QMetaObject4CallEiPPv
	_ZN6QState11qt_metacastEPKc
	_ZN6QState12setChildModeENS_9ChildModeE
	_ZN6QState13addTransitionEP14QAbstractState
	_ZN6QState13addTransitionEP19QAbstractTransition
	_ZN6QState13addTransitionEPK7QObjectPKcP14QAbstractState
	_ZN6QState13setErrorStateEP14QAbstractState
	_ZN6QState14assignPropertyEP7QObjectPKcRK8QVariant
	_ZN6QState15setInitialStateEP14QAbstractState
	_ZN6QState16removeTransitionEP19QAbstractTransition
	_ZN6QState16staticMetaObjectE
	_ZN6QState18propertiesAssignedENS_14QPrivateSignalE
	_ZN6QState18qt_static_metacallEP7QObjectN11QMetaObject4CallEiPPv
	_ZN6QState5eventEP6QEvent
	_ZN6QState6onExitEP6QEvent
	_ZN6QState7onEntryEP6QEvent
	_ZN6QState8finishedENS_14QPrivateSignalE
	_ZN6QStateC1ENS_9ChildModeEPS_
	_ZN6QStateC1EPS_
	_ZN6QStateC1ER13QStatePrivatePS_
	_ZN6QStateC2ENS_9ChildModeEPS_
	_ZN6QStateC2EPS_
	_ZN6QStateC2ER13QStatePrivatePS_
	_ZN6QStateD0Ev
	_ZN6QStateD1Ev
	_ZN6QStateD2Ev
	_ZN6QTimer10singleShotEiN2Qt9TimerTypeEPK7QObjectPKc
	_ZN6QTimer10singleShotEiPK7QObjectPKc
	_ZN6QTimer10timerEventEP11QTimerEvent
	_ZN6QTimer11qt_metacallEN11QMetaObject4CallEiPPv
	_ZN6QTimer11qt_metacastEPKc
	_ZN6QTimer11setIntervalEi
	_ZN6QTimer16staticMetaObjectE
	_ZN6QTimer18qt_static_metacallEP7QObjectN11QMetaObject4CallEiPPv
	_ZN6QTimer4stopEv
	_ZN6QTimer5startEi
	_ZN6QTimer5startEv
	_ZN6QTimer7timeoutENS_14QPrivateSignalE
	_ZN6QTimerC1EP7QObject
	_ZN6QTimerC2EP7QObject
	_ZN6QTimerD0Ev
	_ZN6QTimerD1Ev
	_ZN6QTimerD2Ev
	_ZN7QBuffer11qt_metacallEN11QMetaObject4CallEiPPv
	_ZN7QBuffer11qt_metacastEPKc
	_ZN7QBuffer13connectNotifyERK11QMetaMethod
	_ZN7QBuffer16disconnectNotifyERK11QMetaMethod
	_ZN7QBuffer16staticMetaObjectE
	_ZN7QBuffer18qt_static_metacallEP7QObjectN11QMetaObject4CallEiPPv
	_ZN7QBuffer4openE6QFlagsIN9QIODevice12OpenModeFlagEE
	_ZN7QBuffer4seekEx
	_ZN7QBuffer5closeEv
	_ZN7QBuffer6bufferEv
	_ZN7QBuffer7setDataERK10QByteArray
	_ZN7QBuffer8readDataEPcx
	_ZN7QBuffer9setBufferEP10QByteArray
	_ZN7QBuffer9writeDataEPKcx
	_ZN7QBufferC1EP10QByteArrayP7QObject
	_ZN7QBufferC1EP7QObject
	_ZN7QBufferC2EP10QByteArrayP7QObject
	_ZN7QBufferC2EP7QObject
	_ZN7QBufferD0Ev
	_ZN7QBufferD1Ev
	_ZN7QBufferD2Ev
	_ZN7QLocale10setDefaultERKS_
	_ZN7QLocale14scriptToStringENS_6ScriptE
	_ZN7QLocale15countryToStringENS_7CountryE
	_ZN7QLocale15matchingLocalesENS_8LanguageENS_6ScriptENS_7CountryE
	_ZN7QLocale16languageToStringENS_8LanguageE
	_ZN7QLocale16setNumberOptionsE6QFlagsINS_12NumberOptionEE
	_ZN7QLocale16staticMetaObjectE
	_ZN7QLocale20countriesForLanguageENS_8LanguageE
	_ZN7QLocale6systemEv
	_ZN7QLocaleC1ENS_8LanguageENS_6ScriptENS_7CountryE
	_ZN7QLocaleC1ENS_8LanguageENS_7CountryE
	_ZN7QLocaleC1ER14QLocalePrivate
	_ZN7QLocaleC1ERK7QString
	_ZN7QLocaleC1ERKS_
	_ZN7QLocaleC1Ev
	_ZN7QLocaleC2ENS_8LanguageENS_6ScriptENS_7CountryE
	_ZN7QLocaleC2ENS_8LanguageENS_7CountryE
	_ZN7QLocaleC2ER14QLocalePrivate
	_ZN7QLocaleC2ERK7QString
	_ZN7QLocaleC2ERKS_
	_ZN7QLocaleC2Ev
	_ZN7QLocaleD1Ev
	_ZN7QLocaleD2Ev
	_ZN7QLocaleaSERKS_
	_ZN7QObject10childEventEP11QChildEvent
	_ZN7QObject10disconnectEPKS_PKcS1_S3_
	_ZN7QObject10disconnectEPKS_RK11QMetaMethodS1_S4_
	_ZN7QObject10disconnectERKN11QMetaObject10ConnectionE
	_ZN7QObject10startTimerEiN2Qt9TimerTypeE
	_ZN7QObject10timerEventEP11QTimerEvent
	_ZN7QObject11connectImplEPKS_PPvS1_S3_PN9QtPrivate15QSlotObjectBaseEN2Qt14ConnectionTypeEPKiPK11QMetaObject
	_ZN7QObject11customEventEP6QEvent
	_ZN7QObject11deleteLaterEv
	_ZN7QObject11eventFilterEPS_P6QEvent
	_ZN7QObject11qt_metacallEN11QMetaObject4CallEiPPv
	_ZN7QObject11qt_metacastEPKc
	_ZN7QObject11setPropertyEPKcRK8QVariant
	_ZN7QObject11setUserDataEjP15QObjectUserData
	_ZN7QObject12blockSignalsEb
	_ZN7QObject12moveToThreadEP7QThread
	_ZN7QObject13connectNotifyERK11QMetaMethod
	_ZN7QObject13setObjectNameERK7QString
	_ZN7QObject14disconnectImplEPKS_PPvS1_S3_PK11QMetaObject
	_ZN7QObject14dumpObjectInfoEv
	_ZN7QObject14dumpObjectTreeEv
	_ZN7QObject16disconnectNotifyERK11QMetaMethod
	_ZN7QObject16registerUserDataEv
	_ZN7QObject16staticMetaObjectE
	_ZN7QObject17objectNameChangedERK7QStringNS_14QPrivateSignalE
	_ZN7QObject17removeEventFilterEPS_
	_ZN7QObject18installEventFilterEPS_
	_ZN7QObject18qt_static_metacallEPS_N11QMetaObject4CallEiPPv
	_ZN7QObject18staticQtMetaObjectE
	_ZN7QObject5eventEP6QEvent
	_ZN7QObject7connectEPKS_PKcS1_S3_N2Qt14ConnectionTypeE
	_ZN7QObject7connectEPKS_RK11QMetaMethodS1_S4_N2Qt14ConnectionTypeE
	_ZN7QObject9destroyedEPS_
	_ZN7QObject9killTimerEi
	_ZN7QObject9setParentEPS_
	_ZN7QObjectC1EPS_
	_ZN7QObjectC1ER14QObjectPrivatePS_
	_ZN7QObjectC2EPS_
	_ZN7QObjectC2ER14QObjectPrivatePS_
	_ZN7QObjectD0Ev
	_ZN7QObjectD1Ev
	_ZN7QObjectD2Ev
	_ZN7QRegExp10setMinimalEb
	_ZN7QRegExp10setPatternERK7QString
	_ZN7QRegExp11errorStringEv
	_ZN7QRegExp13capturedTextsEv
	_ZN7QRegExp16setPatternSyntaxENS_13PatternSyntaxE
	_ZN7QRegExp18setCaseSensitivityEN2Qt15CaseSensitivityE
	_ZN7QRegExp3capEi
	_ZN7QRegExp3posEi
	_ZN7QRegExp6escapeERK7QString
	_ZN7QRegExpC1ERK7QStringN2Qt15CaseSensitivityENS_13PatternSyntaxE
	_ZN7QRegExpC1ERKS_
	_ZN7QRegExpC1Ev
	_ZN7QRegExpC2ERK7QStringN2Qt15CaseSensitivityENS_13PatternSyntaxE
	_ZN7QRegExpC2ERKS_
	_ZN7QRegExpC2Ev
	_ZN7QRegExpD1Ev
	_ZN7QRegExpD2Ev
	_ZN7QRegExpaSERKS_
	_ZN7QString10setRawDataEPK5QChari
	_ZN7QString10setUnicodeEPK5QChari
	_ZN7QString11fromRawDataEPK5QChari
	_ZN7QString11reallocDataEjb
	_ZN7QString13toUcs4_helperEPKtiPj
	_ZN7QString13toUtf8_helperERKS_
	_ZN7QString14compare_helperEPK5QChari13QLatin1StringN2Qt15CaseSensitivityE
	_ZN7QString14compare_helperEPK5QChariPKciN2Qt15CaseSensitivityE
	_ZN7QString14compare_helperEPK5QChariS2_iN2Qt15CaseSensitivityE
	_ZN7QString14replace_helperEPjiiPK5QChari
	_ZN7QString15fromUtf8_helperEPKci
	_ZN7QString15toLatin1_helperEPK5QChari
	_ZN7QString15toLatin1_helperERKS_
	_ZN7QString16fromAscii_helperEPKci
	_ZN7QString17fromLatin1_helperEPKci
	_ZN7QString17toIntegral_helperEPK5QChariPbi
	_ZN7QString17toIntegral_helperEPK5QCharjPbi
	_ZN7QString18toLocal8Bit_helperEPK5QChari
	_ZN7QString20fromLocal8Bit_helperEPKci
	_ZN7QString23toLatin1_helper_inplaceERS_
	_ZN7QString25localeAwareCompare_helperEPK5QChariS2_i
	_ZN7QString4chopEi
	_ZN7QString4fillE5QChari
	_ZN7QString4nullE
	_ZN7QString6appendE13QLatin1String
	_ZN7QString6appendE5QChar
	_ZN7QString6appendEPK5QChari
	_ZN7QString6appendERK10QStringRef
	_ZN7QString6appendERKS_
	_ZN7QString6detachEv
	_ZN7QString6expandEi
	_ZN7QString6insertEi13QLatin1String
	_ZN7QString6insertEi5QChar
	_ZN7QString6insertEiPK5QChari
	_ZN7QString6numberEdci
	_ZN7QString6numberEii
	_ZN7QString6numberEji
	_ZN7QString6numberEli
	_ZN7QString6numberEmi
	_ZN7QString6numberExi
	_ZN7QString6numberEyi
	_ZN7QString6removeE5QCharN2Qt15CaseSensitivityE
	_ZN7QString6removeERKS_N2Qt15CaseSensitivityE
	_ZN7QString6removeEii
	_ZN7QString6resizeEi
	_ZN7QString6setNumEdci
	_ZN7QString6setNumExi
	_ZN7QString6setNumEyi
	_ZN7QString7replaceE13QLatin1StringRKS_N2Qt15CaseSensitivityE
	_ZN7QString7replaceE13QLatin1StringS0_N2Qt15CaseSensitivityE
	_ZN7QString7replaceE5QChar13QLatin1StringN2Qt15CaseSensitivityE
	_ZN7QString7replaceE5QCharRKS_N2Qt15CaseSensitivityE
	_ZN7QString7replaceE5QCharS0_N2Qt15CaseSensitivityE
	_ZN7QString7replaceEPK5QChariS2_iN2Qt15CaseSensitivityE
	_ZN7QString7replaceERK18QRegularExpressionRKS_
	_ZN7QString7replaceERK7QRegExpRKS_
	_ZN7QString7replaceERKS_13QLatin1StringN2Qt15CaseSensitivityE
	_ZN7QString7replaceERKS_S1_N2Qt15CaseSensitivityE
	_ZN7QString7replaceEii5QChar
	_ZN7QString7replaceEiiPK5QChari
	_ZN7QString7replaceEiiRKS_
	_ZN7QString7sprintfEPKcz
	_ZN7QString8fromUcs4EPKji
	_ZN7QString8truncateEi
	_ZN7QString8vsprintfEPKcPc
	_ZN7QString9fromUtf16EPKti
	_ZN7QStringC1E5QChar
	_ZN7QStringC1EPK5QChari
	_ZN7QStringC1Ei5QChar
	_ZN7QStringC1EiN2Qt14InitializationE
	_ZN7QStringC2E5QChar
	_ZN7QStringC2EPK5QChari
	_ZN7QStringC2Ei5QChar
	_ZN7QStringC2EiN2Qt14InitializationE
	_ZN7QStringD1Ev
	_ZN7QStringD2Ev
	_ZN7QStringaSE5QChar
	_ZN7QStringaSERKS_
	_ZN7QStringpLE5QChar
	_ZN7QThread11qt_metacallEN11QMetaObject4CallEiPPv
	_ZN7QThread11qt_metacastEPKc
	_ZN7QThread11setPriorityENS_8PriorityE
	_ZN7QThread12setStackSizeEj
	_ZN7QThread13currentThreadEv
	_ZN7QThread15currentThreadIdEv
	_ZN7QThread16idealThreadCountEv
	_ZN7QThread16staticMetaObjectE
	_ZN7QThread18qt_static_metacallEP7QObjectN11QMetaObject4CallEiPPv
	_ZN7QThread18setEventDispatcherEP24QAbstractEventDispatcher
	_ZN7QThread18yieldCurrentThreadEv
	_ZN7QThread19requestInterruptionEv
	_ZN7QThread21setTerminationEnabledEb
	_ZN7QThread3runEv
	_ZN7QThread4execEv
	_ZN7QThread4exitEi
	_ZN7QThread4quitEv
	_ZN7QThread4waitEm
	_ZN7QThread5eventEP6QEvent
	_ZN7QThread5sleepEm
	_ZN7QThread5startENS_8PriorityE
	_ZN7QThread6msleepEm
	_ZN7QThread6usleepEm
	_ZN7QThread7startedENS_14QPrivateSignalE
	_ZN7QThread8finishedENS_14QPrivateSignalE
	_ZN7QThread9terminateEv
	_ZN7QThreadC1EP7QObject
	_ZN7QThreadC1ER14QThreadPrivateP7QObject
	_ZN7QThreadC2EP7QObject
	_ZN7QThreadC2ER14QThreadPrivateP7QObject
	_ZN7QThreadD0Ev
	_ZN7QThreadD1Ev
	_ZN7QThreadD2Ev
	_ZN8QLibrary11qt_metacallEN11QMetaObject4CallEiPPv
	_ZN8QLibrary11qt_metacastEPKc
	_ZN8QLibrary11setFileNameERK7QString
	_ZN8QLibrary12setLoadHintsE6QFlagsINS_8LoadHintEE
	_ZN8QLibrary16staticMetaObjectE
	_ZN8QLibrary18qt_static_metacallEP7QObjectN11QMetaObject4CallEiPPv
	_ZN8QLibrary21setFileNameAndVersionERK7QStringS2_
	_ZN8QLibrary21setFileNameAndVersionERK7QStringi
	_ZN8QLibrary4loadEv
	_ZN8QLibrary6unloadEv
	_ZN8QLibrary7resolveEPKc
	_ZN8QLibrary7resolveERK7QStringPKc
	_ZN8QLibrary7resolveERK7QStringS2_PKc
	_ZN8QLibrary7resolveERK7QStringiPKc
	_ZN8QLibrary9isLibraryERK7QString
	_ZN8QLibraryC1EP7QObject
	_ZN8QLibraryC1ERK7QStringP7QObject
	_ZN8QLibraryC1ERK7QStringS2_P7QObject
	_ZN8QLibraryC1ERK7QStringiP7QObject
	_ZN8QLibraryC2EP7QObject
	_ZN8QLibraryC2ERK7QStringP7QObject
	_ZN8QLibraryC2ERK7QStringS2_P7QObject
	_ZN8QLibraryC2ERK7QStringiP7QObject
	_ZN8QLibraryD0Ev
	_ZN8QLibraryD1Ev
	_ZN8QLibraryD2Ev
	_ZN8QProcess10nullDeviceEv
	_ZN8QProcess10setProgramERK7QString
	_ZN8QProcess11qt_metacallEN11QMetaObject4CallEiPPv
	_ZN8QProcess11qt_metacastEPKc
	_ZN8QProcess12setArgumentsERK11QStringList
	_ZN8QProcess12stateChangedENS_12ProcessStateENS_14QPrivateSignalE
	_ZN8QProcess13startDetachedERK7QString
	_ZN8QProcess13startDetachedERK7QStringRK11QStringList
	_ZN8QProcess13startDetachedERK7QStringRK11QStringListS2_Px
	_ZN8QProcess14setEnvironmentERK11QStringList
	_ZN8QProcess14setReadChannelENS_14ProcessChannelE
	_ZN8QProcess14waitForStartedEi
	_ZN8QProcess15setProcessStateENS_12ProcessStateE
	_ZN8QProcess15waitForFinishedEi
	_ZN8QProcess16closeReadChannelENS_14ProcessChannelE
	_ZN8QProcess16staticMetaObjectE
	_ZN8QProcess16waitForReadyReadEi
	_ZN8QProcess17closeWriteChannelEv
	_ZN8QProcess17setupChildProcessEv
	_ZN8QProcess17systemEnvironmentEv
	_ZN8QProcess18qt_static_metacallEP7QObjectN11QMetaObject4CallEiPPv
	_ZN8QProcess18setNativeArgumentsERK7QString
	_ZN8QProcess18setReadChannelModeENS_18ProcessChannelModeE
	_ZN8QProcess19setInputChannelModeENS_16InputChannelModeE
	_ZN8QProcess19setWorkingDirectoryERK7QString
	_ZN8QProcess19waitForBytesWrittenEi
	_ZN8QProcess20readAllStandardErrorEv
	_ZN8QProcess20setStandardErrorFileERK7QString6QFlagsIN9QIODevice12OpenModeFlagEE
	_ZN8QProcess20setStandardInputFileERK7QString
	_ZN8QProcess21readAllStandardOutputEv
	_ZN8QProcess21setProcessChannelModeENS_18ProcessChannelModeE
	_ZN8QProcess21setProcessEnvironmentERK19QProcessEnvironment
	_ZN8QProcess21setStandardOutputFileERK7QString6QFlagsIN9QIODevice12OpenModeFlagEE
	_ZN8QProcess22readyReadStandardErrorENS_14QPrivateSignalE
	_ZN8QProcess23readyReadStandardOutputENS_14QPrivateSignalE
	_ZN8QProcess24setStandardOutputProcessEPS_
	_ZN8QProcess4killEv
	_ZN8QProcess4openE6QFlagsIN9QIODevice12OpenModeFlagEE
	_ZN8QProcess5closeEv
	_ZN8QProcess5errorENS_12ProcessErrorE
	_ZN8QProcess5startE6QFlagsIN9QIODevice12OpenModeFlagEE
	_ZN8QProcess5startERK7QString6QFlagsIN9QIODevice12OpenModeFlagEE
	_ZN8QProcess5startERK7QStringRK11QStringList6QFlagsIN9QIODevice12OpenModeFlagEE
	_ZN8QProcess7executeERK7QString
	_ZN8QProcess7executeERK7QStringRK11QStringList
	_ZN8QProcess7startedENS_14QPrivateSignalE
	_ZN8QProcess8finishedEi
	_ZN8QProcess8finishedEiNS_10ExitStatusE
	_ZN8QProcess8readDataEPcx
	_ZN8QProcess9terminateEv
	_ZN8QProcess9writeDataEPKcx
	_ZN8QProcessC1EP7QObject
	_ZN8QProcessC2EP7QObject
	_ZN8QProcessD0Ev
	_ZN8QProcessD1Ev
	_ZN8QProcessD2Ev
	_ZN8QSysInfo14WindowsVersionE
	_ZN8QSysInfo14windowsVersionEv
	_ZN8QVariant10nameToTypeEPKc
	_ZN8QVariant10typeToNameEi
	_ZN8QVariant4dataEv
	_ZN8QVariant4loadER11QDataStream
	_ZN8QVariant5clearEv
	_ZN8QVariant6createEiPKv
	_ZN8QVariant6detachEv
	_ZN8QVariant7convertEi
	_ZN8QVariantC1E13QLatin1String
	_ZN8QVariantC1E5QChar
	_ZN8QVariantC1ENS_4TypeE
	_ZN8QVariantC1EPKc
	_ZN8QVariantC1ER11QDataStream
	_ZN8QVariantC1ERK10QByteArray
	_ZN8QVariantC1ERK10QJsonArray
	_ZN8QVariantC1ERK10QJsonValue
	_ZN8QVariantC1ERK11QJsonObject
	_ZN8QVariantC1ERK11QModelIndex
	_ZN8QVariantC1ERK11QStringList
	_ZN8QVariantC1ERK12QEasingCurve
	_ZN8QVariantC1ERK13QJsonDocument
	_ZN8QVariantC1ERK18QRegularExpression
	_ZN8QVariantC1ERK4QMapI7QStringS_E
	_ZN8QVariantC1ERK4QUrl
	_ZN8QVariantC1ERK5QDate
	_ZN8QVariantC1ERK5QHashI7QStringS_E
	_ZN8QVariantC1ERK5QLine
	_ZN8QVariantC1ERK5QListIS_E
	_ZN8QVariantC1ERK5QRect
	_ZN8QVariantC1ERK5QSize
	_ZN8QVariantC1ERK5QTime
	_ZN8QVariantC1ERK5QUuid
	_ZN8QVariantC1ERK6QLineF
	_ZN8QVariantC1ERK6QPoint
	_ZN8QVariantC1ERK6QRectF
	_ZN8QVariantC1ERK6QSizeF
	_ZN8QVariantC1ERK7QLocale
	_ZN8QVariantC1ERK7QPointF
	_ZN8QVariantC1ERK7QRegExp
	_ZN8QVariantC1ERK7QString
	_ZN8QVariantC1ERK9QBitArray
	_ZN8QVariantC1ERK9QDateTime
	_ZN8QVariantC1ERKS_
	_ZN8QVariantC1Eb
	_ZN8QVariantC1Ed
	_ZN8QVariantC1Ef
	_ZN8QVariantC1Ei
	_ZN8QVariantC1EiPKv
	_ZN8QVariantC1EiPKvj
	_ZN8QVariantC1Ej
	_ZN8QVariantC1Ex
	_ZN8QVariantC1Ey
	_ZN8QVariantC2E13QLatin1String
	_ZN8QVariantC2E5QChar
	_ZN8QVariantC2ENS_4TypeE
	_ZN8QVariantC2EPKc
	_ZN8QVariantC2ER11QDataStream
	_ZN8QVariantC2ERK10QByteArray
	_ZN8QVariantC2ERK10QJsonArray
	_ZN8QVariantC2ERK10QJsonValue
	_ZN8QVariantC2ERK11QJsonObject
	_ZN8QVariantC2ERK11QModelIndex
	_ZN8QVariantC2ERK11QStringList
	_ZN8QVariantC2ERK12QEasingCurve
	_ZN8QVariantC2ERK13QJsonDocument
	_ZN8QVariantC2ERK18QRegularExpression
	_ZN8QVariantC2ERK4QMapI7QStringS_E
	_ZN8QVariantC2ERK4QUrl
	_ZN8QVariantC2ERK5QDate
	_ZN8QVariantC2ERK5QHashI7QStringS_E
	_ZN8QVariantC2ERK5QLine
	_ZN8QVariantC2ERK5QListIS_E
	_ZN8QVariantC2ERK5QRect
	_ZN8QVariantC2ERK5QSize
	_ZN8QVariantC2ERK5QTime
	_ZN8QVariantC2ERK5QUuid
	_ZN8QVariantC2ERK6QLineF
	_ZN8QVariantC2ERK6QPoint
	_ZN8QVariantC2ERK6QRectF
	_ZN8QVariantC2ERK6QSizeF
	_ZN8QVariantC2ERK7QLocale
	_ZN8QVariantC2ERK7QPointF
	_ZN8QVariantC2ERK7QRegExp
	_ZN8QVariantC2ERK7QString
	_ZN8QVariantC2ERK9QBitArray
	_ZN8QVariantC2ERK9QDateTime
	_ZN8QVariantC2ERKS_
	_ZN8QVariantC2Eb
	_ZN8QVariantC2Ed
	_ZN8QVariantC2Ef
	_ZN8QVariantC2Ei
	_ZN8QVariantC2EiPKv
	_ZN8QVariantC2EiPKvj
	_ZN8QVariantC2Ej
	_ZN8QVariantC2Ex
	_ZN8QVariantC2Ey
	_ZN8QVariantD1Ev
	_ZN8QVariantD2Ev
	_ZN8QVariantaSERKS_
	_ZN9QBitArray4fillEbii
	_ZN9QBitArray6resizeEi
	_ZN9QBitArray8clearBitEi
	_ZN9QBitArrayC1Eib
	_ZN9QBitArrayC2Eib
	_ZN9QBitArrayaNERKS_
	_ZN9QBitArrayeOERKS_
	_ZN9QBitArrayoRERKS_
	_ZN9QCollator14setNumericModeEb
	_ZN9QCollator18setCaseSensitivityEN2Qt15CaseSensitivityE
	_ZN9QCollator20setIgnorePunctuationEb
	_ZN9QCollator6detachEv
	_ZN9QCollator9setLocaleERK7QLocale
	_ZN9QCollatorC1ERK7QLocale
	_ZN9QCollatorC1ERKS_
	_ZN9QCollatorC2ERK7QLocale
	_ZN9QCollatorC2ERKS_
	_ZN9QCollatorD1Ev
	_ZN9QCollatorD2Ev
	_ZN9QCollatoraSERKS_
	_ZN9QDateTime10fromStringERK7QStringN2Qt10DateFormatE
	_ZN9QDateTime10fromStringERK7QStringS2_
	_ZN9QDateTime10fromTime_tEj
	_ZN9QDateTime10fromTime_tEjN2Qt8TimeSpecEi
	_ZN9QDateTime10fromTime_tEjRK9QTimeZone
	_ZN9QDateTime11setTimeSpecEN2Qt8TimeSpecE
	_ZN9QDateTime11setTimeZoneERK9QTimeZone
	_ZN9QDateTime12setUtcOffsetEi
	_ZN9QDateTime15currentDateTimeEv
	_ZN9QDateTime16setOffsetFromUtcEi
	_ZN9QDateTime18currentDateTimeUtcEv
	_ZN9QDateTime18setMSecsSinceEpochEx
	_ZN9QDateTime19fromMSecsSinceEpochEx
	_ZN9QDateTime19fromMSecsSinceEpochExN2Qt8TimeSpecEi
	_ZN9QDateTime19fromMSecsSinceEpochExRK9QTimeZone
	_ZN9QDateTime22currentMSecsSinceEpochEv
	_ZN9QDateTime6detachEv
	_ZN9QDateTime7setDateERK5QDate
	_ZN9QDateTime7setTimeERK5QTime
	_ZN9QDateTime9setTime_tEj
	_ZN9QDateTimeC1ERK5QDate
	_ZN9QDateTimeC1ERK5QDateRK5QTimeN2Qt8TimeSpecE
	_ZN9QDateTimeC1ERK5QDateRK5QTimeN2Qt8TimeSpecEi
	_ZN9QDateTimeC1ERK5QDateRK5QTimeRK9QTimeZone
	_ZN9QDateTimeC1ERKS_
	_ZN9QDateTimeC1Ev
	_ZN9QDateTimeC2ERK5QDate
	_ZN9QDateTimeC2ERK5QDateRK5QTimeN2Qt8TimeSpecE
	_ZN9QDateTimeC2ERK5QDateRK5QTimeN2Qt8TimeSpecEi
	_ZN9QDateTimeC2ERK5QDateRK5QTimeRK9QTimeZone
	_ZN9QDateTimeC2ERKS_
	_ZN9QDateTimeC2Ev
	_ZN9QDateTimeD1Ev
	_ZN9QDateTimeD2Ev
	_ZN9QDateTimeaSERKS_
	_ZN9QFileInfo10setCachingEb
	_ZN9QFileInfo12makeAbsoluteEv
	_ZN9QFileInfo6d_funcEv
	_ZN9QFileInfo6existsERK7QString
	_ZN9QFileInfo7refreshEv
	_ZN9QFileInfo7setFileERK4QDirRK7QString
	_ZN9QFileInfo7setFileERK5QFile
	_ZN9QFileInfo7setFileERK7QString
	_ZN9QFileInfoC1EP16QFileInfoPrivate
	_ZN9QFileInfoC1ERK4QDirRK7QString
	_ZN9QFileInfoC1ERK5QFile
	_ZN9QFileInfoC1ERK7QString
	_ZN9QFileInfoC1ERKS_
	_ZN9QFileInfoC1Ev
	_ZN9QFileInfoC2EP16QFileInfoPrivate
	_ZN9QFileInfoC2ERK4QDirRK7QString
	_ZN9QFileInfoC2ERK5QFile
	_ZN9QFileInfoC2ERK7QString
	_ZN9QFileInfoC2ERKS_
	_ZN9QFileInfoC2Ev
	_ZN9QFileInfoD1Ev
	_ZN9QFileInfoD2Ev
	_ZN9QFileInfoaSERKS_
	_ZN9QHashData11free_helperEPFvPNS_4NodeEE
	_ZN9QHashData11shared_nullE
	_ZN9QHashData12allocateNodeEi
	_ZN9QHashData12previousNodeEPNS_4NodeE
	_ZN9QHashData13detach_helperEPFvPNS_4NodeEPvEPFvS1_Eii
	_ZN9QHashData6rehashEi
	_ZN9QHashData8freeNodeEPv
	_ZN9QHashData8nextNodeEPNS_4NodeE
	_ZN9QIODevice11qt_metacallEN11QMetaObject4CallEiPPv
	_ZN9QIODevice11qt_metacastEPKc
	_ZN9QIODevice11setOpenModeE6QFlagsINS_12OpenModeFlagEE
	_ZN9QIODevice12aboutToCloseEv
	_ZN9QIODevice12bytesWrittenEx
	_ZN9QIODevice12readLineDataEPcx
	_ZN9QIODevice14setErrorStringERK7QString
	_ZN9QIODevice16staticMetaObjectE
	_ZN9QIODevice16waitForReadyReadEi
	_ZN9QIODevice18qt_static_metacallEP7QObjectN11QMetaObject4CallEiPPv
	_ZN9QIODevice18setTextModeEnabledEb
	_ZN9QIODevice19readChannelFinishedEv
	_ZN9QIODevice19waitForBytesWrittenEi
	_ZN9QIODevice4openE6QFlagsINS_12OpenModeFlagEE
	_ZN9QIODevice4peekEPcx
	_ZN9QIODevice4peekEx
	_ZN9QIODevice4readEPcx
	_ZN9QIODevice4readEx
	_ZN9QIODevice4seekEx
	_ZN9QIODevice5closeEv
	_ZN9QIODevice5resetEv
	_ZN9QIODevice5writeEPKc
	_ZN9QIODevice5writeEPKcx
	_ZN9QIODevice7getCharEPc
	_ZN9QIODevice7putCharEc
	_ZN9QIODevice7readAllEv
	_ZN9QIODevice8readLineEPcx
	_ZN9QIODevice8readLineEx
	_ZN9QIODevice9readyReadEv
	_ZN9QIODevice9ungetCharEc
	_ZN9QIODeviceC1EP7QObject
	_ZN9QIODeviceC1ER16QIODevicePrivateP7QObject
	_ZN9QIODeviceC1Ev
	_ZN9QIODeviceC2EP7QObject
	_ZN9QIODeviceC2ER16QIODevicePrivateP7QObject
	_ZN9QIODeviceC2Ev
	_ZN9QIODeviceD0Ev
	_ZN9QIODeviceD1Ev
	_ZN9QIODeviceD2Ev
	_ZN9QInternal16registerCallbackENS_8CallbackEPFbPPvE
	_ZN9QInternal17activateCallbacksENS_8CallbackEPPv
	_ZN9QInternal18unregisterCallbackENS_8CallbackEPFbPPvE
	_ZN9QListData11detach_growEPii
	_ZN9QListData11shared_nullE
	_ZN9QListData4moveEii
	_ZN9QListData5eraseEPPv
	_ZN9QListData6appendERKS_
	_ZN9QListData6appendEi
	_ZN9QListData6appendEv
	_ZN9QListData6detachEi
	_ZN9QListData6insertEi
	_ZN9QListData6removeEi
	_ZN9QListData6removeEii
	_ZN9QListData7disposeEPNS_4DataE
	_ZN9QListData7prependEv
	_ZN9QListData7reallocEi
	_ZN9QLockFile16setStaleLockTimeEi
	_ZN9QLockFile19removeStaleLockFileEv
	_ZN9QLockFile4lockEv
	_ZN9QLockFile6unlockEv
	_ZN9QLockFile7tryLockEi
	_ZN9QLockFileC1ERK7QString
	_ZN9QLockFileC2ERK7QString
	_ZN9QLockFileD1Ev
	_ZN9QLockFileD2Ev
	_ZN9QMetaType11debugStreamER6QDebugPKvi
	_ZN9QMetaType12isRegisteredEi
	_ZN9QMetaType12registerTypeEPKcPFvPvEPFS2_PKvE
	_ZN9QMetaType12registerTypeEPKcPFvPvEPFS2_PKvES4_PFS2_S2_S6_Ei6QFlagsINS_8TypeFlagEEPK11QMetaObject
	_ZN9QMetaType15registerTypedefEPKci
	_ZN9QMetaType17metaObjectForTypeEi
	_ZN9QMetaType22registerNormalizedTypeERK10QByteArrayPFvPvEPFS3_PKvES5_PFS3_S3_S7_Ei6QFlagsINS_8TypeFlagEEPK11QMetaObject
	_ZN9QMetaType23registerStreamOperatorsEPKcPFvR11QDataStreamPKvEPFvS3_PvE
	_ZN9QMetaType23registerStreamOperatorsEiPFvR11QDataStreamPKvEPFvS1_PvE
	_ZN9QMetaType24hasRegisteredComparatorsEi
	_ZN9QMetaType25registerConverterFunctionEPKN9QtPrivate25AbstractConverterFunctionEii
	_ZN9QMetaType25registerNormalizedTypedefERK10QByteArrayi
	_ZN9QMetaType26registerComparatorFunctionEPKN9QtPrivate26AbstractComparatorFunctionEi
	_ZN9QMetaType27unregisterConverterFunctionEii
	_ZN9QMetaType30hasRegisteredConverterFunctionEii
	_ZN9QMetaType32hasRegisteredDebugStreamOperatorEi
	_ZN9QMetaType35registerDebugStreamOperatorFunctionEPKN9QtPrivate27AbstractDebugStreamFunctionEi
	_ZN9QMetaType4ctorEPK18QMetaTypeInterface
	_ZN9QMetaType4dtorEv
	_ZN9QMetaType4loadER11QDataStreamiPv
	_ZN9QMetaType4saveER11QDataStreamiPKv
	_ZN9QMetaType4typeEPKc
	_ZN9QMetaType6createEiPKv
	_ZN9QMetaType6sizeOfEi
	_ZN9QMetaType7compareEPKvS1_iPi
	_ZN9QMetaType7convertEPKviPvi
	_ZN9QMetaType7destroyEiPv
	_ZN9QMetaType8destructEiPv
	_ZN9QMetaType8typeInfoEi
	_ZN9QMetaType8typeNameEi
	_ZN9QMetaType9constructEiPvPKv
	_ZN9QMetaType9typeFlagsEi
	_ZN9QMetaTypeC1ERKS_
	_ZN9QMetaTypeC1Ei
	_ZN9QMetaTypeC2ERKS_
	_ZN9QMetaTypeC2Ei
	_ZN9QMetaTypeaSERKS_
	_ZN9QMimeData11qt_metacallEN11QMetaObject4CallEiPPv
	_ZN9QMimeData11qt_metacastEPKc
	_ZN9QMimeData12removeFormatERK7QString
	_ZN9QMimeData12setColorDataERK8QVariant
	_ZN9QMimeData12setImageDataERK8QVariant
	_ZN9QMimeData16staticMetaObjectE
	_ZN9QMimeData18qt_static_metacallEP7QObjectN11QMetaObject4CallEiPPv
	_ZN9QMimeData5clearEv
	_ZN9QMimeData7setDataERK7QStringRK10QByteArray
	_ZN9QMimeData7setHtmlERK7QString
	_ZN9QMimeData7setTextERK7QString
	_ZN9QMimeData7setUrlsERK5QListI4QUrlE
	_ZN9QMimeDataC1Ev
	_ZN9QMimeDataC2Ev
	_ZN9QMimeDataD0Ev
	_ZN9QMimeDataD1Ev
	_ZN9QMimeDataD2Ev
	_ZN9QMimeTypeC1ERK16QMimeTypePrivate
	_ZN9QMimeTypeC1ERKS_
	_ZN9QMimeTypeC1Ev
	_ZN9QMimeTypeC2ERK16QMimeTypePrivate
	_ZN9QMimeTypeC2ERKS_
	_ZN9QMimeTypeC2Ev
	_ZN9QMimeTypeD1Ev
	_ZN9QMimeTypeD2Ev
	_ZN9QMimeTypeaSERKS_
	_ZN9QResource11searchPathsEv
	_ZN9QResource11setFileNameERK7QString
	_ZN9QResource13addSearchPathERK7QString
	_ZN9QResource16registerResourceEPKhRK7QString
	_ZN9QResource16registerResourceERK7QStringS2_
	_ZN9QResource18unregisterResourceEPKhRK7QString
	_ZN9QResource18unregisterResourceERK7QStringS2_
	_ZN9QResource9setLocaleERK7QLocale
	_ZN9QResourceC1ERK7QStringRK7QLocale
	_ZN9QResourceC2ERK7QStringRK7QLocale
	_ZN9QResourceD1Ev
	_ZN9QResourceD2Ev
	_ZN9QSaveFile11qt_metacallEN11QMetaObject4CallEiPPv
	_ZN9QSaveFile11qt_metacastEPKc
	_ZN9QSaveFile11setFileNameERK7QString
	_ZN9QSaveFile13cancelWritingEv
	_ZN9QSaveFile16staticMetaObjectE
	_ZN9QSaveFile18qt_static_metacallEP7QObjectN11QMetaObject4CallEiPPv
	_ZN9QSaveFile22setDirectWriteFallbackEb
	_ZN9QSaveFile4openE6QFlagsIN9QIODevice12OpenModeFlagEE
	_ZN9QSaveFile5closeEv
	_ZN9QSaveFile6commitEv
	_ZN9QSaveFile9writeDataEPKcx
	_ZN9QSaveFileC1EP7QObject
	_ZN9QSaveFileC1ERK7QString
	_ZN9QSaveFileC1ERK7QStringP7QObject
	_ZN9QSaveFileC2EP7QObject
	_ZN9QSaveFileC2ERK7QString
	_ZN9QSaveFileC2ERK7QStringP7QObject
	_ZN9QSaveFileD0Ev
	_ZN9QSaveFileD1Ev
	_ZN9QSaveFileD2Ev
	_ZN9QSettings10beginGroupERK7QString
	_ZN9QSettings11qt_metacallEN11QMetaObject4CallEiPPv
	_ZN9QSettings11qt_metacastEPKc
	_ZN9QSettings11setIniCodecEP10QTextCodec
	_ZN9QSettings11setIniCodecEPKc
	_ZN9QSettings13defaultFormatEv
	_ZN9QSettings13setArrayIndexEi
	_ZN9QSettings14beginReadArrayERK7QString
	_ZN9QSettings14registerFormatERK7QStringPFbR9QIODeviceR4QMapIS0_8QVariantEEPFbS4_RKS7_EN2Qt15CaseSensitivityE
	_ZN9QSettings14setUserIniPathERK7QString
	_ZN9QSettings15beginWriteArrayERK7QStringi
	_ZN9QSettings16setDefaultFormatENS_6FormatE
	_ZN9QSettings16setSystemIniPathERK7QString
	_ZN9QSettings16staticMetaObjectE
	_ZN9QSettings18qt_static_metacallEP7QObjectN11QMetaObject4CallEiPPv
	_ZN9QSettings19setFallbacksEnabledEb
	_ZN9QSettings4syncEv
	_ZN9QSettings5clearEv
	_ZN9QSettings5eventEP6QEvent
	_ZN9QSettings6removeERK7QString
	_ZN9QSettings7setPathENS_6FormatENS_5ScopeERK7QString
	_ZN9QSettings8endArrayEv
	_ZN9QSettings8endGroupEv
	_ZN9QSettings8setValueERK7QStringRK8QVariant
	_ZN9QSettingsC1ENS_5ScopeERK7QStringS3_P7QObject
	_ZN9QSettingsC1ENS_6FormatENS_5ScopeERK7QStringS4_P7QObject
	_ZN9QSettingsC1EP7QObject
	_ZN9QSettingsC1ERK7QStringNS_6FormatEP7QObject
	_ZN9QSettingsC1ERK7QStringS2_P7QObject
	_ZN9QSettingsC2ENS_5ScopeERK7QStringS3_P7QObject
	_ZN9QSettingsC2ENS_6FormatENS_5ScopeERK7QStringS4_P7QObject
	_ZN9QSettingsC2EP7QObject
	_ZN9QSettingsC2ERK7QStringNS_6FormatEP7QObject
	_ZN9QSettingsC2ERK7QStringS2_P7QObject
	_ZN9QSettingsD0Ev
	_ZN9QSettingsD1Ev
	_ZN9QSettingsD2Ev
	_ZN9QTimeLine10timerEventEP11QTimerEvent
	_ZN9QTimeLine11qt_metacallEN11QMetaObject4CallEiPPv
	_ZN9QTimeLine11qt_metacastEPKc
	_ZN9QTimeLine11setDurationEi
	_ZN9QTimeLine11setEndFrameEi
	_ZN9QTimeLine12frameChangedEiNS_14QPrivateSignalE
	_ZN9QTimeLine12setDirectionENS_9DirectionE
	_ZN9QTimeLine12setLoopCountEi
	_ZN9QTimeLine12stateChangedENS_5StateENS_14QPrivateSignalE
	_ZN9QTimeLine12valueChangedEdNS_14QPrivateSignalE
	_ZN9QTimeLine13setCurveShapeENS_10CurveShapeE
	_ZN9QTimeLine13setFrameRangeEii
	_ZN9QTimeLine13setStartFrameEi
	_ZN9QTimeLine14setCurrentTimeEi
	_ZN9QTimeLine14setEasingCurveERK12QEasingCurve
	_ZN9QTimeLine15toggleDirectionEv
	_ZN9QTimeLine16staticMetaObjectE
	_ZN9QTimeLine17setUpdateIntervalEi
	_ZN9QTimeLine18qt_static_metacallEP7QObjectN11QMetaObject4CallEiPPv
	_ZN9QTimeLine4stopEv
	_ZN9QTimeLine5startEv
	_ZN9QTimeLine6resumeEv
	_ZN9QTimeLine8finishedENS_14QPrivateSignalE
	_ZN9QTimeLine9setPausedEb
	_ZN9QTimeLineC1EiP7QObject
	_ZN9QTimeLineC2EiP7QObject
	_ZN9QTimeLineD0Ev
	_ZN9QTimeLineD1Ev
	_ZN9QTimeLineD2Ev
	_ZN9QTimeZone16systemTimeZoneIdEv
	_ZN9QTimeZone17ianaIdToWindowsIdERK10QByteArray
	_ZN9QTimeZone18windowsIdToIanaIdsERK10QByteArray
	_ZN9QTimeZone18windowsIdToIanaIdsERK10QByteArrayN7QLocale7CountryE
	_ZN9QTimeZone20availableTimeZoneIdsEN7QLocale7CountryE
	_ZN9QTimeZone20availableTimeZoneIdsEi
	_ZN9QTimeZone20availableTimeZoneIdsEv
	_ZN9QTimeZone21isTimeZoneIdAvailableERK10QByteArray
	_ZN9QTimeZone24windowsIdToDefaultIanaIdERK10QByteArray
	_ZN9QTimeZone24windowsIdToDefaultIanaIdERK10QByteArrayN7QLocale7CountryE
	_ZN9QTimeZoneC1ER16QTimeZonePrivate
	_ZN9QTimeZoneC1ERK10QByteArray
	_ZN9QTimeZoneC1ERK10QByteArrayiRK7QStringS5_N7QLocale7CountryES5_
	_ZN9QTimeZoneC1ERKS_
	_ZN9QTimeZoneC1Ei
	_ZN9QTimeZoneC1Ev
	_ZN9QTimeZoneC2ER16QTimeZonePrivate
	_ZN9QTimeZoneC2ERK10QByteArray
	_ZN9QTimeZoneC2ERK10QByteArrayiRK7QStringS5_N7QLocale7CountryES5_
	_ZN9QTimeZoneC2ERKS_
	_ZN9QTimeZoneC2Ei
	_ZN9QTimeZoneC2Ev
	_ZN9QTimeZoneD1Ev
	_ZN9QTimeZoneD2Ev
	_ZN9QTimeZoneaSERKS_
	_ZN9QUrlQuery12addQueryItemERK7QStringS2_
	_ZN9QUrlQuery13setQueryItemsERK5QListI5QPairI7QStringS2_EE
	_ZN9QUrlQuery15removeQueryItemERK7QString
	_ZN9QUrlQuery18setQueryDelimitersE5QCharS0_
	_ZN9QUrlQuery19removeAllQueryItemsERK7QString
	_ZN9QUrlQuery5clearEv
	_ZN9QUrlQuery8setQueryERK7QString
	_ZN9QUrlQueryC1ERK4QUrl
	_ZN9QUrlQueryC1ERK7QString
	_ZN9QUrlQueryC1ERKS_
	_ZN9QUrlQueryC1Ev
	_ZN9QUrlQueryC2ERK4QUrl
	_ZN9QUrlQueryC2ERK7QString
	_ZN9QUrlQueryC2ERKS_
	_ZN9QUrlQueryC2Ev
	_ZN9QUrlQueryD1Ev
	_ZN9QUrlQueryD2Ev
	_ZN9QUrlQueryaSERKS_
	_ZN9QXmlUtils10isBaseCharE5QChar
	_ZN9QXmlUtils10isExtenderE5QChar
	_ZN9QXmlUtils10isNameCharE5QChar
	_ZN9QXmlUtils10isPublicIDERK7QString
	_ZN9QXmlUtils13isIdeographicE5QChar
	_ZN9QXmlUtils13rangeContainsEPK13QXmlCharRangeS2_5QChar
	_ZN9QXmlUtils15isCombiningCharE5QChar
	_ZN9QXmlUtils6isCharE5QChar
	_ZN9QXmlUtils7isDigitE5QChar
	_ZN9QXmlUtils8isLetterE5QChar
	_ZN9QXmlUtils8isNCNameERK10QStringRef
	_ZN9QXmlUtils9isEncNameERK7QString
	_ZN9QtPrivate13isBuiltinTypeERK10QByteArray
	_ZN9QtPrivate14ExceptionStore12setExceptionERK10QException
	_ZN9QtPrivate14ExceptionStore22throwPossibleExceptionEv
	_ZN9QtPrivate14ExceptionStore9exceptionEv
	_ZN9QtPrivate15ExceptionHolderC1EP10QException
	_ZN9QtPrivate15ExceptionHolderC1ERKS0_
	_ZN9QtPrivate15ExceptionHolderC2EP10QException
	_ZN9QtPrivate15ExceptionHolderC2ERKS0_
	_ZN9QtPrivate15ExceptionHolderD1Ev
	_ZN9QtPrivate15ExceptionHolderD2Ev
	_ZN9QtPrivate15ExceptionHolderaSERKS0_
	_ZN9QtPrivate15ResultStoreBase10addResultsEiPKvii
	_ZN9QtPrivate15ResultStoreBase13setFilterModeEb
	_ZN9QtPrivate15ResultStoreBase15syncResultCountEv
	_ZN9QtPrivate15ResultStoreBase16insertResultItemEiRNS_10ResultItemE
	_ZN9QtPrivate15ResultStoreBase17updateInsertIndexEii
	_ZN9QtPrivate15ResultStoreBase18syncPendingResultsEv
	_ZN9QtPrivate15ResultStoreBase23insertResultItemIfValidEiRNS_10ResultItemE
	_ZN9QtPrivate15ResultStoreBase9addResultEiPKv
	_ZN9QtPrivate15ResultStoreBaseC1Ev
	_ZN9QtPrivate15ResultStoreBaseC2Ev
	_ZN9QtPrivate15ResultStoreBaseD0Ev
	_ZN9QtPrivate15ResultStoreBaseD1Ev
	_ZN9QtPrivate16QStringList_joinEPK11QStringListPK5QChari
	_ZN9QtPrivate16QStringList_sortEP11QStringListN2Qt15CaseSensitivityE
	_ZN9QtPrivate18QStringList_filterEPK11QStringListRK18QRegularExpression
	_ZN9QtPrivate18QStringList_filterEPK11QStringListRK7QRegExp
	_ZN9QtPrivate18QStringList_filterEPK11QStringListRK7QStringN2Qt15CaseSensitivityE
	_ZN9QtPrivate18ResultIteratorBase14batchedAdvanceEv
	_ZN9QtPrivate18ResultIteratorBaseC1EN4QMapIiNS_10ResultItemEE14const_iteratorEi
	_ZN9QtPrivate18ResultIteratorBaseC1Ev
	_ZN9QtPrivate18ResultIteratorBaseC2EN4QMapIiNS_10ResultItemEE14const_iteratorEi
	_ZN9QtPrivate18ResultIteratorBaseC2Ev
	_ZN9QtPrivate18ResultIteratorBaseppEv
	_ZN9QtPrivate19QStringList_indexOfEPK11QStringListR7QRegExpi
	_ZN9QtPrivate19QStringList_indexOfEPK11QStringListRK18QRegularExpressioni
	_ZN9QtPrivate19QStringList_indexOfEPK11QStringListRK7QRegExpi
	_ZN9QtPrivate20QStringList_containsEPK11QStringListRK7QStringN2Qt15CaseSensitivityE
	_ZN9QtPrivate23QStringList_lastIndexOfEPK11QStringListR7QRegExpi
	_ZN9QtPrivate23QStringList_lastIndexOfEPK11QStringListRK18QRegularExpressioni
	_ZN9QtPrivate23QStringList_lastIndexOfEPK11QStringListRK7QRegExpi
	_ZN9QtPrivate28QStringList_removeDuplicatesEP11QStringList
	_ZN9QtPrivate28QStringList_replaceInStringsEP11QStringListRK18QRegularExpressionRK7QString
	_ZN9QtPrivate28QStringList_replaceInStringsEP11QStringListRK7QRegExpRK7QString
	_ZN9QtPrivate28QStringList_replaceInStringsEP11QStringListRK7QStringS4_N2Qt15CaseSensitivityE
	_ZNK10QByteArray10simplifiedEv
	_ZNK10QByteArray10startsWithEPKc
	_ZNK10QByteArray10startsWithERKS_
	_ZNK10QByteArray10startsWithEc
	_ZNK10QByteArray10toLongLongEPbi
	_ZNK10QByteArray11lastIndexOfEPKci
	_ZNK10QByteArray11lastIndexOfERKS_i
	_ZNK10QByteArray11lastIndexOfEci
	_ZNK10QByteArray11toULongLongEPbi
	_ZNK10QByteArray13leftJustifiedEicb
	_ZNK10QByteArray13nulTerminatedEv
	_ZNK10QByteArray14rightJustifiedEicb
	_ZNK10QByteArray17toPercentEncodingERKS_S1_c
	_ZNK10QByteArray3midEii
	_ZNK10QByteArray4leftEi
	_ZNK10QByteArray5countEPKc
	_ZNK10QByteArray5countERKS_
	_ZNK10QByteArray5countEc
	_ZNK10QByteArray5rightEi
	_ZNK10QByteArray5splitEc
	_ZNK10QByteArray5toHexEv
	_ZNK10QByteArray5toIntEPbi
	_ZNK10QByteArray6isNullEv
	_ZNK10QByteArray6toLongEPbi
	_ZNK10QByteArray6toUIntEPbi
	_ZNK10QByteArray7indexOfEPKci
	_ZNK10QByteArray7indexOfERKS_i
	_ZNK10QByteArray7indexOfEci
	_ZNK10QByteArray7toFloatEPb
	_ZNK10QByteArray7toLowerEv
	_ZNK10QByteArray7toShortEPbi
	_ZNK10QByteArray7toULongEPbi
	_ZNK10QByteArray7toUpperEv
	_ZNK10QByteArray7trimmedEv
	_ZNK10QByteArray8endsWithEPKc
	_ZNK10QByteArray8endsWithERKS_
	_ZNK10QByteArray8endsWithEc
	_ZNK10QByteArray8repeatedEi
	_ZNK10QByteArray8toBase64E6QFlagsINS_12Base64OptionEE
	_ZNK10QByteArray8toBase64Ev
	_ZNK10QByteArray8toDoubleEPb
	_ZNK10QByteArray8toUShortEPbi
	_ZNK10QEventLoop10metaObjectEv
	_ZNK10QEventLoop9isRunningEv
	_ZNK10QException5cloneEv
	_ZNK10QException5raiseEv
	_ZNK10QJsonArray13toVariantListEv
	_ZNK10QJsonArray2atEi
	_ZNK10QJsonArray4lastEv
	_ZNK10QJsonArray4sizeEv
	_ZNK10QJsonArray5firstEv
	_ZNK10QJsonArray7isEmptyEv
	_ZNK10QJsonArray8containsERK10QJsonValue
	_ZNK10QJsonArrayeqERKS_
	_ZNK10QJsonArrayixEi
	_ZNK10QJsonArrayneERKS_
	_ZNK10QJsonValue4typeEv
	_ZNK10QJsonValue5toIntEi
	_ZNK10QJsonValue6toBoolEb
	_ZNK10QJsonValue7toArrayERK10QJsonArray
	_ZNK10QJsonValue7toArrayEv
	_ZNK10QJsonValue8toDoubleEd
	_ZNK10QJsonValue8toObjectERK11QJsonObject
	_ZNK10QJsonValue8toObjectEv
	_ZNK10QJsonValue8toStringERK7QString
	_ZNK10QJsonValue9toVariantEv
	_ZNK10QJsonValueeqERKS_
	_ZNK10QJsonValueneERKS_
	_ZNK10QSemaphore9availableEv
	_ZNK10QStringRef10startsWithE13QLatin1StringN2Qt15CaseSensitivityE
	_ZNK10QStringRef10startsWithE5QCharN2Qt15CaseSensitivityE
	_ZNK10QStringRef10startsWithERK7QStringN2Qt15CaseSensitivityE
	_ZNK10QStringRef10startsWithERKS_N2Qt15CaseSensitivityE
	_ZNK10QStringRef10toLongLongEPbi
	_ZNK10QStringRef11lastIndexOfE13QLatin1StringiN2Qt15CaseSensitivityE
	_ZNK10QStringRef11lastIndexOfE5QChariN2Qt15CaseSensitivityE
	_ZNK10QStringRef11lastIndexOfERK7QStringiN2Qt15CaseSensitivityE
	_ZNK10QStringRef11lastIndexOfERKS_iN2Qt15CaseSensitivityE
	_ZNK10QStringRef11toLocal8BitEv
	_ZNK10QStringRef11toULongLongEPbi
	_ZNK10QStringRef3midEii
	_ZNK10QStringRef4leftEi
	_ZNK10QStringRef5countE5QCharN2Qt15CaseSensitivityE
	_ZNK10QStringRef5countERK7QStringN2Qt15CaseSensitivityE
	_ZNK10QStringRef5countERKS_N2Qt15CaseSensitivityE
	_ZNK10QStringRef5rightEi
	_ZNK10QStringRef5toIntEPbi
	_ZNK10QStringRef6toLongEPbi
	_ZNK10QStringRef6toUIntEPbi
	_ZNK10QStringRef6toUcs4Ev
	_ZNK10QStringRef6toUtf8Ev
	_ZNK10QStringRef7indexOfE13QLatin1StringiN2Qt15CaseSensitivityE
	_ZNK10QStringRef7indexOfE5QChariN2Qt15CaseSensitivityE
	_ZNK10QStringRef7indexOfERK7QStringiN2Qt15CaseSensitivityE
	_ZNK10QStringRef7indexOfERKS_iN2Qt15CaseSensitivityE
	_ZNK10QStringRef7toFloatEPb
	_ZNK10QStringRef7toShortEPbi
	_ZNK10QStringRef7toULongEPbi
	_ZNK10QStringRef7trimmedEv
	_ZNK10QStringRef8appendToEP7QString
	_ZNK10QStringRef8endsWithE13QLatin1StringN2Qt15CaseSensitivityE
	_ZNK10QStringRef8endsWithE5QCharN2Qt15CaseSensitivityE
	_ZNK10QStringRef8endsWithERK7QStringN2Qt15CaseSensitivityE
	_ZNK10QStringRef8endsWithERKS_N2Qt15CaseSensitivityE
	_ZNK10QStringRef8toDoubleEPb
	_ZNK10QStringRef8toLatin1Ev
	_ZNK10QStringRef8toStringEv
	_ZNK10QStringRef8toUShortEPbi
	_ZNK10QTextCodec11fromUnicodeERK7QString
	_ZNK10QTextCodec11makeDecoderE6QFlagsINS_14ConversionFlagEE
	_ZNK10QTextCodec11makeEncoderE6QFlagsINS_14ConversionFlagEE
	_ZNK10QTextCodec7aliasesEv
	_ZNK10QTextCodec9canEncodeE5QChar
	_ZNK10QTextCodec9canEncodeERK7QString
	_ZNK10QTextCodec9toUnicodeEPKc
	_ZNK10QTextCodec9toUnicodeERK10QByteArray
	_ZNK11QDataStream22floatingPointPrecisionEv
	_ZNK11QDataStream5atEndEv
	_ZNK11QDataStream6statusEv
	_ZNK11QFileDevice10metaObjectEv
	_ZNK11QFileDevice11permissionsEv
	_ZNK11QFileDevice12isSequentialEv
	_ZNK11QFileDevice3posEv
	_ZNK11QFileDevice4sizeEv
	_ZNK11QFileDevice5atEndEv
	_ZNK11QFileDevice5errorEv
	_ZNK11QFileDevice6handleEv
	_ZNK11QFileDevice8fileNameEv
	_ZNK11QFinalState10metaObjectEv
	_ZNK11QJsonObject12toVariantMapEv
	_ZNK11QJsonObject4keysEv
	_ZNK11QJsonObject4sizeEv
	_ZNK11QJsonObject5keyAtEi
	_ZNK11QJsonObject5valueERK7QString
	_ZNK11QJsonObject7isEmptyEv
	_ZNK11QJsonObject7valueAtEi
	_ZNK11QJsonObject8containsERK7QString
	_ZNK11QJsonObject9constFindERK7QString
	_ZNK11QJsonObjecteqERKS_
	_ZNK11QJsonObjectixERK7QString
	_ZNK11QJsonObjectneERKS_
	_ZNK11QLocaleData13validateCharsERK7QStringNS_10NumberModeEP10QByteArrayi
	_ZNK11QMetaMethod10attributesEv
	_ZNK11QMetaMethod10methodTypeEv
	_ZNK11QMetaMethod10returnTypeEv
	_ZNK11QMetaMethod11methodIndexEv
	_ZNK11QMetaMethod13parameterTypeEi
	_ZNK11QMetaMethod14parameterCountEv
	_ZNK11QMetaMethod14parameterNamesEv
	_ZNK11QMetaMethod14parameterTypesEv
	_ZNK11QMetaMethod15methodSignatureEv
	_ZNK11QMetaMethod17getParameterTypesEPi
	_ZNK11QMetaMethod3tagEv
	_ZNK11QMetaMethod4nameEv
	_ZNK11QMetaMethod6accessEv
	_ZNK11QMetaMethod6invokeEP7QObjectN2Qt14ConnectionTypeE22QGenericReturnArgument16QGenericArgumentS5_S5_S5_S5_S5_S5_S5_S5_S5_
	_ZNK11QMetaMethod8revisionEv
	_ZNK11QMetaMethod8typeNameEv
	_ZNK11QMetaObject10enumeratorEi
	_ZNK11QMetaObject11constructorEi
	_ZNK11QMetaObject11indexOfSlotEPKc
	_ZNK11QMetaObject11methodCountEv
	_ZNK11QMetaObject11newInstanceE16QGenericArgumentS0_S0_S0_S0_S0_S0_S0_S0_S0_
	_ZNK11QMetaObject12methodOffsetEv
	_ZNK11QMetaObject12userPropertyEv
	_ZNK11QMetaObject13indexOfMethodEPKc
	_ZNK11QMetaObject13indexOfSignalEPKc
	_ZNK11QMetaObject13propertyCountEv
	_ZNK11QMetaObject14classInfoCountEv
	_ZNK11QMetaObject14propertyOffsetEv
	_ZNK11QMetaObject15classInfoOffsetEv
	_ZNK11QMetaObject15enumeratorCountEv
	_ZNK11QMetaObject15indexOfPropertyEPKc
	_ZNK11QMetaObject15static_metacallENS_4CallEiPPv
	_ZNK11QMetaObject16constructorCountEv
	_ZNK11QMetaObject16enumeratorOffsetEv
	_ZNK11QMetaObject16indexOfClassInfoEPKc
	_ZNK11QMetaObject17indexOfEnumeratorEPKc
	_ZNK11QMetaObject18indexOfConstructorEPKc
	_ZNK11QMetaObject2trEPKcS1_i
	_ZNK11QMetaObject4castEP7QObject
	_ZNK11QMetaObject4castEPK7QObject
	_ZNK11QMetaObject6methodEi
	_ZNK11QMetaObject8propertyEi
	_ZNK11QMetaObject9classInfoEi
	_ZNK11QMetaObject9classNameEv
	_ZNK11QObjectData17dynamicMetaObjectEv
	_ZNK11QTextStream10fieldWidthEv
	_ZNK11QTextStream11integerBaseEv
	_ZNK11QTextStream11numberFlagsEv
	_ZNK11QTextStream14fieldAlignmentEv
	_ZNK11QTextStream17autoDetectUnicodeEv
	_ZNK11QTextStream18realNumberNotationEv
	_ZNK11QTextStream19realNumberPrecisionEv
	_ZNK11QTextStream21generateByteOrderMarkEv
	_ZNK11QTextStream3posEv
	_ZNK11QTextStream5atEndEv
	_ZNK11QTextStream5codecEv
	_ZNK11QTextStream6deviceEv
	_ZNK11QTextStream6localeEv
	_ZNK11QTextStream6statusEv
	_ZNK11QTextStream6stringEv
	_ZNK11QTextStream7padCharEv
	_ZNK11QThreadPool10metaObjectEv
	_ZNK11QThreadPool13expiryTimeoutEv
	_ZNK11QThreadPool14maxThreadCountEv
	_ZNK11QThreadPool17activeThreadCountEv
	_ZNK11QTranslator10metaObjectEv
	_ZNK11QTranslator7isEmptyEv
	_ZNK11QTranslator9translateEPKcS1_S1_i
	_ZNK12QDirIterator4pathEv
	_ZNK12QDirIterator7hasNextEv
	_ZNK12QDirIterator8fileInfoEv
	_ZNK12QDirIterator8fileNameEv
	_ZNK12QDirIterator8filePathEv
	_ZNK12QEasingCurve10customTypeEv
	_ZNK12QEasingCurve13toCubicSplineEv
	_ZNK12QEasingCurve16valueForProgressEd
	_ZNK12QEasingCurve4typeEv
	_ZNK12QEasingCurve6periodEv
	_ZNK12QEasingCurve9amplitudeEv
	_ZNK12QEasingCurve9overshootEv
	_ZNK12QEasingCurveeqERKS_
	_ZNK12QMapNodeBase12previousNodeEv
	_ZNK12QMapNodeBase8nextNodeEv
	_ZNK12QTextDecoder10hasFailureEv
	_ZNK12QTextEncoder10hasFailureEv
	_ZNK13QElapsedTimer10hasExpiredEx
	_ZNK13QElapsedTimer12nsecsElapsedEv
	_ZNK13QElapsedTimer19msecsSinceReferenceEv
	_ZNK13QElapsedTimer6secsToERKS_
	_ZNK13QElapsedTimer7elapsedEv
	_ZNK13QElapsedTimer7isValidEv
	_ZNK13QElapsedTimer7msecsToERKS_
	_ZNK13QFileSelector10metaObjectEv
	_ZNK13QFileSelector12allSelectorsEv
	_ZNK13QFileSelector14extraSelectorsEv
	_ZNK13QFileSelector6selectERK4QUrl
	_ZNK13QFileSelector6selectERK7QString
	_ZNK13QHistoryState10metaObjectEv
	_ZNK13QHistoryState11historyTypeEv
	_ZNK13QHistoryState12defaultStateEv
	_ZNK13QJsonDocument12toBinaryDataEv
	_ZNK13QJsonDocument5arrayEv
	_ZNK13QJsonDocument6isNullEv
	_ZNK13QJsonDocument6objectEv
	_ZNK13QJsonDocument6toJsonENS_10JsonFormatE
	_ZNK13QJsonDocument6toJsonEv
	_ZNK13QJsonDocument7isArrayEv
	_ZNK13QJsonDocument7isEmptyEv
	_ZNK13QJsonDocument7rawDataEPi
	_ZNK13QJsonDocument8isObjectEv
	_ZNK13QJsonDocument9toVariantEv
	_ZNK13QJsonDocumenteqERKS_
	_ZNK13QJsonValueRef7toArrayEv
	_ZNK13QJsonValueRef7toValueEv
	_ZNK13QJsonValueRef8toObjectEv
	_ZNK13QMetaProperty10enumeratorEv
	_ZNK13QMetaProperty10isConstantEv
	_ZNK13QMetaProperty10isEditableEPK7QObject
	_ZNK13QMetaProperty10isEnumTypeEv
	_ZNK13QMetaProperty10isFlagTypeEv
	_ZNK13QMetaProperty10isReadableEv
	_ZNK13QMetaProperty10isWritableEv
	_ZNK13QMetaProperty12hasStdCppSetEv
	_ZNK13QMetaProperty12isDesignableEPK7QObject
	_ZNK13QMetaProperty12isResettableEv
	_ZNK13QMetaProperty12isScriptableEPK7QObject
	_ZNK13QMetaProperty12notifySignalEv
	_ZNK13QMetaProperty13propertyIndexEv
	_ZNK13QMetaProperty15hasNotifySignalEv
	_ZNK13QMetaProperty17notifySignalIndexEv
	_ZNK13QMetaProperty4nameEv
	_ZNK13QMetaProperty4readEPK7QObject
	_ZNK13QMetaProperty4typeEv
	_ZNK13QMetaProperty5resetEP7QObject
	_ZNK13QMetaProperty5writeEP7QObjectRK8QVariant
	_ZNK13QMetaProperty6isUserEPK7QObject
	_ZNK13QMetaProperty7isFinalEv
	_ZNK13QMetaProperty8isStoredEPK7QObject
	_ZNK13QMetaProperty8revisionEv
	_ZNK13QMetaProperty8typeNameEv
	_ZNK13QMetaProperty8userTypeEv
	_ZNK13QMimeDatabase12allMimeTypesEv
	_ZNK13QMimeDatabase14mimeTypeForUrlERK4QUrl
	_ZNK13QMimeDatabase15mimeTypeForDataEP9QIODevice
	_ZNK13QMimeDatabase15mimeTypeForDataERK10QByteArray
	_ZNK13QMimeDatabase15mimeTypeForFileERK7QStringNS_9MatchModeE
	_ZNK13QMimeDatabase15mimeTypeForFileERK9QFileInfoNS_9MatchModeE
	_ZNK13QMimeDatabase15mimeTypeForNameERK7QString
	_ZNK13QMimeDatabase17suffixForFileNameERK7QString
	_ZNK13QMimeDatabase20mimeTypesForFileNameERK7QString
	_ZNK13QMimeDatabase26mimeTypeForFileNameAndDataERK7QStringP9QIODevice
	_ZNK13QMimeDatabase26mimeTypeForFileNameAndDataERK7QStringRK10QByteArray
	_ZNK13QPluginLoader10metaObjectEv
	_ZNK13QPluginLoader11errorStringEv
	_ZNK13QPluginLoader8fileNameEv
	_ZNK13QPluginLoader8isLoadedEv
	_ZNK13QPluginLoader8metaDataEv
	_ZNK13QPluginLoader9loadHintsEv
	_ZNK13QSharedMemory10isAttachedEv
	_ZNK13QSharedMemory10metaObjectEv
	_ZNK13QSharedMemory11errorStringEv
	_ZNK13QSharedMemory3keyEv
	_ZNK13QSharedMemory4dataEv
	_ZNK13QSharedMemory4sizeEv
	_ZNK13QSharedMemory5errorEv
	_ZNK13QSharedMemory9constDataEv
	_ZNK13QSharedMemory9nativeKeyEv
	_ZNK13QSignalMapper10metaObjectEv
	_ZNK13QSignalMapper7mappingEP7QObject
	_ZNK13QSignalMapper7mappingEP7QWidget
	_ZNK13QSignalMapper7mappingERK7QString
	_ZNK13QSignalMapper7mappingEi
	_ZNK13QStateMachine10isAnimatedEv
	_ZNK13QStateMachine10metaObjectEv
	_ZNK13QStateMachine11errorStringEv
	_ZNK13QStateMachine13configurationEv
	_ZNK13QStateMachine17defaultAnimationsEv
	_ZNK13QStateMachine19globalRestorePolicyEv
	_ZNK13QStateMachine5errorEv
	_ZNK13QStateMachine9isRunningEv
	_ZNK13QStaticPlugin8metaDataEv
	_ZNK13QSystemLocale16fallbackUiLocaleEv
	_ZNK13QSystemLocale5queryENS_9QueryTypeE8QVariant
	_ZNK13QTemporaryDir10autoRemoveEv
	_ZNK13QTemporaryDir4pathEv
	_ZNK13QTemporaryDir7isValidEv
	_ZNK13QUnifiedTimer10metaObjectEv
	_ZNK14QAbstractState10metaObjectEv
	_ZNK14QAbstractState11parentStateEv
	_ZNK14QAbstractState7machineEv
	_ZNK14QFactoryLoader10metaObjectEv
	_ZNK14QFactoryLoader6keyMapEv
	_ZNK14QFactoryLoader7indexOfERK7QString
	_ZNK14QFactoryLoader8instanceEi
	_ZNK14QFactoryLoader8metaDataEv
	_ZNK14QItemSelection7indexesEv
	_ZNK14QItemSelection8containsERK11QModelIndex
	_ZNK14QLocalePrivate16dateTimeToStringERK7QStringRK9QDateTimeRK5QDateRK5QTimePK7QLocale
	_ZNK14QLocalePrivate17measurementSystemEv
	_ZNK14QLocalePrivate9bcp47NameEc
	_ZNK14QMessageLogger5debugEPFRK16QLoggingCategoryvE
	_ZNK14QMessageLogger5debugEPFRK16QLoggingCategoryvEPKcz
	_ZNK14QMessageLogger5debugEPKcz
	_ZNK14QMessageLogger5debugERK16QLoggingCategory
	_ZNK14QMessageLogger5debugERK16QLoggingCategoryPKcz
	_ZNK14QMessageLogger5debugEv
	_ZNK14QMessageLogger5fatalEPKcz
	_ZNK14QMessageLogger7noDebugEv
	_ZNK14QMessageLogger7warningEPFRK16QLoggingCategoryvE
	_ZNK14QMessageLogger7warningEPFRK16QLoggingCategoryvEPKcz
	_ZNK14QMessageLogger7warningEPKcz
	_ZNK14QMessageLogger7warningERK16QLoggingCategory
	_ZNK14QMessageLogger7warningERK16QLoggingCategoryPKcz
	_ZNK14QMessageLogger7warningEv
	_ZNK14QMessageLogger8criticalEPFRK16QLoggingCategoryvE
	_ZNK14QMessageLogger8criticalEPFRK16QLoggingCategoryvEPKcz
	_ZNK14QMessageLogger8criticalEPKcz
	_ZNK14QMessageLogger8criticalERK16QLoggingCategory
	_ZNK14QMessageLogger8criticalERK16QLoggingCategoryPKcz
	_ZNK14QMessageLogger8criticalEv
	_ZNK14QMetaClassInfo4nameEv
	_ZNK14QMetaClassInfo5valueEv
	_ZNK14QObjectPrivate10senderListEv
	_ZNK14QObjectPrivate11signalIndexEPKcPPK11QMetaObject
	_ZNK14QObjectPrivate12receiverListEPKc
	_ZNK14QObjectPrivate8isSenderEPK7QObjectPKc
	_ZNK14QStringMatcher7indexInEPK5QCharii
	_ZNK14QStringMatcher7indexInERK7QStringi
	_ZNK14QStringMatcher7patternEv
	_ZNK14QTemporaryFile10autoRemoveEv
	_ZNK14QTemporaryFile10metaObjectEv
	_ZNK14QTemporaryFile12fileTemplateEv
	_ZNK14QTemporaryFile8fileNameEv
	_ZNK15QAnimationGroup10metaObjectEv
	_ZNK15QAnimationGroup11animationAtEi
	_ZNK15QAnimationGroup14animationCountEv
	_ZNK15QAnimationGroup16indexOfAnimationEP18QAbstractAnimation
	_ZNK15QDateTimeParser10fromStringERK7QStringP5QDateP5QTime
	_ZNK15QDateTimeParser10getMaximumEv
	_ZNK15QDateTimeParser10getMinimumEv
	_ZNK15QDateTimeParser10sectionPosERKNS_11SectionNodeE
	_ZNK15QDateTimeParser10sectionPosEi
	_ZNK15QDateTimeParser11absoluteMaxEiRK9QDateTime
	_ZNK15QDateTimeParser11absoluteMinEi
	_ZNK15QDateTimeParser11displayTextEv
	_ZNK15QDateTimeParser11getAmPmTextENS_4AmPmENS_4CaseE
	_ZNK15QDateTimeParser11sectionNameEi
	_ZNK15QDateTimeParser11sectionNodeEi
	_ZNK15QDateTimeParser11sectionSizeEi
	_ZNK15QDateTimeParser11sectionTextERK7QStringii
	_ZNK15QDateTimeParser11sectionTextEi
	_ZNK15QDateTimeParser11sectionTypeEi
	_ZNK15QDateTimeParser12parseSectionERK9QDateTimeiR7QStringRiiRNS_5StateEPi
	_ZNK15QDateTimeParser13sectionFormatENS_7SectionEi
	_ZNK15QDateTimeParser13sectionFormatEi
	_ZNK15QDateTimeParser14cursorPositionEv
	_ZNK15QDateTimeParser14potentialValueERK7QStringiiiRK9QDateTimei
	_ZNK15QDateTimeParser14sectionMaxSizeENS_7SectionEi
	_ZNK15QDateTimeParser14sectionMaxSizeEi
	_ZNK15QDateTimeParser17skipToNextSectionEiRK9QDateTimeRK7QString
	_ZNK15QDateTimeParser5parseER7QStringRiRK9QDateTimeb
	_ZNK15QDateTimeParser6localeEv
	_ZNK15QDateTimeParser7findDayERK7QStringiiPS0_Pi
	_ZNK15QDateTimeParser8findAmPmER7QStringiPi
	_ZNK15QDateTimeParser8getDigitERK9QDateTimei
	_ZNK15QDateTimeParser8setDigitER9QDateTimeii
	_ZNK15QDateTimeParser9fieldInfoEi
	_ZNK15QDateTimeParser9findMonthERK7QStringiiPS0_Pi
	_ZNK15QDateTimeParser9maxChangeEi
	_ZNK15QDateTimeParser9stateNameEi
	_ZNK15QJsonParseError11errorStringEv
	_ZNK15QPauseAnimation10metaObjectEv
	_ZNK15QPauseAnimation8durationEv
	_ZNK15QSocketNotifier10metaObjectEv
	_ZNK15QSocketNotifier4typeEv
	_ZNK15QSocketNotifier6socketEv
	_ZNK15QSocketNotifier9isEnabledEv
	_ZNK16QAnimationDriver10metaObjectEv
	_ZNK16QAnimationDriver7elapsedEv
	_ZNK16QAnimationDriver9isRunningEv
	_ZNK16QAnimationDriver9startTimeEv
	_ZNK16QCollatorSortKey7compareERKS_
	_ZNK16QCoreApplication10metaObjectEv
	_ZNK16QEventTransition10metaObjectEv
	_ZNK16QEventTransition11eventSourceEv
	_ZNK16QEventTransition9eventTypeEv
	_ZNK16QLoggingCategory9isEnabledE9QtMsgType
	_ZNK16QMetaEnumBuilder3keyEi
	_ZNK16QMetaEnumBuilder4nameEv
	_ZNK16QMetaEnumBuilder5valueEi
	_ZNK16QMetaEnumBuilder6d_funcEv
	_ZNK16QMetaEnumBuilder6isFlagEv
	_ZNK16QMetaEnumBuilder8keyCountEv
	_ZNK16QMetaStringTable8blobSizeEv
	_ZNK16QMetaStringTable9writeBlobEPc
	_ZNK16QStringListModel10metaObjectEv
	_ZNK16QStringListModel10stringListEv
	_ZNK16QStringListModel20supportedDropActionsEv
	_ZNK16QStringListModel4dataERK11QModelIndexi
	_ZNK16QStringListModel5flagsERK11QModelIndex
	_ZNK16QStringListModel7siblingEiiRK11QModelIndex
	_ZNK16QStringListModel8rowCountERK11QModelIndex
	_ZNK16QSystemSemaphore11errorStringEv
	_ZNK16QSystemSemaphore3keyEv
	_ZNK16QSystemSemaphore5errorEv
	_ZNK16QTimeZonePrivate11displayNameEN9QTimeZone8TimeTypeENS0_8NameTypeERK7QLocale
	_ZNK16QTimeZonePrivate11displayNameExN9QTimeZone8NameTypeERK7QLocale
	_ZNK16QTimeZonePrivate11transitionsExx
	_ZNK16QTimeZonePrivate12abbreviationEx
	_ZNK16QTimeZonePrivate13offsetFromUtcEx
	_ZNK16QTimeZonePrivate14hasTransitionsEv
	_ZNK16QTimeZonePrivate14isDaylightTimeEx
	_ZNK16QTimeZonePrivate14nextTransitionEx
	_ZNK16QTimeZonePrivate15hasDaylightTimeEv
	_ZNK16QTimeZonePrivate16dataForLocalTimeEx
	_ZNK16QTimeZonePrivate16systemTimeZoneIdEv
	_ZNK16QTimeZonePrivate18daylightTimeOffsetEx
	_ZNK16QTimeZonePrivate18previousTransitionEx
	_ZNK16QTimeZonePrivate18standardTimeOffsetEx
	_ZNK16QTimeZonePrivate20availableTimeZoneIdsEN7QLocale7CountryE
	_ZNK16QTimeZonePrivate20availableTimeZoneIdsEi
	_ZNK16QTimeZonePrivate20availableTimeZoneIdsEv
	_ZNK16QTimeZonePrivate2idEv
	_ZNK16QTimeZonePrivate4dataEx
	_ZNK16QTimeZonePrivate7commentEv
	_ZNK16QTimeZonePrivate7countryEv
	_ZNK16QTimeZonePrivate7isValidEv
	_ZNK16QTimeZonePrivate9serializeER11QDataStream
	_ZNK16QTimeZonePrivateeqERKS_
	_ZNK16QTimeZonePrivateneERKS_
	_ZNK16QXmlStreamReader10attributesEv
	_ZNK16QXmlStreamReader10lineNumberEv
	_ZNK16QXmlStreamReader11dtdPublicIdEv
	_ZNK16QXmlStreamReader11dtdSystemIdEv
	_ZNK16QXmlStreamReader11errorStringEv
	_ZNK16QXmlStreamReader11tokenStringEv
	_ZNK16QXmlStreamReader12columnNumberEv
	_ZNK16QXmlStreamReader12isWhitespaceEv
	_ZNK16QXmlStreamReader12namespaceUriEv
	_ZNK16QXmlStreamReader13qualifiedNameEv
	_ZNK16QXmlStreamReader14entityResolverEv
	_ZNK16QXmlStreamReader15characterOffsetEv
	_ZNK16QXmlStreamReader15documentVersionEv
	_ZNK16QXmlStreamReader16documentEncodingEv
	_ZNK16QXmlStreamReader18entityDeclarationsEv
	_ZNK16QXmlStreamReader19namespaceProcessingEv
	_ZNK16QXmlStreamReader20isStandaloneDocumentEv
	_ZNK16QXmlStreamReader20notationDeclarationsEv
	_ZNK16QXmlStreamReader21namespaceDeclarationsEv
	_ZNK16QXmlStreamReader25processingInstructionDataEv
	_ZNK16QXmlStreamReader27processingInstructionTargetEv
	_ZNK16QXmlStreamReader4nameEv
	_ZNK16QXmlStreamReader4textEv
	_ZNK16QXmlStreamReader5atEndEv
	_ZNK16QXmlStreamReader5errorEv
	_ZNK16QXmlStreamReader6deviceEv
	_ZNK16QXmlStreamReader6prefixEv
	_ZNK16QXmlStreamReader7dtdNameEv
	_ZNK16QXmlStreamReader7isCDATAEv
	_ZNK16QXmlStreamReader9tokenTypeEv
	_ZNK16QXmlStreamWriter14autoFormattingEv
	_ZNK16QXmlStreamWriter20autoFormattingIndentEv
	_ZNK16QXmlStreamWriter5codecEv
	_ZNK16QXmlStreamWriter6deviceEv
	_ZNK16QXmlStreamWriter8hasErrorEv
	_ZNK17QByteArrayMatcher7indexInEPKcii
	_ZNK17QByteArrayMatcher7indexInERK10QByteArrayi
	_ZNK17QSignalTransition10metaObjectEv
	_ZNK17QSignalTransition12senderObjectEv
	_ZNK17QSignalTransition6signalEv
	_ZNK17QVariantAnimation10keyValueAtEd
	_ZNK17QVariantAnimation10metaObjectEv
	_ZNK17QVariantAnimation10startValueEv
	_ZNK17QVariantAnimation11easingCurveEv
	_ZNK17QVariantAnimation12currentValueEv
	_ZNK17QVariantAnimation12interpolatedERK8QVariantS2_d
	_ZNK17QVariantAnimation8durationEv
	_ZNK17QVariantAnimation8endValueEv
	_ZNK17QVariantAnimation9keyValuesEv
	_ZNK17QWinEventNotifier10metaObjectEv
	_ZNK17QWinEventNotifier6handleEv
	_ZNK17QWinEventNotifier9isEnabledEv
	_ZNK18QAbstractAnimation10metaObjectEv
	_ZNK18QAbstractAnimation11currentLoopEv
	_ZNK18QAbstractAnimation11currentTimeEv
	_ZNK18QAbstractAnimation13totalDurationEv
	_ZNK18QAbstractAnimation15currentLoopTimeEv
	_ZNK18QAbstractAnimation5groupEv
	_ZNK18QAbstractAnimation5stateEv
	_ZNK18QAbstractAnimation9directionEv
	_ZNK18QAbstractAnimation9loopCountEv
	_ZNK18QAbstractItemModel10encodeDataERK5QListI11QModelIndexER11QDataStream
	_ZNK18QAbstractItemModel10headerDataEiN2Qt11OrientationEi
	_ZNK18QAbstractItemModel10metaObjectEv
	_ZNK18QAbstractItemModel11hasChildrenERK11QModelIndex
	_ZNK18QAbstractItemModel12canFetchMoreERK11QModelIndex
	_ZNK18QAbstractItemModel15canDropMimeDataEPK9QMimeDataN2Qt10DropActionEiiRK11QModelIndex
	_ZNK18QAbstractItemModel19persistentIndexListEv
	_ZNK18QAbstractItemModel20supportedDragActionsEv
	_ZNK18QAbstractItemModel20supportedDropActionsEv
	_ZNK18QAbstractItemModel4spanERK11QModelIndex
	_ZNK18QAbstractItemModel5buddyERK11QModelIndex
	_ZNK18QAbstractItemModel5flagsERK11QModelIndex
	_ZNK18QAbstractItemModel5matchERK11QModelIndexiRK8QVarianti6QFlagsIN2Qt9MatchFlagEE
	_ZNK18QAbstractItemModel7siblingEiiRK11QModelIndex
	_ZNK18QAbstractItemModel8hasIndexEiiRK11QModelIndex
	_ZNK18QAbstractItemModel8itemDataERK11QModelIndex
	_ZNK18QAbstractItemModel8mimeDataERK5QListI11QModelIndexE
	_ZNK18QAbstractItemModel9mimeTypesEv
	_ZNK18QAbstractItemModel9roleNamesEv
	_ZNK18QAbstractListModel10metaObjectEv
	_ZNK18QAbstractListModel11columnCountERK11QModelIndex
	_ZNK18QAbstractListModel11hasChildrenERK11QModelIndex
	_ZNK18QAbstractListModel5flagsERK11QModelIndex
	_ZNK18QAbstractListModel5indexEiiRK11QModelIndex
	_ZNK18QAbstractListModel6parentERK11QModelIndex
	_ZNK18QCommandLineOption11descriptionEv
	_ZNK18QCommandLineOption13defaultValuesEv
	_ZNK18QCommandLineOption5namesEv
	_ZNK18QCommandLineOption9valueNameEv
	_ZNK18QCommandLineParser11optionNamesEv
	_ZNK18QCommandLineParser18unknownOptionNamesEv
	_ZNK18QCommandLineParser19positionalArgumentsEv
	_ZNK18QCommandLineParser22applicationDescriptionEv
	_ZNK18QCommandLineParser5isSetERK18QCommandLineOption
	_ZNK18QCommandLineParser5isSetERK7QString
	_ZNK18QCommandLineParser5valueERK18QCommandLineOption
	_ZNK18QCommandLineParser5valueERK7QString
	_ZNK18QCommandLineParser6valuesERK18QCommandLineOption
	_ZNK18QCommandLineParser6valuesERK7QString
	_ZNK18QCommandLineParser8helpTextEv
	_ZNK18QCommandLineParser9errorTextEv
	_ZNK18QCryptographicHash6resultEv
	_ZNK18QFileSystemWatcher10metaObjectEv
	_ZNK18QFileSystemWatcher11directoriesEv
	_ZNK18QFileSystemWatcher5filesEv
	_ZNK18QFutureWatcherBase10isCanceledEv
	_ZNK18QFutureWatcherBase10isFinishedEv
	_ZNK18QFutureWatcherBase10metaObjectEv
	_ZNK18QFutureWatcherBase12progressTextEv
	_ZNK18QFutureWatcherBase13progressValueEv
	_ZNK18QFutureWatcherBase15progressMaximumEv
	_ZNK18QFutureWatcherBase15progressMinimumEv
	_ZNK18QFutureWatcherBase8isPausedEv
	_ZNK18QFutureWatcherBase9isRunningEv
	_ZNK18QFutureWatcherBase9isStartedEv
	_ZNK18QMetaMethodBuilder10attributesEv
	_ZNK18QMetaMethodBuilder10methodTypeEv
	_ZNK18QMetaMethodBuilder10returnTypeEv
	_ZNK18QMetaMethodBuilder14parameterNamesEv
	_ZNK18QMetaMethodBuilder14parameterTypesEv
	_ZNK18QMetaMethodBuilder3tagEv
	_ZNK18QMetaMethodBuilder5indexEv
	_ZNK18QMetaMethodBuilder6accessEv
	_ZNK18QMetaMethodBuilder6d_funcEv
	_ZNK18QMetaMethodBuilder8revisionEv
	_ZNK18QMetaMethodBuilder9signatureEv
	_ZNK18QMetaObjectBuilder10enumeratorEi
	_ZNK18QMetaObjectBuilder10superClassEv
	_ZNK18QMetaObjectBuilder11constructorEi
	_ZNK18QMetaObjectBuilder11methodCountEv
	_ZNK18QMetaObjectBuilder12toMetaObjectEv
	_ZNK18QMetaObjectBuilder13classInfoNameEi
	_ZNK18QMetaObjectBuilder13propertyCountEv
	_ZNK18QMetaObjectBuilder14classInfoCountEv
	_ZNK18QMetaObjectBuilder14classInfoValueEi
	_ZNK18QMetaObjectBuilder15enumeratorCountEv
	_ZNK18QMetaObjectBuilder16constructorCountEv
	_ZNK18QMetaObjectBuilder17relatedMetaObjectEi
	_ZNK18QMetaObjectBuilder17toRelocatableDataEPb
	_ZNK18QMetaObjectBuilder22relatedMetaObjectCountEv
	_ZNK18QMetaObjectBuilder22staticMetacallFunctionEv
	_ZNK18QMetaObjectBuilder5flagsEv
	_ZNK18QMetaObjectBuilder6methodEi
	_ZNK18QMetaObjectBuilder8propertyEi
	_ZNK18QMetaObjectBuilder9classNameEv
	_ZNK18QMetaObjectBuilder9serializeER11QDataStream
	_ZNK18QPropertyAnimation10metaObjectEv
	_ZNK18QPropertyAnimation12propertyNameEv
	_ZNK18QPropertyAnimation12targetObjectEv
	_ZNK18QRegularExpression11errorStringEv
	_ZNK18QRegularExpression11globalMatchERK7QStringiNS_9MatchTypeE6QFlagsINS_11MatchOptionEE
	_ZNK18QRegularExpression12captureCountEv
	_ZNK18QRegularExpression14patternOptionsEv
	_ZNK18QRegularExpression18namedCaptureGroupsEv
	_ZNK18QRegularExpression18patternErrorOffsetEv
	_ZNK18QRegularExpression5matchERK7QStringiNS_9MatchTypeE6QFlagsINS_11MatchOptionEE
	_ZNK18QRegularExpression7isValidEv
	_ZNK18QRegularExpression7patternEv
	_ZNK18QRegularExpressioneqERKS_
	_ZNK18QThreadPoolPrivate17activeThreadCountEv
	_ZNK18QThreadPoolPrivate20tooManyThreadsActiveEv
	_ZNK18QThreadStorageData3getEv
	_ZNK18QWindowsPipeReader10metaObjectEv
	_ZNK18QWindowsPipeReader11canReadLineEv
	_ZNK18QWindowsPipeReader14bytesAvailableEv
	_ZNK18QWindowsPipeWriter10metaObjectEv
	_ZNK19QAbstractFileEngine11errorStringEv
	_ZNK19QAbstractFileEngine12isSequentialEv
	_ZNK19QAbstractFileEngine13caseSensitiveEv
	_ZNK19QAbstractFileEngine14isRelativePathEv
	_ZNK19QAbstractFileEngine17supportsExtensionENS_9ExtensionE
	_ZNK19QAbstractFileEngine3posEv
	_ZNK19QAbstractFileEngine4sizeEv
	_ZNK19QAbstractFileEngine5atEndEv
	_ZNK19QAbstractFileEngine5errorEv
	_ZNK19QAbstractFileEngine5mkdirERK7QStringb
	_ZNK19QAbstractFileEngine5ownerENS_9FileOwnerE
	_ZNK19QAbstractFileEngine5rmdirERK7QStringb
	_ZNK19QAbstractFileEngine6handleEv
	_ZNK19QAbstractFileEngine7ownerIdENS_9FileOwnerE
	_ZNK19QAbstractFileEngine8fileNameENS_8FileNameE
	_ZNK19QAbstractFileEngine8fileTimeENS_8FileTimeE
	_ZNK19QAbstractFileEngine9entryListE6QFlagsIN4QDir6FilterEERK11QStringList
	_ZNK19QAbstractFileEngine9fileFlagsE6QFlagsINS_8FileFlagEE
	_ZNK19QAbstractProxyModel10headerDataEiN2Qt11OrientationEi
	_ZNK19QAbstractProxyModel10metaObjectEv
	_ZNK19QAbstractProxyModel11hasChildrenERK11QModelIndex
	_ZNK19QAbstractProxyModel11sourceModelEv
	_ZNK19QAbstractProxyModel12canFetchMoreERK11QModelIndex
	_ZNK19QAbstractProxyModel20mapSelectionToSourceERK14QItemSelection
	_ZNK19QAbstractProxyModel20supportedDropActionsEv
	_ZNK19QAbstractProxyModel22mapSelectionFromSourceERK14QItemSelection
	_ZNK19QAbstractProxyModel4dataERK11QModelIndexi
	_ZNK19QAbstractProxyModel4spanERK11QModelIndex
	_ZNK19QAbstractProxyModel5buddyERK11QModelIndex
	_ZNK19QAbstractProxyModel5flagsERK11QModelIndex
	_ZNK19QAbstractProxyModel7siblingEiiRK11QModelIndex
	_ZNK19QAbstractProxyModel8itemDataERK11QModelIndex
	_ZNK19QAbstractProxyModel8mimeDataERK5QListI11QModelIndexE
	_ZNK19QAbstractProxyModel9mimeTypesEv
	_ZNK19QAbstractTableModel10metaObjectEv
	_ZNK19QAbstractTableModel11hasChildrenERK11QModelIndex
	_ZNK19QAbstractTableModel5flagsERK11QModelIndex
	_ZNK19QAbstractTableModel5indexEiiRK11QModelIndex
	_ZNK19QAbstractTableModel6parentERK11QModelIndex
	_ZNK19QAbstractTransition10animationsEv
	_ZNK19QAbstractTransition10metaObjectEv
	_ZNK19QAbstractTransition11sourceStateEv
	_ZNK19QAbstractTransition11targetStateEv
	_ZNK19QAbstractTransition12targetStatesEv
	_ZNK19QAbstractTransition7machineEv
	_ZNK19QIdentityProxyModel10headerDataEiN2Qt11OrientationEi
	_ZNK19QIdentityProxyModel10metaObjectEv
	_ZNK19QIdentityProxyModel11columnCountERK11QModelIndex
	_ZNK19QIdentityProxyModel11mapToSourceERK11QModelIndex
	_ZNK19QIdentityProxyModel13mapFromSourceERK11QModelIndex
	_ZNK19QIdentityProxyModel20mapSelectionToSourceERK14QItemSelection
	_ZNK19QIdentityProxyModel22mapSelectionFromSourceERK14QItemSelection
	_ZNK19QIdentityProxyModel5indexEiiRK11QModelIndex
	_ZNK19QIdentityProxyModel5matchERK11QModelIndexiRK8QVarianti6QFlagsIN2Qt9MatchFlagEE
	_ZNK19QIdentityProxyModel6parentERK11QModelIndex
	_ZNK19QIdentityProxyModel7siblingEiiRK11QModelIndex
	_ZNK19QIdentityProxyModel8rowCountERK11QModelIndex
	_ZNK19QItemSelectionModel10isSelectedERK11QModelIndex
	_ZNK19QItemSelectionModel10metaObjectEv
	_ZNK19QItemSelectionModel12currentIndexEv
	_ZNK19QItemSelectionModel12hasSelectionEv
	_ZNK19QItemSelectionModel12selectedRowsEi
	_ZNK19QItemSelectionModel13isRowSelectedEiRK11QModelIndex
	_ZNK19QItemSelectionModel15selectedColumnsEi
	_ZNK19QItemSelectionModel15selectedIndexesEv
	_ZNK19QItemSelectionModel16isColumnSelectedEiRK11QModelIndex
	_ZNK19QItemSelectionModel22rowIntersectsSelectionEiRK11QModelIndex
	_ZNK19QItemSelectionModel25columnIntersectsSelectionEiRK11QModelIndex
	_ZNK19QItemSelectionModel5modelEv
	_ZNK19QItemSelectionModel9selectionEv
	_ZNK19QItemSelectionRange10intersectsERKS_
	_ZNK19QItemSelectionRange11intersectedERKS_
	_ZNK19QItemSelectionRange7indexesEv
	_ZNK19QItemSelectionRange7isEmptyEv
	_ZNK19QItemSelectionRange7isValidEv
	_ZNK19QProcessEnvironment12toStringListEv
	_ZNK19QProcessEnvironment4keysEv
	_ZNK19QProcessEnvironment5valueERK7QStringS2_
	_ZNK19QProcessEnvironment7isEmptyEv
	_ZNK19QProcessEnvironment8containsERK7QString
	_ZNK19QProcessEnvironmenteqERKS_
	_ZNK19QSequentialIterable14const_iteratordeEv
	_ZNK19QSequentialIterable14const_iteratoreqERKS0_
	_ZNK19QSequentialIterable14const_iteratormiEi
	_ZNK19QSequentialIterable14const_iteratorneERKS0_
	_ZNK19QSequentialIterable14const_iteratorplEi
	_ZNK19QSequentialIterable17canReverseIterateEv
	_ZNK19QSequentialIterable2atEi
	_ZNK19QSequentialIterable3endEv
	_ZNK19QSequentialIterable4sizeEv
	_ZNK19QSequentialIterable5beginEv
	_ZNK19QTextBoundaryFinder12isAtBoundaryEv
	_ZNK19QTextBoundaryFinder15boundaryReasonsEv
	_ZNK19QTextBoundaryFinder6stringEv
	_ZNK19QTextBoundaryFinder8positionEv
	_ZNK19QUnhandledException5cloneEv
	_ZNK19QUnhandledException5raiseEv
	_ZNK20QAssociativeIterable14const_iterator3keyEv
	_ZNK20QAssociativeIterable14const_iterator5valueEv
	_ZNK20QAssociativeIterable14const_iteratordeEv
	_ZNK20QAssociativeIterable14const_iteratoreqERKS0_
	_ZNK20QAssociativeIterable14const_iteratormiEi
	_ZNK20QAssociativeIterable14const_iteratorneERKS0_
	_ZNK20QAssociativeIterable14const_iteratorplEi
	_ZNK20QAssociativeIterable3endEv
	_ZNK20QAssociativeIterable4sizeEv
	_ZNK20QAssociativeIterable5beginEv
	_ZNK20QAssociativeIterable5valueERK8QVariant
	_ZNK20QFileSelectorPrivate6selectERK7QString
	_ZNK20QFutureInterfaceBase10isCanceledEv
	_ZNK20QFutureInterfaceBase10isFinishedEv
	_ZNK20QFutureInterfaceBase10queryStateENS_5StateE
	_ZNK20QFutureInterfaceBase11isThrottledEv
	_ZNK20QFutureInterfaceBase11resultCountEv
	_ZNK20QFutureInterfaceBase12progressTextEv
	_ZNK20QFutureInterfaceBase13progressValueEv
	_ZNK20QFutureInterfaceBase15isResultReadyAtEi
	_ZNK20QFutureInterfaceBase15progressMaximumEv
	_ZNK20QFutureInterfaceBase15progressMinimumEv
	_ZNK20QFutureInterfaceBase15resultStoreBaseEv
	_ZNK20QFutureInterfaceBase22isProgressUpdateNeededEv
	_ZNK20QFutureInterfaceBase4refTEv
	_ZNK20QFutureInterfaceBase5mutexEv
	_ZNK20QFutureInterfaceBase6derefTEv
	_ZNK20QFutureInterfaceBase8isPausedEv
	_ZNK20QFutureInterfaceBase9isRunningEv
	_ZNK20QFutureInterfaceBase9isStartedEv
	_ZNK20QMetaPropertyBuilder10isConstantEv
	_ZNK20QMetaPropertyBuilder10isEditableEv
	_ZNK20QMetaPropertyBuilder10isReadableEv
	_ZNK20QMetaPropertyBuilder10isWritableEv
	_ZNK20QMetaPropertyBuilder12hasStdCppSetEv
	_ZNK20QMetaPropertyBuilder12isDesignableEv
	_ZNK20QMetaPropertyBuilder12isEnumOrFlagEv
	_ZNK20QMetaPropertyBuilder12isResettableEv
	_ZNK20QMetaPropertyBuilder12isScriptableEv
	_ZNK20QMetaPropertyBuilder12notifySignalEv
	_ZNK20QMetaPropertyBuilder15hasNotifySignalEv
	_ZNK20QMetaPropertyBuilder4nameEv
	_ZNK20QMetaPropertyBuilder4typeEv
	_ZNK20QMetaPropertyBuilder6d_funcEv
	_ZNK20QMetaPropertyBuilder6isUserEv
	_ZNK20QMetaPropertyBuilder7isFinalEv
	_ZNK20QMetaPropertyBuilder8isStoredEv
	_ZNK20QMetaPropertyBuilder8revisionEv
	_ZNK20QStateMachinePrivate10isCompoundEPK14QAbstractState
	_ZNK20QStateMachinePrivate11isPreemptedEPK14QAbstractStateRK4QSetIP19QAbstractTransitionE
	_ZNK20QStateMachinePrivate13hasRestorableEP14QAbstractStateP7QObjectRK10QByteArray
	_ZNK20QStateMachinePrivate14isInFinalStateEP14QAbstractState
	_ZNK20QStateMachinePrivate16selectAnimationsERK5QListIP19QAbstractTransitionE
	_ZNK20QStateMachinePrivate17selectTransitionsEP6QEvent
	_ZNK20QStateMachinePrivate23createInitialTransitionEv
	_ZNK20QStateMachinePrivate23savedValueForRestorableERK5QListIP14QAbstractStateEP7QObjectRK10QByteArray
	_ZNK20QStateMachinePrivate25computePendingRestorablesERK5QListIP14QAbstractStateE
	_ZNK20QStateMachinePrivate25restorablesToPropertyListERK5QHashI5QPairI8QPointerI7QObjectE10QByteArrayE8QVariantE
	_ZNK20QStateMachinePrivate26computePropertyAssignmentsERK5QListIP14QAbstractStateER5QHashI5QPairI8QPointerI7QObjectE10QByteArrayE8QVariantE
	_ZNK20QStateMachinePrivate7findLCAERK5QListIP14QAbstractStateE
	_ZNK20QStateMachinePrivate8isAtomicEPK14QAbstractState
	_ZNK20QStateMachinePrivate9rootStateEv
	_ZNK20QXmlStreamAttributes5valueE13QLatin1String
	_ZNK20QXmlStreamAttributes5valueE13QLatin1StringS0_
	_ZNK20QXmlStreamAttributes5valueERK7QString
	_ZNK20QXmlStreamAttributes5valueERK7QString13QLatin1String
	_ZNK20QXmlStreamAttributes5valueERK7QStringS2_
	_ZNK21QEventDispatcherWin3210metaObjectEv
	_ZNK21QEventDispatcherWin3216registeredTimersEP7QObject
	_ZNK21QObjectCleanupHandler10metaObjectEv
	_ZNK21QObjectCleanupHandler7isEmptyEv
	_ZNK21QPersistentModelIndex10internalIdEv
	_ZNK21QPersistentModelIndex15internalPointerEv
	_ZNK21QPersistentModelIndex3rowEv
	_ZNK21QPersistentModelIndex4dataEi
	_ZNK21QPersistentModelIndex5childEii
	_ZNK21QPersistentModelIndex5flagsEv
	_ZNK21QPersistentModelIndex5modelEv
	_ZNK21QPersistentModelIndex6columnEv
	_ZNK21QPersistentModelIndex6parentEv
	_ZNK21QPersistentModelIndex7isValidEv
	_ZNK21QPersistentModelIndex7siblingEii
	_ZNK21QPersistentModelIndexcvRK11QModelIndexEv
	_ZNK21QPersistentModelIndexeqERK11QModelIndex
	_ZNK21QPersistentModelIndexeqERKS_
	_ZNK21QPersistentModelIndexltERKS_
	_ZNK21QPersistentModelIndexneERK11QModelIndex
	_ZNK21QSortFilterProxyModel10filterRoleEv
	_ZNK21QSortFilterProxyModel10headerDataEiN2Qt11OrientationEi
	_ZNK21QSortFilterProxyModel10metaObjectEv
	_ZNK21QSortFilterProxyModel10sortColumnEv
	_ZNK21QSortFilterProxyModel11columnCountERK11QModelIndex
	_ZNK21QSortFilterProxyModel11hasChildrenERK11QModelIndex
	_ZNK21QSortFilterProxyModel11mapToSourceERK11QModelIndex
	_ZNK21QSortFilterProxyModel12canFetchMoreERK11QModelIndex
	_ZNK21QSortFilterProxyModel12filterRegExpEv
	_ZNK21QSortFilterProxyModel13mapFromSourceERK11QModelIndex
	_ZNK21QSortFilterProxyModel15filterKeyColumnEv
	_ZNK21QSortFilterProxyModel16filterAcceptsRowEiRK11QModelIndex
	_ZNK21QSortFilterProxyModel17dynamicSortFilterEv
	_ZNK21QSortFilterProxyModel17isSortLocaleAwareEv
	_ZNK21QSortFilterProxyModel19filterAcceptsColumnEiRK11QModelIndex
	_ZNK21QSortFilterProxyModel19sortCaseSensitivityEv
	_ZNK21QSortFilterProxyModel20mapSelectionToSourceERK14QItemSelection
	_ZNK21QSortFilterProxyModel20supportedDropActionsEv
	_ZNK21QSortFilterProxyModel21filterCaseSensitivityEv
	_ZNK21QSortFilterProxyModel22mapSelectionFromSourceERK14QItemSelection
	_ZNK21QSortFilterProxyModel4dataERK11QModelIndexi
	_ZNK21QSortFilterProxyModel4spanERK11QModelIndex
	_ZNK21QSortFilterProxyModel5buddyERK11QModelIndex
	_ZNK21QSortFilterProxyModel5flagsERK11QModelIndex
	_ZNK21QSortFilterProxyModel5indexEiiRK11QModelIndex
	_ZNK21QSortFilterProxyModel5matchERK11QModelIndexiRK8QVarianti6QFlagsIN2Qt9MatchFlagEE
	_ZNK21QSortFilterProxyModel6parentERK11QModelIndex
	_ZNK21QSortFilterProxyModel7siblingEiiRK11QModelIndex
	_ZNK21QSortFilterProxyModel8lessThanERK11QModelIndexS2_
	_ZNK21QSortFilterProxyModel8mimeDataERK5QListI11QModelIndexE
	_ZNK21QSortFilterProxyModel8rowCountERK11QModelIndex
	_ZNK21QSortFilterProxyModel8sortRoleEv
	_ZNK21QSortFilterProxyModel9mimeTypesEv
	_ZNK21QSortFilterProxyModel9sortOrderEv
	_ZNK23QAbstractAnimationTimer10metaObjectEv
	_ZNK23QCoreApplicationPrivate7appNameEv
	_ZNK23QParallelAnimationGroup10metaObjectEv
	_ZNK23QParallelAnimationGroup8durationEv
	_ZNK23QRegularExpressionMatch11capturedEndERK7QString
	_ZNK23QRegularExpressionMatch11capturedEndEi
	_ZNK23QRegularExpressionMatch11capturedRefERK7QString
	_ZNK23QRegularExpressionMatch11capturedRefEi
	_ZNK23QRegularExpressionMatch12matchOptionsEv
	_ZNK23QRegularExpressionMatch13capturedStartERK7QString
	_ZNK23QRegularExpressionMatch13capturedStartEi
	_ZNK23QRegularExpressionMatch13capturedTextsEv
	_ZNK23QRegularExpressionMatch14capturedLengthERK7QString
	_ZNK23QRegularExpressionMatch14capturedLengthEi
	_ZNK23QRegularExpressionMatch15hasPartialMatchEv
	_ZNK23QRegularExpressionMatch17lastCapturedIndexEv
	_ZNK23QRegularExpressionMatch17regularExpressionEv
	_ZNK23QRegularExpressionMatch7isValidEv
	_ZNK23QRegularExpressionMatch8capturedERK7QString
	_ZNK23QRegularExpressionMatch8capturedEi
	_ZNK23QRegularExpressionMatch8hasMatchEv
	_ZNK23QRegularExpressionMatch9matchTypeEv
	_ZNK24QAbstractEventDispatcher10metaObjectEv
	_ZNK24QNonContiguousByteDevice10metaObjectEv
	_ZNK24QWinOverlappedIoNotifier10metaObjectEv
	_ZNK24QWinOverlappedIoNotifier6handleEv
	_ZNK25QSequentialAnimationGroup10metaObjectEv
	_ZNK25QSequentialAnimationGroup16currentAnimationEv
	_ZNK25QSequentialAnimationGroup8durationEv
	_ZNK26QAbstractTransitionPrivate11sourceStateEv
	_ZNK26QAbstractTransitionPrivate7machineEv
	_ZNK26QMessageAuthenticationCode6resultEv
	_ZNK27QAbstractFileEngineIterator11nameFiltersEv
	_ZNK27QAbstractFileEngineIterator15currentFileInfoEv
	_ZNK27QAbstractFileEngineIterator15currentFilePathEv
	_ZNK27QAbstractFileEngineIterator4pathEv
	_ZNK27QAbstractFileEngineIterator7filtersEv
	_ZNK27QAbstractFileEngineIterator9entryInfoENS_13EntryInfoTypeE
	_ZNK31QRegularExpressionMatchIterator12matchOptionsEv
	_ZNK31QRegularExpressionMatchIterator17regularExpressionEv
	_ZNK31QRegularExpressionMatchIterator7hasNextEv
	_ZNK31QRegularExpressionMatchIterator7isValidEv
	_ZNK31QRegularExpressionMatchIterator8peekNextEv
	_ZNK31QRegularExpressionMatchIterator9matchTypeEv
	_ZNK4QDir10isReadableEv
	_ZNK4QDir10isRelativeEv
	_ZNK4QDir11nameFiltersEv
	_ZNK4QDir12absolutePathEv
	_ZNK4QDir13canonicalPathEv
	_ZNK4QDir13entryInfoListE6QFlagsINS_6FilterEES0_INS_8SortFlagEE
	_ZNK4QDir13entryInfoListERK11QStringList6QFlagsINS_6FilterEES3_INS_8SortFlagEE
	_ZNK4QDir16absoluteFilePathERK7QString
	_ZNK4QDir16relativeFilePathERK7QString
	_ZNK4QDir4pathEv
	_ZNK4QDir5countEv
	_ZNK4QDir5mkdirERK7QString
	_ZNK4QDir5rmdirERK7QString
	_ZNK4QDir6existsERK7QString
	_ZNK4QDir6existsEv
	_ZNK4QDir6filterEv
	_ZNK4QDir6isRootEv
	_ZNK4QDir6mkpathERK7QString
	_ZNK4QDir6rmpathERK7QString
	_ZNK4QDir7dirNameEv
	_ZNK4QDir7refreshEv
	_ZNK4QDir7sortingEv
	_ZNK4QDir8filePathERK7QString
	_ZNK4QDir9entryListE6QFlagsINS_6FilterEES0_INS_8SortFlagEE
	_ZNK4QDir9entryListERK11QStringList6QFlagsINS_6FilterEES3_INS_8SortFlagEE
	_ZNK4QDireqERKS_
	_ZNK4QDirixEi
	_ZNK4QUrl10isDetachedEv
	_ZNK4QUrl10isParentOfERKS_
	_ZNK4QUrl10isRelativeEv
	_ZNK4QUrl11errorStringEv
	_ZNK4QUrl11hasFragmentEv
	_ZNK4QUrl11isLocalFileEv
	_ZNK4QUrl11toLocalFileEv
	_ZNK4QUrl14topLevelDomainE6QFlagsINS_25ComponentFormattingOptionEE
	_ZNK4QUrl15toDisplayStringE12QUrlTwoFlagsINS_19UrlFormattingOptionENS_25ComponentFormattingOptionEE
	_ZNK4QUrl3urlE12QUrlTwoFlagsINS_19UrlFormattingOptionENS_25ComponentFormattingOptionEE
	_ZNK4QUrl4hostE6QFlagsINS_25ComponentFormattingOptionEE
	_ZNK4QUrl4pathE6QFlagsINS_25ComponentFormattingOptionEE
	_ZNK4QUrl4portEi
	_ZNK4QUrl5queryE6QFlagsINS_25ComponentFormattingOptionEE
	_ZNK4QUrl6schemeEv
	_ZNK4QUrl7isEmptyEv
	_ZNK4QUrl7isValidEv
	_ZNK4QUrl7matchesERKS_12QUrlTwoFlagsINS_19UrlFormattingOptionENS_25ComponentFormattingOptionEE
	_ZNK4QUrl8adjustedE12QUrlTwoFlagsINS_19UrlFormattingOptionENS_25ComponentFormattingOptionEE
	_ZNK4QUrl8fileNameE6QFlagsINS_25ComponentFormattingOptionEE
	_ZNK4QUrl8fragmentE6QFlagsINS_25ComponentFormattingOptionEE
	_ZNK4QUrl8hasQueryEv
	_ZNK4QUrl8passwordE6QFlagsINS_25ComponentFormattingOptionEE
	_ZNK4QUrl8resolvedERKS_
	_ZNK4QUrl8toStringE12QUrlTwoFlagsINS_19UrlFormattingOptionENS_25ComponentFormattingOptionEE
	_ZNK4QUrl8userInfoE6QFlagsINS_25ComponentFormattingOptionEE
	_ZNK4QUrl8userNameE6QFlagsINS_25ComponentFormattingOptionEE
	_ZNK4QUrl9authorityE6QFlagsINS_25ComponentFormattingOptionEE
	_ZNK4QUrl9toEncodedE12QUrlTwoFlagsINS_19UrlFormattingOptionENS_25ComponentFormattingOptionEE
	_ZNK4QUrleqERKS_
	_ZNK4QUrlltERKS_
	_ZNK4QUrlneERKS_
	_ZNK5QChar13decompositionEv
	_ZNK5QDate10daysInYearEv
	_ZNK5QDate10weekNumberEPi
	_ZNK5QDate11daysInMonthEv
	_ZNK5QDate3dayEv
	_ZNK5QDate4yearEv
	_ZNK5QDate5monthEv
	_ZNK5QDate6daysToERKS_
	_ZNK5QDate7addDaysEx
	_ZNK5QDate8addYearsEi
	_ZNK5QDate8toStringEN2Qt10DateFormatE
	_ZNK5QDate8toStringERK7QString
	_ZNK5QDate9addMonthsEi
	_ZNK5QDate9dayOfWeekEv
	_ZNK5QDate9dayOfYearEv
	_ZNK5QFile10metaObjectEv
	_ZNK5QFile11permissionsEv
	_ZNK5QFile4sizeEv
	_ZNK5QFile6existsEv
	_ZNK5QFile8fileNameEv
	_ZNK5QFile8readLinkEv
	_ZNK5QRect10intersectsERKS_
	_ZNK5QRect10normalizedEv
	_ZNK5QRect8containsERK6QPointb
	_ZNK5QRect8containsERKS_b
	_ZNK5QRectanERKS_
	_ZNK5QRectorERKS_
	_ZNK5QSize6scaledERKS_N2Qt15AspectRatioModeE
	_ZNK5QTime4hourEv
	_ZNK5QTime4msecEv
	_ZNK5QTime6minuteEv
	_ZNK5QTime6secondEv
	_ZNK5QTime6secsToERKS_
	_ZNK5QTime7addSecsEi
	_ZNK5QTime7elapsedEv
	_ZNK5QTime7isValidEv
	_ZNK5QTime7msecsToERKS_
	_ZNK5QTime8addMSecsEi
	_ZNK5QTime8toStringEN2Qt10DateFormatE
	_ZNK5QTime8toStringERK7QString
	_ZNK5QUuid11toByteArrayEv
	_ZNK5QUuid6isNullEv
	_ZNK5QUuid7variantEv
	_ZNK5QUuid7versionEv
	_ZNK5QUuid8toStringEv
	_ZNK5QUuid9toRfc4122Ev
	_ZNK5QUuidgtERKS_
	_ZNK5QUuidltERKS_
	_ZNK6QLineF10unitVectorEv
	_ZNK6QLineF5angleERKS_
	_ZNK6QLineF5angleEv
	_ZNK6QLineF6isNullEv
	_ZNK6QLineF6lengthEv
	_ZNK6QLineF7angleToERKS_
	_ZNK6QLineF9intersectERKS_P7QPointF
	_ZNK6QRectF10intersectsERKS_
	_ZNK6QRectF10normalizedEv
	_ZNK6QRectF13toAlignedRectEv
	_ZNK6QRectF6toRectEv
	_ZNK6QRectF8containsERK7QPointF
	_ZNK6QRectF8containsERKS_
	_ZNK6QRectFanERKS_
	_ZNK6QRectForERKS_
	_ZNK6QSizeF6scaledERKS_N2Qt15AspectRatioModeE
	_ZNK6QState10errorStateEv
	_ZNK6QState10metaObjectEv
	_ZNK6QState11transitionsEv
	_ZNK6QState12initialStateEv
	_ZNK6QState9childModeEv
	_ZNK6QTimer10metaObjectEv
	_ZNK6QTimer13remainingTimeEv
	_ZNK7QBuffer10metaObjectEv
	_ZNK7QBuffer11canReadLineEv
	_ZNK7QBuffer3posEv
	_ZNK7QBuffer4dataEv
	_ZNK7QBuffer4sizeEv
	_ZNK7QBuffer5atEndEv
	_ZNK7QBuffer6bufferEv
	_ZNK7QLocale10dateFormatENS_10FormatTypeE
	_ZNK7QLocale10timeFormatENS_10FormatTypeE
	_ZNK7QLocale10toDateTimeERK7QStringNS_10FormatTypeE
	_ZNK7QLocale10toDateTimeERK7QStringS2_
	_ZNK7QLocale10toLongLongERK10QStringRefPb
	_ZNK7QLocale10toLongLongERK7QStringPb
	_ZNK7QLocale11exponentialEv
	_ZNK7QLocale11quoteStringERK10QStringRefNS_14QuotationStyleE
	_ZNK7QLocale11quoteStringERK7QStringNS_14QuotationStyleE
	_ZNK7QLocale11toULongLongERK10QStringRefPb
	_ZNK7QLocale11toULongLongERK7QStringPb
	_ZNK7QLocale11uiLanguagesEv
	_ZNK7QLocale12decimalPointEv
	_ZNK7QLocale12negativeSignEv
	_ZNK7QLocale12positiveSignEv
	_ZNK7QLocale13numberOptionsEv
	_ZNK7QLocale13textDirectionEv
	_ZNK7QLocale14currencySymbolENS_20CurrencySymbolFormatE
	_ZNK7QLocale14dateTimeFormatENS_10FormatTypeE
	_ZNK7QLocale14firstDayOfWeekEv
	_ZNK7QLocale14groupSeparatorEv
	_ZNK7QLocale16toCurrencyStringEdRK7QString
	_ZNK7QLocale16toCurrencyStringExRK7QString
	_ZNK7QLocale16toCurrencyStringEyRK7QString
	_ZNK7QLocale17measurementSystemEv
	_ZNK7QLocale17nativeCountryNameEv
	_ZNK7QLocale17standaloneDayNameEiNS_10FormatTypeE
	_ZNK7QLocale18nativeLanguageNameEv
	_ZNK7QLocale19createSeparatedListERK11QStringList
	_ZNK7QLocale19standaloneMonthNameEiNS_10FormatTypeE
	_ZNK7QLocale4nameEv
	_ZNK7QLocale5toIntERK10QStringRefPb
	_ZNK7QLocale5toIntERK7QStringPb
	_ZNK7QLocale6amTextEv
	_ZNK7QLocale6pmTextEv
	_ZNK7QLocale6scriptEv
	_ZNK7QLocale6toDateERK7QStringNS_10FormatTypeE
	_ZNK7QLocale6toDateERK7QStringS2_
	_ZNK7QLocale6toTimeERK7QStringNS_10FormatTypeE
	_ZNK7QLocale6toTimeERK7QStringS2_
	_ZNK7QLocale6toUIntERK10QStringRefPb
	_ZNK7QLocale6toUIntERK7QStringPb
	_ZNK7QLocale7countryEv
	_ZNK7QLocale7dayNameEiNS_10FormatTypeE
	_ZNK7QLocale7percentEv
	_ZNK7QLocale7toFloatERK10QStringRefPb
	_ZNK7QLocale7toFloatERK7QStringPb
	_ZNK7QLocale7toLowerERK7QString
	_ZNK7QLocale7toShortERK10QStringRefPb
	_ZNK7QLocale7toShortERK7QStringPb
	_ZNK7QLocale7toUpperERK7QString
	_ZNK7QLocale8languageEv
	_ZNK7QLocale8toDoubleERK10QStringRefPb
	_ZNK7QLocale8toDoubleERK7QStringPb
	_ZNK7QLocale8toStringERK5QDateNS_10FormatTypeE
	_ZNK7QLocale8toStringERK5QDateRK7QString
	_ZNK7QLocale8toStringERK5QTimeNS_10FormatTypeE
	_ZNK7QLocale8toStringERK5QTimeRK7QString
	_ZNK7QLocale8toStringERK9QDateTimeNS_10FormatTypeE
	_ZNK7QLocale8toStringERK9QDateTimeRK7QString
	_ZNK7QLocale8toStringEdci
	_ZNK7QLocale8toStringEx
	_ZNK7QLocale8toStringEy
	_ZNK7QLocale8toUShortERK10QStringRefPb
	_ZNK7QLocale8toUShortERK7QStringPb
	_ZNK7QLocale8weekdaysEv
	_ZNK7QLocale9bcp47NameEv
	_ZNK7QLocale9monthNameEiNS_10FormatTypeE
	_ZNK7QLocale9zeroDigitEv
	_ZNK7QLocaleeqERKS_
	_ZNK7QLocaleneERKS_
	_ZNK7QObject10metaObjectEv
	_ZNK7QObject10objectNameEv
	_ZNK7QObject17isSignalConnectedERK11QMetaMethod
	_ZNK7QObject17senderSignalIndexEv
	_ZNK7QObject20dynamicPropertyNamesEv
	_ZNK7QObject6senderEv
	_ZNK7QObject6threadEv
	_ZNK7QObject8propertyEPKc
	_ZNK7QObject8userDataEj
	_ZNK7QObject9receiversEPKc
	_ZNK7QRegExp10exactMatchERK7QString
	_ZNK7QRegExp11errorStringEv
	_ZNK7QRegExp11lastIndexInERK7QStringiNS_9CaretModeE
	_ZNK7QRegExp12captureCountEv
	_ZNK7QRegExp13capturedTextsEv
	_ZNK7QRegExp13matchedLengthEv
	_ZNK7QRegExp13patternSyntaxEv
	_ZNK7QRegExp15caseSensitivityEv
	_ZNK7QRegExp3capEi
	_ZNK7QRegExp3posEi
	_ZNK7QRegExp7indexInERK7QStringiNS_9CaretModeE
	_ZNK7QRegExp7isEmptyEv
	_ZNK7QRegExp7isValidEv
	_ZNK7QRegExp7patternEv
	_ZNK7QRegExp9isMinimalEv
	_ZNK7QRegExpeqERKS_
	_ZNK7QString10normalizedENS_17NormalizationFormEN5QChar14UnicodeVersionE
	_ZNK7QString10simplifiedEv
	_ZNK7QString10startsWithE13QLatin1StringN2Qt15CaseSensitivityE
	_ZNK7QString10startsWithE5QCharN2Qt15CaseSensitivityE
	_ZNK7QString10startsWithERK10QStringRefN2Qt15CaseSensitivityE
	_ZNK7QString10startsWithERKS_N2Qt15CaseSensitivityE
	_ZNK7QString10toLongLongEPbi
	_ZNK7QString11lastIndexOfE13QLatin1StringiN2Qt15CaseSensitivityE
	_ZNK7QString11lastIndexOfE5QChariN2Qt15CaseSensitivityE
	_ZNK7QString11lastIndexOfER7QRegExpi
	_ZNK7QString11lastIndexOfERK10QStringRefiN2Qt15CaseSensitivityE
	_ZNK7QString11lastIndexOfERK18QRegularExpressioni
	_ZNK7QString11lastIndexOfERK7QRegExpi
	_ZNK7QString11lastIndexOfERKS_iN2Qt15CaseSensitivityE
	_ZNK7QString11toLocal8BitEv
	_ZNK7QString11toULongLongEPbi
	_ZNK7QString12isSimpleTextEv
	_ZNK7QString12toCaseFoldedEv
	_ZNK7QString13isRightToLeftEv
	_ZNK7QString13leftJustifiedEi5QCharb
	_ZNK7QString13toHtmlEscapedEv
	_ZNK7QString14rightJustifiedEi5QCharb
	_ZNK7QString18localeAwareCompareERKS_
	_ZNK7QString3argE5QChariS0_
	_ZNK7QString3argERKS_i5QChar
	_ZNK7QString3argEci5QChar
	_ZNK7QString3argEdici5QChar
	_ZNK7QString3argExii5QChar
	_ZNK7QString3argEyii5QChar
	_ZNK7QString3midEii
	_ZNK7QString4leftEi
	_ZNK7QString5countE5QCharN2Qt15CaseSensitivityE
	_ZNK7QString5countERK10QStringRefN2Qt15CaseSensitivityE
	_ZNK7QString5countERK18QRegularExpression
	_ZNK7QString5countERK7QRegExp
	_ZNK7QString5countERKS_N2Qt15CaseSensitivityE
	_ZNK7QString5rightEi
	_ZNK7QString5splitE5QCharNS_13SplitBehaviorEN2Qt15CaseSensitivityE
	_ZNK7QString5splitERK18QRegularExpressionNS_13SplitBehaviorE
	_ZNK7QString5splitERK7QRegExpNS_13SplitBehaviorE
	_ZNK7QString5splitERKS_NS_13SplitBehaviorEN2Qt15CaseSensitivityE
	_ZNK7QString5toIntEPbi
	_ZNK7QString5utf16Ev
	_ZNK7QString6midRefEii
	_ZNK7QString6toLongEPbi
	_ZNK7QString6toUIntEPbi
	_ZNK7QString6toUcs4Ev
	_ZNK7QString6toUtf8Ev
	_ZNK7QString7compareE13QLatin1StringN2Qt15CaseSensitivityE
	_ZNK7QString7compareERKS_N2Qt15CaseSensitivityE
	_ZNK7QString7indexOfE13QLatin1StringiN2Qt15CaseSensitivityE
	_ZNK7QString7indexOfE5QChariN2Qt15CaseSensitivityE
	_ZNK7QString7indexOfER7QRegExpi
	_ZNK7QString7indexOfERK10QStringRefiN2Qt15CaseSensitivityE
	_ZNK7QString7indexOfERK18QRegularExpressioni
	_ZNK7QString7indexOfERK7QRegExpi
	_ZNK7QString7indexOfERKS_iN2Qt15CaseSensitivityE
	_ZNK7QString7leftRefEi
	_ZNK7QString7sectionERK18QRegularExpressionii6QFlagsINS_11SectionFlagEE
	_ZNK7QString7sectionERK7QRegExpii6QFlagsINS_11SectionFlagEE
	_ZNK7QString7sectionERKS_ii6QFlagsINS_11SectionFlagEE
	_ZNK7QString7toFloatEPb
	_ZNK7QString7toLowerEv
	_ZNK7QString7toShortEPbi
	_ZNK7QString7toULongEPbi
	_ZNK7QString7toUpperEv
	_ZNK7QString7trimmedEv
	_ZNK7QString8containsERK18QRegularExpression
	_ZNK7QString8containsERK18QRegularExpressionP23QRegularExpressionMatch
	_ZNK7QString8endsWithE13QLatin1StringN2Qt15CaseSensitivityE
	_ZNK7QString8endsWithE5QCharN2Qt15CaseSensitivityE
	_ZNK7QString8endsWithERK10QStringRefN2Qt15CaseSensitivityE
	_ZNK7QString8endsWithERKS_N2Qt15CaseSensitivityE
	_ZNK7QString8multiArgEiPPKS_
	_ZNK7QString8repeatedEi
	_ZNK7QString8rightRefEi
	_ZNK7QString8toDoubleEPb
	_ZNK7QString8toLatin1Ev
	_ZNK7QString8toUShortEPbi
	_ZNK7QStringeqE13QLatin1String
	_ZNK7QStringgtE13QLatin1String
	_ZNK7QStringltE13QLatin1String
	_ZNK7QThread10isFinishedEv
	_ZNK7QThread10metaObjectEv
	_ZNK7QThread15eventDispatcherEv
	_ZNK7QThread23isInterruptionRequestedEv
	_ZNK7QThread8priorityEv
	_ZNK7QThread9isRunningEv
	_ZNK7QThread9stackSizeEv
	_ZNK8QLibrary10metaObjectEv
	_ZNK8QLibrary11errorStringEv
	_ZNK8QLibrary8fileNameEv
	_ZNK8QLibrary8isLoadedEv
	_ZNK8QLibrary9loadHintsEv
	_ZNK8QProcess10exitStatusEv
	_ZNK8QProcess10metaObjectEv
	_ZNK8QProcess11canReadLineEv
	_ZNK8QProcess11environmentEv
	_ZNK8QProcess11readChannelEv
	_ZNK8QProcess12bytesToWriteEv
	_ZNK8QProcess12isSequentialEv
	_ZNK8QProcess14bytesAvailableEv
	_ZNK8QProcess15nativeArgumentsEv
	_ZNK8QProcess15readChannelModeEv
	_ZNK8QProcess16inputChannelModeEv
	_ZNK8QProcess16workingDirectoryEv
	_ZNK8QProcess18processChannelModeEv
	_ZNK8QProcess18processEnvironmentEv
	_ZNK8QProcess3pidEv
	_ZNK8QProcess5atEndEv
	_ZNK8QProcess5errorEv
	_ZNK8QProcess5stateEv
	_ZNK8QProcess7programEv
	_ZNK8QProcess8exitCodeEv
	_ZNK8QProcess9argumentsEv
	_ZNK8QProcess9processIdEv
	_ZNK8QVariant10canConvertEi
	_ZNK8QVariant10toBitArrayEv
	_ZNK8QVariant10toDateTimeEv
	_ZNK8QVariant10toLongLongEPb
	_ZNK8QVariant11toByteArrayEv
	_ZNK8QVariant11toJsonArrayEv
	_ZNK8QVariant11toJsonValueEv
	_ZNK8QVariant11toULongLongEPb
	_ZNK8QVariant12toJsonObjectEv
	_ZNK8QVariant12toModelIndexEv
	_ZNK8QVariant12toStringListEv
	_ZNK8QVariant13toEasingCurveEv
	_ZNK8QVariant14toJsonDocumentEv
	_ZNK8QVariant19toRegularExpressionEv
	_ZNK8QVariant3cmpERKS_
	_ZNK8QVariant4saveER11QDataStream
	_ZNK8QVariant4typeEv
	_ZNK8QVariant5toIntEPb
	_ZNK8QVariant5toMapEv
	_ZNK8QVariant5toUrlEv
	_ZNK8QVariant6isNullEv
	_ZNK8QVariant6toBoolEv
	_ZNK8QVariant6toCharEv
	_ZNK8QVariant6toDateEv
	_ZNK8QVariant6toHashEv
	_ZNK8QVariant6toLineEv
	_ZNK8QVariant6toListEv
	_ZNK8QVariant6toRealEPb
	_ZNK8QVariant6toRectEv
	_ZNK8QVariant6toSizeEv
	_ZNK8QVariant6toTimeEv
	_ZNK8QVariant6toUIntEPb
	_ZNK8QVariant6toUuidEv
	_ZNK8QVariant7compareERKS_
	_ZNK8QVariant7convertEiPv
	_ZNK8QVariant7toFloatEPb
	_ZNK8QVariant7toLineFEv
	_ZNK8QVariant7toPointEv
	_ZNK8QVariant7toRectFEv
	_ZNK8QVariant7toSizeFEv
	_ZNK8QVariant8toDoubleEPb
	_ZNK8QVariant8toLocaleEv
	_ZNK8QVariant8toPointFEv
	_ZNK8QVariant8toRegExpEv
	_ZNK8QVariant8toStringEv
	_ZNK8QVariant8typeNameEv
	_ZNK8QVariant8userTypeEv
	_ZNK8QVariant9constDataEv
	_ZNK9QBitArray5countEb
	_ZNK9QBitArraycoEv
	_ZNK9QCollator11numericModeEv
	_ZNK9QCollator15caseSensitivityEv
	_ZNK9QCollator17ignorePunctuationEv
	_ZNK9QCollator6localeEv
	_ZNK9QCollator7compareEPK5QChariS2_i
	_ZNK9QCollator7compareERK10QStringRefS2_
	_ZNK9QCollator7compareERK7QStringS2_
	_ZNK9QCollator7sortKeyERK7QString
	_ZNK9QDateTime10toTimeSpecEN2Qt8TimeSpecE
	_ZNK9QDateTime10toTimeZoneERK9QTimeZone
	_ZNK9QDateTime13offsetFromUtcEv
	_ZNK9QDateTime14isDaylightTimeEv
	_ZNK9QDateTime15toOffsetFromUtcEi
	_ZNK9QDateTime17toMSecsSinceEpochEv
	_ZNK9QDateTime20timeZoneAbbreviationEv
	_ZNK9QDateTime4dateEv
	_ZNK9QDateTime4timeEv
	_ZNK9QDateTime6daysToERKS_
	_ZNK9QDateTime6isNullEv
	_ZNK9QDateTime6secsToERKS_
	_ZNK9QDateTime7addDaysEx
	_ZNK9QDateTime7addSecsEx
	_ZNK9QDateTime7isValidEv
	_ZNK9QDateTime7msecsToERKS_
	_ZNK9QDateTime8addMSecsEx
	_ZNK9QDateTime8addYearsEi
	_ZNK9QDateTime8timeSpecEv
	_ZNK9QDateTime8timeZoneEv
	_ZNK9QDateTime8toStringEN2Qt10DateFormatE
	_ZNK9QDateTime8toStringERK7QString
	_ZNK9QDateTime8toTime_tEv
	_ZNK9QDateTime9addMonthsEi
	_ZNK9QDateTime9utcOffsetEv
	_ZNK9QDateTimeeqERKS_
	_ZNK9QDateTimeltERKS_
	_ZNK9QFileInfo10bundleNameEv
	_ZNK9QFileInfo10isReadableEv
	_ZNK9QFileInfo10isRelativeEv
	_ZNK9QFileInfo10isWritableEv
	_ZNK9QFileInfo10permissionE6QFlagsIN11QFileDevice10PermissionEE
	_ZNK9QFileInfo11absoluteDirEv
	_ZNK9QFileInfo11permissionsEv
	_ZNK9QFileInfo12absolutePathEv
	_ZNK9QFileInfo12isExecutableEv
	_ZNK9QFileInfo12isNativePathEv
	_ZNK9QFileInfo12lastModifiedEv
	_ZNK9QFileInfo13canonicalPathEv
	_ZNK9QFileInfo14completeSuffixEv
	_ZNK9QFileInfo16absoluteFilePathEv
	_ZNK9QFileInfo16completeBaseNameEv
	_ZNK9QFileInfo17canonicalFilePathEv
	_ZNK9QFileInfo3dirEv
	_ZNK9QFileInfo4pathEv
	_ZNK9QFileInfo4sizeEv
	_ZNK9QFileInfo5groupEv
	_ZNK9QFileInfo5isDirEv
	_ZNK9QFileInfo5ownerEv
	_ZNK9QFileInfo6existsEv
	_ZNK9QFileInfo6isFileEv
	_ZNK9QFileInfo6isRootEv
	_ZNK9QFileInfo6suffixEv
	_ZNK9QFileInfo7cachingEv
	_ZNK9QFileInfo7createdEv
	_ZNK9QFileInfo7groupIdEv
	_ZNK9QFileInfo7ownerIdEv
	_ZNK9QFileInfo8baseNameEv
	_ZNK9QFileInfo8fileNameEv
	_ZNK9QFileInfo8filePathEv
	_ZNK9QFileInfo8isBundleEv
	_ZNK9QFileInfo8isHiddenEv
	_ZNK9QFileInfo8lastReadEv
	_ZNK9QFileInfo8readLinkEv
	_ZNK9QFileInfo9isSymLinkEv
	_ZNK9QFileInfoeqERKS_
	_ZNK9QIODevice10isReadableEv
	_ZNK9QIODevice10isWritableEv
	_ZNK9QIODevice10metaObjectEv
	_ZNK9QIODevice11canReadLineEv
	_ZNK9QIODevice11errorStringEv
	_ZNK9QIODevice12bytesToWriteEv
	_ZNK9QIODevice12isSequentialEv
	_ZNK9QIODevice14bytesAvailableEv
	_ZNK9QIODevice17isTextModeEnabledEv
	_ZNK9QIODevice3posEv
	_ZNK9QIODevice4sizeEv
	_ZNK9QIODevice5atEndEv
	_ZNK9QIODevice6isOpenEv
	_ZNK9QIODevice8openModeEv
	_ZNK9QLockFile11getLockInfoEPxP7QStringS2_
	_ZNK9QLockFile13staleLockTimeEv
	_ZNK9QLockFile5errorEv
	_ZNK9QLockFile8isLockedEv
	_ZNK9QMetaEnum10keyToValueEPKcPb
	_ZNK9QMetaEnum10valueToKeyEi
	_ZNK9QMetaEnum11keysToValueEPKcPb
	_ZNK9QMetaEnum11valueToKeysEi
	_ZNK9QMetaEnum3keyEi
	_ZNK9QMetaEnum4nameEv
	_ZNK9QMetaEnum5scopeEv
	_ZNK9QMetaEnum5valueEi
	_ZNK9QMetaEnum6isFlagEv
	_ZNK9QMetaEnum8keyCountEv
	_ZNK9QMetaType12sizeExtendedEv
	_ZNK9QMetaType13flagsExtendedEv
	_ZNK9QMetaType14createExtendedEPKv
	_ZNK9QMetaType15destroyExtendedEPv
	_ZNK9QMetaType16destructExtendedEPv
	_ZNK9QMetaType17constructExtendedEPvPKv
	_ZNK9QMetaType18metaObjectExtendedEv
	_ZNK9QMimeData10metaObjectEv
	_ZNK9QMimeData12retrieveDataERK7QStringN8QVariant4TypeE
	_ZNK9QMimeData4dataERK7QString
	_ZNK9QMimeData4htmlEv
	_ZNK9QMimeData4textEv
	_ZNK9QMimeData4urlsEv
	_ZNK9QMimeData7formatsEv
	_ZNK9QMimeData7hasHtmlEv
	_ZNK9QMimeData7hasTextEv
	_ZNK9QMimeData7hasUrlsEv
	_ZNK9QMimeData8hasColorEv
	_ZNK9QMimeData8hasImageEv
	_ZNK9QMimeData9colorDataEv
	_ZNK9QMimeData9hasFormatERK7QString
	_ZNK9QMimeData9imageDataEv
	_ZNK9QMimeType12allAncestorsEv
	_ZNK9QMimeType12filterStringEv
	_ZNK9QMimeType12globPatternsEv
	_ZNK9QMimeType15genericIconNameEv
	_ZNK9QMimeType15parentMimeTypesEv
	_ZNK9QMimeType15preferredSuffixEv
	_ZNK9QMimeType4nameEv
	_ZNK9QMimeType7aliasesEv
	_ZNK9QMimeType7commentEv
	_ZNK9QMimeType7isValidEv
	_ZNK9QMimeType8iconNameEv
	_ZNK9QMimeType8inheritsERK7QString
	_ZNK9QMimeType8suffixesEv
	_ZNK9QMimeType9isDefaultEv
	_ZNK9QMimeTypeeqERKS_
	_ZNK9QResource12isCompressedEv
	_ZNK9QResource16absoluteFilePathEv
	_ZNK9QResource4dataEv
	_ZNK9QResource4sizeEv
	_ZNK9QResource5isDirEv
	_ZNK9QResource6localeEv
	_ZNK9QResource7isValidEv
	_ZNK9QResource8childrenEv
	_ZNK9QResource8fileNameEv
	_ZNK9QSaveFile10metaObjectEv
	_ZNK9QSaveFile19directWriteFallbackEv
	_ZNK9QSaveFile8fileNameEv
	_ZNK9QSettings10isWritableEv
	_ZNK9QSettings10metaObjectEv
	_ZNK9QSettings11childGroupsEv
	_ZNK9QSettings15applicationNameEv
	_ZNK9QSettings16fallbacksEnabledEv
	_ZNK9QSettings16organizationNameEv
	_ZNK9QSettings5groupEv
	_ZNK9QSettings5scopeEv
	_ZNK9QSettings5valueERK7QStringRK8QVariant
	_ZNK9QSettings6formatEv
	_ZNK9QSettings6statusEv
	_ZNK9QSettings7allKeysEv
	_ZNK9QSettings8containsERK7QString
	_ZNK9QSettings8fileNameEv
	_ZNK9QSettings8iniCodecEv
	_ZNK9QSettings9childKeysEv
	_ZNK9QTimeLine10curveShapeEv
	_ZNK9QTimeLine10metaObjectEv
	_ZNK9QTimeLine10startFrameEv
	_ZNK9QTimeLine11currentTimeEv
	_ZNK9QTimeLine11easingCurveEv
	_ZNK9QTimeLine12currentFrameEv
	_ZNK9QTimeLine12currentValueEv
	_ZNK9QTimeLine12frameForTimeEi
	_ZNK9QTimeLine12valueForTimeEi
	_ZNK9QTimeLine14updateIntervalEv
	_ZNK9QTimeLine5stateEv
	_ZNK9QTimeLine8durationEv
	_ZNK9QTimeLine8endFrameEv
	_ZNK9QTimeLine9directionEv
	_ZNK9QTimeLine9loopCountEv
	_ZNK9QTimeZone10offsetDataERK9QDateTime
	_ZNK9QTimeZone11displayNameENS_8TimeTypeENS_8NameTypeERK7QLocale
	_ZNK9QTimeZone11displayNameERK9QDateTimeNS_8NameTypeERK7QLocale
	_ZNK9QTimeZone11transitionsERK9QDateTimeS2_
	_ZNK9QTimeZone12abbreviationERK9QDateTime
	_ZNK9QTimeZone13offsetFromUtcERK9QDateTime
	_ZNK9QTimeZone14hasTransitionsEv
	_ZNK9QTimeZone14isDaylightTimeERK9QDateTime
	_ZNK9QTimeZone14nextTransitionERK9QDateTime
	_ZNK9QTimeZone15hasDaylightTimeEv
	_ZNK9QTimeZone18daylightTimeOffsetERK9QDateTime
	_ZNK9QTimeZone18previousTransitionERK9QDateTime
	_ZNK9QTimeZone18standardTimeOffsetERK9QDateTime
	_ZNK9QTimeZone2idEv
	_ZNK9QTimeZone7commentEv
	_ZNK9QTimeZone7countryEv
	_ZNK9QTimeZone7isValidEv
	_ZNK9QTimeZoneeqERKS_
	_ZNK9QTimeZoneneERKS_
	_ZNK9QUrlQuery10isDetachedEv
	_ZNK9QUrlQuery10queryItemsE6QFlagsIN4QUrl25ComponentFormattingOptionEE
	_ZNK9QUrlQuery12hasQueryItemERK7QString
	_ZNK9QUrlQuery14queryItemValueERK7QString6QFlagsIN4QUrl25ComponentFormattingOptionEE
	_ZNK9QUrlQuery18allQueryItemValuesERK7QString6QFlagsIN4QUrl25ComponentFormattingOptionEE
	_ZNK9QUrlQuery18queryPairDelimiterEv
	_ZNK9QUrlQuery19queryValueDelimiterEv
	_ZNK9QUrlQuery5queryE6QFlagsIN4QUrl25ComponentFormattingOptionEE
	_ZNK9QUrlQuery7isEmptyEv
	_ZNK9QUrlQueryeqERKS_
	_ZNK9QtPrivate14ExceptionStore12hasExceptionEv
	_ZNK9QtPrivate14ExceptionStore9hasThrownEv
	_ZNK9QtPrivate15ExceptionHolder9exceptionEv
	_ZNK9QtPrivate15ResultStoreBase10filterModeEv
	_ZNK9QtPrivate15ResultStoreBase13hasNextResultEv
	_ZNK9QtPrivate15ResultStoreBase3endEv
	_ZNK9QtPrivate15ResultStoreBase5beginEv
	_ZNK9QtPrivate15ResultStoreBase5countEv
	_ZNK9QtPrivate15ResultStoreBase8containsEi
	_ZNK9QtPrivate15ResultStoreBase8resultAtEi
	_ZNK9QtPrivate18ResultIteratorBase11resultIndexEv
	_ZNK9QtPrivate18ResultIteratorBase11vectorIndexEv
	_ZNK9QtPrivate18ResultIteratorBase23canIncrementVectorIndexEv
	_ZNK9QtPrivate18ResultIteratorBase8isVectorEv
	_ZNK9QtPrivate18ResultIteratorBase9batchSizeEv
	_ZNK9QtPrivate18ResultIteratorBaseeqERKS0_
	_ZNK9QtPrivate18ResultIteratorBaseneERKS0_
	_ZTI10QEventLoop
	_ZTI10QException
	_ZTI10QTextCodec
	_ZTI11QChildEvent
	_ZTI11QFileDevice
	_ZTI11QFinalState
	_ZTI11QObjectData
	_ZTI11QTextStream
	_ZTI11QThreadPool
	_ZTI11QTimerEvent
	_ZTI11QTranslator
	_ZTI13QFileSelector
	_ZTI13QHistoryState
	_ZTI13QPluginLoader
	_ZTI13QSharedMemory
	_ZTI13QSignalMapper
	_ZTI13QStateMachine
	_ZTI13QSystemLocale
	_ZTI13QUnifiedTimer
	_ZTI14QAbstractState
	_ZTI14QFactoryLoader
	_ZTI14QMetaCallEvent
	_ZTI14QObjectPrivate
	_ZTI14QTemporaryFile
	_ZTI15QAnimationGroup
	_ZTI15QDateTimeParser
	_ZTI15QObjectUserData
	_ZTI15QPauseAnimation
	_ZTI15QSocketNotifier
	_ZTI16QAnimationDriver
	_ZTI16QCoreApplication
	_ZTI16QEventTransition
	_ZTI16QIODevicePrivate
	_ZTI16QStringListModel
	_ZTI16QTimeZonePrivate
	_ZTI17QFactoryInterface
	_ZTI17QSignalTransition
	_ZTI17QVariantAnimation
	_ZTI17QWinEventNotifier
	_ZTI18QAbstractAnimation
	_ZTI18QAbstractItemModel
	_ZTI18QAbstractListModel
	_ZTI18QFileSystemWatcher
	_ZTI18QFutureWatcherBase
	_ZTI18QMetaObjectBuilder
	_ZTI18QPropertyAnimation
	_ZTI18QThreadPoolPrivate
	_ZTI18QWindowsPipeReader
	_ZTI18QWindowsPipeWriter
	_ZTI19QAbstractFileEngine
	_ZTI19QAbstractProxyModel
	_ZTI19QAbstractTableModel
	_ZTI19QAbstractTransition
	_ZTI19QIdentityProxyModel
	_ZTI19QItemSelectionModel
	_ZTI19QUnhandledException
	_ZTI20QDeferredDeleteEvent
	_ZTI20QFileSelectorPrivate
	_ZTI20QFutureInterfaceBase
	_ZTI20QStateMachinePrivate
	_ZTI21QEventDispatcherWin32
	_ZTI21QObjectCleanupHandler
	_ZTI21QSortFilterProxyModel
	_ZTI22QDynamicMetaObjectData
	_ZTI23QAbstractAnimationTimer
	_ZTI23QAnimationDriverPrivate
	_ZTI23QCoreApplicationPrivate
	_ZTI23QEventTransitionPrivate
	_ZTI23QParallelAnimationGroup
	_ZTI24QAbstractEventDispatcher
	_ZTI24QNonContiguousByteDevice
	_ZTI24QWinOverlappedIoNotifier
	_ZTI24QXmlStreamEntityResolver
	_ZTI25QAbstractItemModelPrivate
	_ZTI25QSequentialAnimationGroup
	_ZTI26QAbstractDynamicMetaObject
	_ZTI26QAbstractFileEngineHandler
	_ZTI26QAbstractNativeEventFilter
	_ZTI26QAbstractProxyModelPrivate
	_ZTI26QAbstractTransitionPrivate
	_ZTI27QAbstractFileEngineIterator
	_ZTI27QDynamicPropertyChangeEvent
	_ZTI28QEventDispatcherWin32Private
	_ZTI31QAbstractEventDispatcherPrivate
	_ZTI5QFile
	_ZTI6QEvent
	_ZTI6QState
	_ZTI6QTimer
	_ZTI7QBuffer
	_ZTI7QObject
	_ZTI7QThread
	_ZTI8QLibrary
	_ZTI8QProcess
	_ZTI9QIODevice
	_ZTI9QMimeData
	_ZTI9QSaveFile
	_ZTI9QSettings
	_ZTI9QTimeLine
	_ZTIN13QStateMachine11SignalEventE
	_ZTIN13QStateMachine12WrappedEventE
	_ZTIN9QtPrivate15ResultStoreBaseE
	_ZTV10QEventLoop
	_ZTV10QException
	_ZTV10QTextCodec
	_ZTV11QChildEvent
	_ZTV11QFileDevice
	_ZTV11QFinalState
	_ZTV11QObjectData
	_ZTV11QTextStream
	_ZTV11QThreadPool
	_ZTV11QTimerEvent
	_ZTV11QTranslator
	_ZTV13QFileSelector
	_ZTV13QHistoryState
	_ZTV13QPluginLoader
	_ZTV13QSharedMemory
	_ZTV13QSignalMapper
	_ZTV13QStateMachine
	_ZTV13QSystemLocale
	_ZTV13QUnifiedTimer
	_ZTV14QAbstractState
	_ZTV14QFactoryLoader
	_ZTV14QMetaCallEvent
	_ZTV14QObjectPrivate
	_ZTV14QTemporaryFile
	_ZTV15QAnimationGroup
	_ZTV15QDateTimeParser
	_ZTV15QObjectUserData
	_ZTV15QPauseAnimation
	_ZTV15QSocketNotifier
	_ZTV16QAnimationDriver
	_ZTV16QCoreApplication
	_ZTV16QEventTransition
	_ZTV16QIODevicePrivate
	_ZTV16QStringListModel
	_ZTV16QTimeZonePrivate
	_ZTV17QFactoryInterface
	_ZTV17QSignalTransition
	_ZTV17QVariantAnimation
	_ZTV17QWinEventNotifier
	_ZTV18QAbstractAnimation
	_ZTV18QAbstractItemModel
	_ZTV18QAbstractListModel
	_ZTV18QFileSystemWatcher
	_ZTV18QFutureWatcherBase
	_ZTV18QMetaObjectBuilder
	_ZTV18QPropertyAnimation
	_ZTV18QThreadPoolPrivate
	_ZTV18QWindowsPipeReader
	_ZTV18QWindowsPipeWriter
	_ZTV19QAbstractFileEngine
	_ZTV19QAbstractProxyModel
	_ZTV19QAbstractTableModel
	_ZTV19QAbstractTransition
	_ZTV19QIdentityProxyModel
	_ZTV19QItemSelectionModel
	_ZTV19QUnhandledException
	_ZTV20QDeferredDeleteEvent
	_ZTV20QFileSelectorPrivate
	_ZTV20QFutureInterfaceBase
	_ZTV20QStateMachinePrivate
	_ZTV21QEventDispatcherWin32
	_ZTV21QObjectCleanupHandler
	_ZTV21QSortFilterProxyModel
	_ZTV22QDynamicMetaObjectData
	_ZTV23QAbstractAnimationTimer
	_ZTV23QAnimationDriverPrivate
	_ZTV23QCoreApplicationPrivate
	_ZTV23QEventTransitionPrivate
	_ZTV23QParallelAnimationGroup
	_ZTV24QAbstractEventDispatcher
	_ZTV24QNonContiguousByteDevice
	_ZTV24QWinOverlappedIoNotifier
	_ZTV24QXmlStreamEntityResolver
	_ZTV25QAbstractItemModelPrivate
	_ZTV25QSequentialAnimationGroup
	_ZTV26QAbstractDynamicMetaObject
	_ZTV26QAbstractFileEngineHandler
	_ZTV26QAbstractNativeEventFilter
	_ZTV26QAbstractProxyModelPrivate
	_ZTV26QAbstractTransitionPrivate
	_ZTV27QAbstractFileEngineIterator
	_ZTV27QDynamicPropertyChangeEvent
	_ZTV28QEventDispatcherWin32Private
	_ZTV31QAbstractEventDispatcherPrivate
	_ZTV5QFile
	_ZTV6QEvent
	_ZTV6QState
	_ZTV6QTimer
	_ZTV7QBuffer
	_ZTV7QObject
	_ZTV7QThread
	_ZTV8QLibrary
	_ZTV8QProcess
	_ZTV9QIODevice
	_ZTV9QMimeData
	_ZTV9QSaveFile
	_ZTV9QSettings
	_ZTV9QTimeLine
	_ZTVN13QStateMachine11SignalEventE
	_ZTVN13QStateMachine12WrappedEventE
	_ZTVN9QtPrivate15ResultStoreBaseE
	_ZanRK9QBitArrayS1_
	_ZeoRK9QBitArrayS1_
	_Zeq13QLatin1StringRK10QStringRef
	_ZeqRK10QStringRefS1_
	_ZeqRK7QStringRK10QStringRef
	_ZeqRK7QStringS1_
	_ZeqRKN15QDateTimeParser11SectionNodeES2_
	_Zls6QDebug6QFlagsIN18QRegularExpression13PatternOptionEE
	_Zls6QDebug6QFlagsIN4QDir6FilterEE
	_Zls6QDebug6QFlagsIN9QIODevice12OpenModeFlagEE
	_Zls6QDebugN8QVariant4TypeE
	_Zls6QDebugPK7QObject
	_Zls6QDebugRK10QJsonArray
	_Zls6QDebugRK10QJsonValue
	_Zls6QDebugRK11QJsonObject
	_Zls6QDebugRK11QModelIndex
	_Zls6QDebugRK12QEasingCurve
	_Zls6QDebugRK13QJsonDocument
	_Zls6QDebugRK18QRegularExpression
	_Zls6QDebugRK19QItemSelectionRange
	_Zls6QDebugRK21QPersistentModelIndex
	_Zls6QDebugRK23QRegularExpressionMatch
	_Zls6QDebugRK4QDir
	_Zls6QDebugRK4QUrl
	_Zls6QDebugRK5QDate
	_Zls6QDebugRK5QLine
	_Zls6QDebugRK5QRect
	_Zls6QDebugRK5QSize
	_Zls6QDebugRK5QTime
	_Zls6QDebugRK5QUuid
	_Zls6QDebugRK6QLineF
	_Zls6QDebugRK6QPoint
	_Zls6QDebugRK6QRectF
	_Zls6QDebugRK6QSizeF
	_Zls6QDebugRK6tagMSG
	_Zls6QDebugRK7QLocale
	_Zls6QDebugRK7QPointF
	_Zls6QDebugRK7QRegExp
	_Zls6QDebugRK8QMargins
	_Zls6QDebugRK8QVariant
	_Zls6QDebugRK9QBitArray
	_Zls6QDebugRK9QDateTime
	_Zls6QDebugRK9QMarginsF
	_Zls6QDebugRK9QTimeZone
	_ZlsR11QDataStream5QChar
	_ZlsR11QDataStreamN8QVariant4TypeE
	_ZlsR11QDataStreamRK10QByteArray
	_ZlsR11QDataStreamRK12QEasingCurve
	_ZlsR11QDataStreamRK18QRegularExpression
	_ZlsR11QDataStreamRK4QUrl
	_ZlsR11QDataStreamRK5QDate
	_ZlsR11QDataStreamRK5QLine
	_ZlsR11QDataStreamRK5QRect
	_ZlsR11QDataStreamRK5QSize
	_ZlsR11QDataStreamRK5QTime
	_ZlsR11QDataStreamRK5QUuid
	_ZlsR11QDataStreamRK6QLineF
	_ZlsR11QDataStreamRK6QPoint
	_ZlsR11QDataStreamRK6QRectF
	_ZlsR11QDataStreamRK6QSizeF
	_ZlsR11QDataStreamRK7QLocale
	_ZlsR11QDataStreamRK7QPointF
	_ZlsR11QDataStreamRK7QRegExp
	_ZlsR11QDataStreamRK7QString
	_ZlsR11QDataStreamRK8QMargins
	_ZlsR11QDataStreamRK8QVariant
	_ZlsR11QDataStreamRK9QBitArray
	_ZlsR11QDataStreamRK9QDateTime
	_ZlsR11QDataStreamRK9QMarginsF
	_ZlsR11QDataStreamRK9QTimeZone
	_ZltRK10QStringRefS1_
	_ZltRK13QElapsedTimerS1_
	_ZltRK7QStringS1_
	_ZorRK9QBitArrayS1_
	_ZrsR11QDataStreamR10QByteArray
	_ZrsR11QDataStreamR12QEasingCurve
	_ZrsR11QDataStreamR18QRegularExpression
	_ZrsR11QDataStreamR4QUrl
	_ZrsR11QDataStreamR5QChar
	_ZrsR11QDataStreamR5QDate
	_ZrsR11QDataStreamR5QLine
	_ZrsR11QDataStreamR5QRect
	_ZrsR11QDataStreamR5QSize
	_ZrsR11QDataStreamR5QTime
	_ZrsR11QDataStreamR5QUuid
	_ZrsR11QDataStreamR6QLineF
	_ZrsR11QDataStreamR6QPoint
	_ZrsR11QDataStreamR6QRectF
	_ZrsR11QDataStreamR6QSizeF
	_ZrsR11QDataStreamR7QLocale
	_ZrsR11QDataStreamR7QPointF
	_ZrsR11QDataStreamR7QRegExp
	_ZrsR11QDataStreamR7QString
	_ZrsR11QDataStreamR8QMargins
	_ZrsR11QDataStreamR8QVariant
	_ZrsR11QDataStreamR9QBitArray
	_ZrsR11QDataStreamR9QDateTime
	_ZrsR11QDataStreamR9QMarginsF
	_ZrsR11QDataStreamR9QTimeZone
	_ZrsR11QDataStreamRN8QVariant4TypeE
	qMetaObjectWidgetsHelper
	qMetaTypeGuiHelper
	qMetaTypeWidgetsHelper
	qVersion
	qmime_secondsBetweenChecks
	qt_addObject
	qt_cpu_features
	qt_ntfs_permission_lookup
	qt_qhash_seed
	qt_removeObject
	qt_signal_spy_callback_set
	qt_sine_table
	qt_startup_hook