LIBRARY qt5gui

EXPORTS
	_Z11qDrawBorderP8QPainterRK5QRectPKN4QCss11BorderStyleEPKiPK6QBrushPK5QSize
	_Z12qTriangulatePKdijRK10QTransform
	_Z12qTriangulateRK11QVectorPathRK10QTransformd
	_Z12qTriangulateRK12QPainterPathRK10QTransformd
	_Z13qt_defaultDpiv
	_Z14qt_defaultDpiXv
	_Z14qt_defaultDpiYv
	_Z14qt_draw_helperP15QPainterPrivateRK12QPainterPathNS_13DrawOperationE
	_Z14qt_memrotate90PK7quint24iiiPS_i
	_Z14qt_memrotate90PKhiiiPhi
	_Z14qt_memrotate90PKjiiiPji
	_Z14qt_memrotate90PKtiiiPti
	_Z15qNormalizeRadiiRK5QRectPK5QSizePS2_S5_S5_S5_
	_Z15qt_memrotate180PK7quint24iiiPS_i
	_Z15qt_memrotate180PKhiiiPhi
	_Z15qt_memrotate180PKjiiiPji
	_Z15qt_memrotate180PKtiiiPti
	_Z15qt_memrotate270PK7quint24iiiPS_i
	_Z15qt_memrotate270PKhiiiPhi
	_Z15qt_memrotate270PKjiiiPji
	_Z15qt_memrotate270PKtiiiPti
	_Z15qt_regionToPathRK7QRegion
	_Z16qt_fusionPalettev
	_Z16qt_imageForBrushib
	_Z17qHasPixmapTextureRK6QBrush
	_Z17qt_convertMarginsRK9QMarginsFN11QPageLayout4UnitES3_
	_Z17qt_createIconMaskRK7QBitmap
	_Z17qt_handleKeyEventP7QWindowN6QEvent4TypeEi6QFlagsIN2Qt16KeyboardModifierEERK7QStringbt
	_Z17qt_window_privateP7QWindow
	_Z18qt_addBitmapToPathddPKhiiiP12QPainterPath
	_Z18qt_pixelMultiplieri
	_Z18qt_pointMultiplierN11QPageLayout4UnitE
	_Z19qtVectorPathForPathRK12QPainterPath
	_Z19qt_handleMouseEventP7QWindowRK7QPointFS3_6QFlagsIN2Qt11MouseButtonEES4_INS5_16KeyboardModifierEE
	_Z19qt_handleTouchEventP7QWindowP12QTouchDeviceRK5QListIN11QTouchEvent10TouchPointEE6QFlagsIN2Qt16KeyboardModifierEE
	_Z19qt_pixmapToWinHICONRK7QPixmap
	_Z20hb_qt_get_font_funcsv
	_Z20qt_scaleForTransformRK10QTransformPd
	_Z20qt_scrollRectInImageR6QImageRK5QRectRK6QPoint
	_Z21qAccessibleRoleStringN11QAccessible4RoleE
	_Z21qt_pixmapFromWinHICONP7HICON__
	_Z21qt_pixmapToWinHBITMAPRK7QPixmapi
	_Z22hb_qt_script_to_scriptN5QChar6ScriptE
	_Z22qAccessibleEventStringN11QAccessible5EventE
	_Z22qt_find_ellipse_coordsRK6QRectFddP7QPointFS3_
	_Z22qt_fontdata_from_indexi
	_Z22qt_gl_read_framebufferRK5QSizebb
	_Z22qt_imageFromWinHBITMAPP5HDC__P9HBITMAP__ii
	_Z22qt_paint_device_metricPK12QPaintDeviceNS_17PaintDeviceMetricE
	_Z23hb_qt_get_unicode_funcsv
	_Z23qt_pixmapFromWinHBITMAPP9HBITMAP__i
	_Z24hb_qt_script_from_script11hb_script_t
	_Z24qt_fontHasNarrowOutlinesP11QFontEngine
	_Z24qt_fontHasNarrowOutlinesRK8QRawFont
	_Z24qt_region_strictContainsRK7QRegionRK5QRect
	_Z25hb_qt_face_get_for_engineP11QFontEngine
	_Z25hb_qt_font_get_for_engineP11QFontEngine
	_Z27qt_isExtendedRadialGradientRK6QBrush
	_Z28qt_painterPathFromVectorPathRK11QVectorPath
	_Z28qt_script_for_writing_systemN13QFontDatabase13WritingSystemE
	_Z29qt_draw_decoration_for_glyphsP8QPainterPKjPK11QFixedPointiP11QFontEngineRK5QFontRK15QTextCharFormat
	_Z29qt_set_sequence_auto_mnemonicb
	_Z32qGamma_correct_back_to_linear_csP6QImage
	_Z32qt_convert_rgb888_to_rgb32_ssse3PjPKhi
	_Z33hb_qt_font_get_use_design_metricsP9hb_font_t
	_Z33hb_qt_font_set_use_design_metricsP9hb_font_tj
	_Z5qHashRK5QFontj
	_Z5qHashRKN22QGuiApplicationPrivate20ActiveTouchPointsKeyE
	_Z9qPolylineRK12QPainterPathRK10QTransformd
	_ZN10QBasicDrag11eventFilterEP7QObjectP6QEvent
	_ZN10QBasicDrag12updateCursorEN2Qt10DropActionE
	_ZN10QBasicDrag13restoreCursorEv
	_ZN10QBasicDrag16exitDndEventLoopEv
	_ZN10QBasicDrag17enableEventFilterEv
	_ZN10QBasicDrag18disableEventFilterEv
	_ZN10QBasicDrag4dragEP5QDrag
	_ZN10QBasicDrag4dropEPK11QMouseEvent
	_ZN10QBasicDrag4moveEPK11QMouseEvent
	_ZN10QBasicDrag6cancelEv
	_ZN10QBasicDrag7endDragEv
	_ZN10QBasicDrag9startDragEv
	_ZN10QBasicDragC1Ev
	_ZN10QBasicDragC2Ev
	_ZN10QBasicDragD0Ev
	_ZN10QBasicDragD1Ev
	_ZN10QBasicDragD2Ev
	_ZN10QBlittable13alphaFillRectERK6QRectFRK6QColorN8QPainter15CompositionModeE
	_ZN10QBlittable17drawPixmapOpacityERK6QRectFRK7QPixmapS2_N8QPainter15CompositionModeEd
	_ZN10QBlittable4lockEv
	_ZN10QBlittable6unlockEv
	_ZN10QBlittableC1ERK5QSize6QFlagsINS_10CapabilityEE
	_ZN10QBlittableC2ERK5QSize6QFlagsINS_10CapabilityEE
	_ZN10QBlittableD0Ev
	_ZN10QBlittableD1Ev
	_ZN10QBlittableD2Ev
	_ZN10QClipboard11dataChangedEv
	_ZN10QClipboard11emitChangedENS_4ModeE
	_ZN10QClipboard11qt_metacallEN11QMetaObject4CallEiPPv
	_ZN10QClipboard11qt_metacastEPKc
	_ZN10QClipboard11setMimeDataEP9QMimeDataNS_4ModeE
	_ZN10QClipboard16selectionChangedEv
	_ZN10QClipboard16staticMetaObjectE
	_ZN10QClipboard17findBufferChangedEv
	_ZN10QClipboard18qt_static_metacallEP7QObjectN11QMetaObject4CallEiPPv
	_ZN10QClipboard5clearENS_4ModeE
	_ZN10QClipboard7changedENS_4ModeE
	_ZN10QClipboard7setTextERK7QStringNS_4ModeE
	_ZN10QClipboard8setImageERK6QImageNS_4ModeE
	_ZN10QClipboard9setPixmapERK7QPixmapNS_4ModeE
	_ZN10QClipboardC1EP7QObject
	_ZN10QClipboardC2EP7QObject
	_ZN10QClipboardD0Ev
	_ZN10QClipboardD1Ev
	_ZN10QClipboardD2Ev
	_ZN10QDropEvent13setDropActionEN2Qt10DropActionE
	_ZN10QDropEventC1ERK7QPointF6QFlagsIN2Qt10DropActionEEPK9QMimeDataS3_INS4_11MouseButtonEES3_INS4_16KeyboardModifierEEN6QEvent4TypeE
	_ZN10QDropEventC2ERK7QPointF6QFlagsIN2Qt10DropActionEEPK9QMimeDataS3_INS4_11MouseButtonEES3_INS4_16KeyboardModifierEEN6QEvent4TypeE
	_ZN10QDropEventD0Ev
	_ZN10QDropEventD1Ev
	_ZN10QDropEventD2Ev
	_ZN10QHelpEventC1EN6QEvent4TypeERK6QPointS4_
	_ZN10QHelpEventC2EN6QEvent4TypeERK6QPointS4_
	_ZN10QHelpEventD0Ev
	_ZN10QHelpEventD1Ev
	_ZN10QHelpEventD2Ev
	_ZN10QHideEventC1Ev
	_ZN10QHideEventC2Ev
	_ZN10QHideEventD0Ev
	_ZN10QHideEventD1Ev
	_ZN10QHideEventD2Ev
	_ZN10QImageData14convertInPlaceEN6QImage6FormatE6QFlagsIN2Qt19ImageConversionFlagEE
	_ZN10QImageData6createEPhiiiN6QImage6FormatEbPFvPvES3_
	_ZN10QImageData6createERK5QSizeN6QImage6FormatEi
	_ZN10QImageDataC1Ev
	_ZN10QImageDataC2Ev
	_ZN10QImageDataD1Ev
	_ZN10QImageDataD2Ev
	_ZN10QKeyMapper11qt_metacallEN11QMetaObject4CallEiPPv
	_ZN10QKeyMapper11qt_metacastEPKc
	_ZN10QKeyMapper12possibleKeysEP9QKeyEvent
	_ZN10QKeyMapper14changeKeyboardEv
	_ZN10QKeyMapper16staticMetaObjectE
	_ZN10QKeyMapper18qt_static_metacallEP7QObjectN11QMetaObject4CallEiPPv
	_ZN10QKeyMapper8instanceEv
	_ZN10QKeyMapperC1Ev
	_ZN10QKeyMapperC2Ev
	_ZN10QKeyMapperD0Ev
	_ZN10QKeyMapperD1Ev
	_ZN10QKeyMapperD2Ev
	_ZN10QMatrix4x411perspectiveEffff
	_ZN10QMatrix4x415flipCoordinatesEv
	_ZN10QMatrix4x415projectedRotateEffff
	_ZN10QMatrix4x45orthoERK5QRect
	_ZN10QMatrix4x45orthoERK6QRectF
	_ZN10QMatrix4x45orthoEffffff
	_ZN10QMatrix4x45scaleERK9QVector3D
	_ZN10QMatrix4x45scaleEf
	_ZN10QMatrix4x45scaleEff
	_ZN10QMatrix4x45scaleEfff
	_ZN10QMatrix4x46lookAtERK9QVector3DS2_S2_
	_ZN10QMatrix4x46rotateERK11QQuaternion
	_ZN10QMatrix4x46rotateEfRK9QVector3D
	_ZN10QMatrix4x46rotateEffff
	_ZN10QMatrix4x47frustumEffffff
	_ZN10QMatrix4x48optimizeEv
	_ZN10QMatrix4x49translateERK9QVector3D
	_ZN10QMatrix4x49translateEff
	_ZN10QMatrix4x49translateEfff
	_ZN10QMatrix4x4C1EPKf
	_ZN10QMatrix4x4C1EPKfii
	_ZN10QMatrix4x4C1ERK10QTransform
	_ZN10QMatrix4x4C1ERK7QMatrix
	_ZN10QMatrix4x4C2EPKf
	_ZN10QMatrix4x4C2EPKfii
	_ZN10QMatrix4x4C2ERK10QTransform
	_ZN10QMatrix4x4C2ERK7QMatrix
	_ZN10QMatrix4x4dVEf
	_ZN10QMoveEventC1ERK6QPointS2_
	_ZN10QMoveEventC2ERK6QPointS2_
	_ZN10QMoveEventD0Ev
	_ZN10QMoveEventD1Ev
	_ZN10QMoveEventD2Ev
	_ZN10QPdfEngine10drawPixmapERK6QRectFRK7QPixmapS2_
	_ZN10QPdfEngine10drawPointsEPK7QPointFi
	_ZN10QPdfEngine11drawPolygonEPK7QPointFiN12QPaintEngine15PolygonDrawModeE
	_ZN10QPdfEngine11setPageSizeERK9QPageSize
	_ZN10QPdfEngine11updateStateERK17QPaintEngineState
	_ZN10QPdfEngine12drawTextItemERK7QPointFRK9QTextItem
	_ZN10QPdfEngine13setPageLayoutERK11QPageLayout
	_ZN10QPdfEngine13setResolutionEi
	_ZN10QPdfEngine14setPageMarginsERK9QMarginsFN11QPageLayout4UnitE
	_ZN10QPdfEngine14updateClipPathERK12QPainterPathN2Qt13ClipOperationE
	_ZN10QPdfEngine15drawTiledPixmapERK6QRectFRK7QPixmapRK7QPointF
	_ZN10QPdfEngine17setOutputFilenameERK7QString
	_ZN10QPdfEngine18setPageOrientationEN11QPageLayout11OrientationE
	_ZN10QPdfEngine18setupGraphicsStateE6QFlagsIN12QPaintEngine9DirtyFlagEE
	_ZN10QPdfEngine3endEv
	_ZN10QPdfEngine5beginEP12QPaintDevice
	_ZN10QPdfEngine6setPenEv
	_ZN10QPdfEngine7newPageEv
	_ZN10QPdfEngine8drawPathERK12QPainterPath
	_ZN10QPdfEngine8setBrushEv
	_ZN10QPdfEngine9drawImageERK6QRectFRK6QImageS2_6QFlagsIN2Qt19ImageConversionFlagEE
	_ZN10QPdfEngine9drawLinesEPK6QLineFi
	_ZN10QPdfEngine9drawRectsEPK6QRectFi
	_ZN10QPdfEngineC1ER17QPdfEnginePrivate
	_ZN10QPdfEngineC1Ev
	_ZN10QPdfEngineC2ER17QPdfEnginePrivate
	_ZN10QPdfEngineC2Ev
	_ZN10QPdfEngineD0Ev
	_ZN10QPdfEngineD1Ev
	_ZN10QPdfWriter10setCreatorERK7QString
	_ZN10QPdfWriter10setMarginsERKN17QPagedPaintDevice7MarginsE
	_ZN10QPdfWriter11qt_metacallEN11QMetaObject4CallEiPPv
	_ZN10QPdfWriter11qt_metacastEPKc
	_ZN10QPdfWriter11setPageSizeEN17QPagedPaintDevice8PageSizeE
	_ZN10QPdfWriter13setPageSizeMMERK6QSizeF
	_ZN10QPdfWriter13setResolutionEi
	_ZN10QPdfWriter16staticMetaObjectE
	_ZN10QPdfWriter18qt_static_metacallEP7QObjectN11QMetaObject4CallEiPPv
	_ZN10QPdfWriter7newPageEv
	_ZN10QPdfWriter8setTitleERK7QString
	_ZN10QPdfWriterC1EP9QIODevice
	_ZN10QPdfWriterC1ERK7QString
	_ZN10QPdfWriterC2EP9QIODevice
	_ZN10QPdfWriterC2ERK7QString
	_ZN10QPdfWriterD0Ev
	_ZN10QPdfWriterD1Ev
	_ZN10QPdfWriterD2Ev
	_ZN10QPictureIO10setPictureERK8QPicture
	_ZN10QPictureIO10setQualityEi
	_ZN10QPictureIO11setFileNameERK7QString
	_ZN10QPictureIO11setIODeviceEP9QIODevice
	_ZN10QPictureIO12inputFormatsEv
	_ZN10QPictureIO13outputFormatsEv
	_ZN10QPictureIO13pictureFormatEP9QIODevice
	_ZN10QPictureIO13pictureFormatERK7QString
	_ZN10QPictureIO13setParametersEPKc
	_ZN10QPictureIO14setDescriptionERK7QString
	_ZN10QPictureIO15defineIOHandlerEPKcS1_S1_PFvPS_ES4_
	_ZN10QPictureIO4initEv
	_ZN10QPictureIO4readEv
	_ZN10QPictureIO5writeEv
	_ZN10QPictureIO8setGammaEf
	_ZN10QPictureIO9setFormatEPKc
	_ZN10QPictureIO9setStatusEi
	_ZN10QPictureIOC1EP9QIODevicePKc
	_ZN10QPictureIOC1ERK7QStringPKc
	_ZN10QPictureIOC1Ev
	_ZN10QPictureIOC2EP9QIODevicePKc
	_ZN10QPictureIOC2ERK7QStringPKc
	_ZN10QPictureIOC2Ev
	_ZN10QPictureIOD1Ev
	_ZN10QPictureIOD2Ev
	_ZN10QShowEventC1Ev
	_ZN10QShowEventC2Ev
	_ZN10QShowEventD0Ev
	_ZN10QShowEventD1Ev
	_ZN10QShowEventD2Ev
	_ZN10QTextBlock10setVisibleEb
	_ZN10QTextBlock11clearLayoutEv
	_ZN10QTextBlock11setRevisionEi
	_ZN10QTextBlock11setUserDataEP18QTextBlockUserData
	_ZN10QTextBlock12setLineCountEi
	_ZN10QTextBlock12setUserStateEi
	_ZN10QTextBlock8iteratormmEv
	_ZN10QTextBlock8iteratorppEv
	_ZN10QTextFrame11qt_metacallEN11QMetaObject4CallEiPPv
	_ZN10QTextFrame11qt_metacastEPKc
	_ZN10QTextFrame13setLayoutDataEP20QTextFrameLayoutData
	_ZN10QTextFrame16staticMetaObjectE
	_ZN10QTextFrame18qt_static_metacallEP7QObjectN11QMetaObject4CallEiPPv
	_ZN10QTextFrame8iteratorC1EPS_iii
	_ZN10QTextFrame8iteratorC1ERKS0_
	_ZN10QTextFrame8iteratorC1Ev
	_ZN10QTextFrame8iteratorC2EPS_iii
	_ZN10QTextFrame8iteratorC2ERKS0_
	_ZN10QTextFrame8iteratorC2Ev
	_ZN10QTextFrame8iteratoraSERKS0_
	_ZN10QTextFrame8iteratormmEv
	_ZN10QTextFrame8iteratorppEv
	_ZN10QTextFrameC1EP13QTextDocument
	_ZN10QTextFrameC1ER17QTextFramePrivateP13QTextDocument
	_ZN10QTextFrameC2EP13QTextDocument
	_ZN10QTextFrameC2ER17QTextFramePrivateP13QTextDocument
	_ZN10QTextFrameD0Ev
	_ZN10QTextFrameD1Ev
	_ZN10QTextFrameD2Ev
	_ZN10QTextTable10appendRowsEi
	_ZN10QTextTable10insertRowsEii
	_ZN10QTextTable10mergeCellsERK11QTextCursor
	_ZN10QTextTable10mergeCellsEiiii
	_ZN10QTextTable10removeRowsEii
	_ZN10QTextTable11qt_metacallEN11QMetaObject4CallEiPPv
	_ZN10QTextTable11qt_metacastEPKc
	_ZN10QTextTable13appendColumnsEi
	_ZN10QTextTable13insertColumnsEii
	_ZN10QTextTable13removeColumnsEii
	_ZN10QTextTable16staticMetaObjectE
	_ZN10QTextTable18qt_static_metacallEP7QObjectN11QMetaObject4CallEiPPv
	_ZN10QTextTable6resizeEii
	_ZN10QTextTable9setFormatERK16QTextTableFormat
	_ZN10QTextTable9splitCellEiiii
	_ZN10QTextTableC1EP13QTextDocument
	_ZN10QTextTableC2EP13QTextDocument
	_ZN10QTextTableD0Ev
	_ZN10QTextTableD1Ev
	_ZN10QTextTableD2Ev
	_ZN10QTransform10quadToQuadERK9QPolygonFS2_RS_
	_ZN10QTransform12quadToSquareERK9QPolygonFRS_
	_ZN10QTransform12squareToQuadERK9QPolygonFRS_
	_ZN10QTransform13fromTranslateEdd
	_ZN10QTransform13rotateRadiansEdN2Qt4AxisE
	_ZN10QTransform5resetEv
	_ZN10QTransform5scaleEdd
	_ZN10QTransform5shearEdd
	_ZN10QTransform6rotateEdN2Qt4AxisE
	_ZN10QTransform9fromScaleEdd
	_ZN10QTransform9setMatrixEddddddddd
	_ZN10QTransform9translateEdd
	_ZN10QTransformC1ERK7QMatrix
	_ZN10QTransformC1Edddddd
	_ZN10QTransformC1Eddddddddd
	_ZN10QTransformC1Ev
	_ZN10QTransformC2ERK7QMatrix
	_ZN10QTransformC2Edddddd
	_ZN10QTransformC2Eddddddddd
	_ZN10QTransformC2Ev
	_ZN10QTransformaSERKS_
	_ZN10QTransformmLERKS_
	_ZN10QValidator11qt_metacallEN11QMetaObject4CallEiPPv
	_ZN10QValidator11qt_metacastEPKc
	_ZN10QValidator16staticMetaObjectE
	_ZN10QValidator18qt_static_metacallEP7QObjectN11QMetaObject4CallEiPPv
	_ZN10QValidator7changedEv
	_ZN10QValidator9setLocaleERK7QLocale
	_ZN10QValidatorC1EP7QObject
	_ZN10QValidatorC1ER14QObjectPrivateP7QObject
	_ZN10QValidatorC1ER17QValidatorPrivateP7QObject
	_ZN10QValidatorC2EP7QObject
	_ZN10QValidatorC2ER14QObjectPrivateP7QObject
	_ZN10QValidatorC2ER17QValidatorPrivateP7QObject
	_ZN10QValidatorD0Ev
	_ZN10QValidatorD1Ev
	_ZN10QValidatorD2Ev
	_ZN10QZipReader5closeEv
	_ZN10QZipReader8FileInfoC1ERKS0_
	_ZN10QZipReader8FileInfoC1Ev
	_ZN10QZipReader8FileInfoC2ERKS0_
	_ZN10QZipReader8FileInfoC2Ev
	_ZN10QZipReader8FileInfoD1Ev
	_ZN10QZipReader8FileInfoD2Ev
	_ZN10QZipReader8FileInfoaSERKS0_
	_ZN10QZipReaderC1EP9QIODevice
	_ZN10QZipReaderC1ERK7QString6QFlagsIN9QIODevice12OpenModeFlagEE
	_ZN10QZipReaderC2EP9QIODevice
	_ZN10QZipReaderC2ERK7QString6QFlagsIN9QIODevice12OpenModeFlagEE
	_ZN10QZipReaderD1Ev
	_ZN10QZipReaderD2Ev
	_ZN10QZipWriter10addSymLinkERK7QStringS2_
	_ZN10QZipWriter12addDirectoryERK7QString
	_ZN10QZipWriter20setCompressionPolicyENS_17CompressionPolicyE
	_ZN10QZipWriter22setCreationPermissionsE6QFlagsIN11QFileDevice10PermissionEE
	_ZN10QZipWriter5closeEv
	_ZN10QZipWriter7addFileERK7QStringP9QIODevice
	_ZN10QZipWriter7addFileERK7QStringRK10QByteArray
	_ZN10QZipWriterC1EP9QIODevice
	_ZN10QZipWriterC1ERK7QString6QFlagsIN9QIODevice12OpenModeFlagEE
	_ZN10QZipWriterC2EP9QIODevice
	_ZN10QZipWriterC2ERK7QString6QFlagsIN9QIODevice12OpenModeFlagEE
	_ZN10QZipWriterD1Ev
	_ZN10QZipWriterD2Ev
	_ZN11QAccessible13removeFactoryEPFP20QAccessibleInterfaceRK7QStringP7QObjectE
	_ZN11QAccessible13setRootObjectEP7QObject
	_ZN11QAccessible13updateHandlerE
	_ZN11QAccessible14installFactoryEPFP20QAccessibleInterfaceRK7QStringP7QObjectE
	_ZN11QAccessible16staticMetaObjectE
	_ZN11QAccessible17rootObjectHandlerE
	_ZN11QAccessible19accessibleInterfaceEj
	_ZN11QAccessible19updateAccessibilityEP16QAccessibleEvent
	_ZN11QAccessible20installUpdateHandlerEPFvP16QAccessibleEventE
	_ZN11QAccessible24installRootObjectHandlerEPFvP7QObjectE
	_ZN11QAccessible24queryAccessibleInterfaceEP7QObject
	_ZN11QAccessible25deleteAccessibleInterfaceEj
	_ZN11QAccessible27registerAccessibleInterfaceEP20QAccessibleInterface
	_ZN11QAccessible29qAccessibleTextBoundaryHelperERK11QTextCursorNS_16TextBoundaryTypeE
	_ZN11QAccessible7cleanupEv
	_ZN11QAccessible8isActiveEv
	_ZN11QAccessible8uniqueIdEP20QAccessibleInterface
	_ZN11QCloseEventC1Ev
	_ZN11QCloseEventC2Ev
	_ZN11QCloseEventD0Ev
	_ZN11QCloseEventD1Ev
	_ZN11QCloseEventD2Ev
	_ZN11QEnterEventC1ERK7QPointFS2_S2_
	_ZN11QEnterEventC2ERK7QPointFS2_S2_
	_ZN11QEnterEventD0Ev
	_ZN11QEnterEventD1Ev
	_ZN11QEnterEventD2Ev
	_ZN11QFocusEventC1EN6QEvent4TypeEN2Qt11FocusReasonE
	_ZN11QFocusEventC2EN6QEvent4TypeEN2Qt11FocusReasonE
	_ZN11QFocusEventD0Ev
	_ZN11QFocusEventD1Ev
	_ZN11QFocusEventD2Ev
	_ZN11QFontEngine11boundingBoxEjRK10QTransform
	_ZN11QFontEngine11glyphMarginENS_11GlyphFormatE
	_ZN11QFontEngine13setGlyphCacheEPKvP21QFontEngineGlyphCache
	_ZN11QFontEngine14bitmapForGlyphEj6QFixedRK10QTransform
	_ZN11QFontEngine15addGlyphsToPathEPjP11QFixedPointiP12QPainterPath6QFlagsIN9QTextItem10RenderFlagEE
	_ZN11QFontEngine15clearGlyphCacheEPKv
	_ZN11QFontEngine16addOutlineToPathEddRK12QGlyphLayoutP12QPainterPath6QFlagsIN9QTextItem10RenderFlagEE
	_ZN11QFontEngine16alphaMapForGlyphEj
	_ZN11QFontEngine16alphaMapForGlyphEj6QFixed
	_ZN11QFontEngine16alphaMapForGlyphEj6QFixedRK10QTransform
	_ZN11QFontEngine16alphaMapForGlyphEjRK10QTransform
	_ZN11QFontEngine16getGlyphBearingsEjPdS0_
	_ZN11QFontEngine16getUnscaledGlyphEjP12QPainterPathP15glyph_metrics_t
	_ZN11QFontEngine16lastRightBearingERK12QGlyphLayoutb
	_ZN11QFontEngine16loadKerningPairsE6QFixed
	_ZN11QFontEngine16tightBoundingBoxERK12QGlyphLayout
	_ZN11QFontEngine17getGlyphPositionsERK12QGlyphLayoutRK10QTransform6QFlagsIN9QTextItem10RenderFlagEER15QVarLengthArrayIjLi256EERSA_I11QFixedPointLi256EE
	_ZN11QFontEngine17getPointInOutlineEjijP6QFixedS1_Pj
	_ZN11QFontEngine19addBitmapFontToPathEddRK12QGlyphLayoutP12QPainterPath6QFlagsIN9QTextItem10RenderFlagEE
	_ZN11QFontEngine19alphaMapBoundingBoxEj6QFixedRK10QTransformNS_11GlyphFormatE
	_ZN11QFontEngine19alphaRGBMapForGlyphEj6QFixedRK10QTransform
	_ZN11QFontEngine19setDefaultHintStyleENS_9HintStyleE
	_ZN11QFontEngine20removeGlyphFromCacheEj
	_ZN11QFontEngine21getTrueTypeGlyphIndexEPKhj
	_ZN11QFontEngine22lockedAlphaMapForGlyphEj6QFixedNS_11GlyphFormatERK10QTransformP6QPoint
	_ZN11QFontEngine22unlockAlphaMapForGlyphEv
	_ZN11QFontEngine33convertToPostscriptFontFamilyNameERK10QByteArray
	_ZN11QFontEngine7getCMapEPKhjPbPi
	_ZN11QFontEngineC1ENS_4TypeE
	_ZN11QFontEngineC2ENS_4TypeE
	_ZN11QFontEngineD0Ev
	_ZN11QFontEngineD1Ev
	_ZN11QFontEngineD2Ev
	_ZN11QHoverEventC1EN6QEvent4TypeERK7QPointFS4_6QFlagsIN2Qt16KeyboardModifierEE
	_ZN11QHoverEventC2EN6QEvent4TypeERK7QPointFS4_6QFlagsIN2Qt16KeyboardModifierEE
	_ZN11QHoverEventD0Ev
	_ZN11QHoverEventD1Ev
	_ZN11QHoverEventD2Ev
	_ZN11QIconEngine10actualSizeERK5QSizeN5QIcon4ModeENS3_5StateE
	_ZN11QIconEngine12virtual_hookEiPv
	_ZN11QIconEngine4readER11QDataStream
	_ZN11QIconEngine6pixmapERK5QSizeN5QIcon4ModeENS3_5StateE
	_ZN11QIconEngine7addFileERK7QStringRK5QSizeN5QIcon4ModeENS6_5StateE
	_ZN11QIconEngine9addPixmapERK7QPixmapN5QIcon4ModeENS3_5StateE
	_ZN11QIconEngineD0Ev
	_ZN11QIconEngineD1Ev
	_ZN11QIconEngineD2Ev
	_ZN11QIconLoader12setThemeNameERK7QString
	_ZN11QIconLoader17ensureInitializedEv
	_ZN11QIconLoader17updateSystemThemeEv
	_ZN11QIconLoader18setThemeSearchPathERK11QStringList
	_ZN11QIconLoader8instanceEv
	_ZN11QIconLoaderC1Ev
	_ZN11QIconLoaderC2Ev
	_ZN11QInputEventC1EN6QEvent4TypeE6QFlagsIN2Qt16KeyboardModifierEE
	_ZN11QInputEventC2EN6QEvent4TypeE6QFlagsIN2Qt16KeyboardModifierEE
	_ZN11QInputEventD0Ev
	_ZN11QInputEventD1Ev
	_ZN11QInputEventD2Ev
	_ZN11QMouseEventC1EN6QEvent4TypeERK7QPointFN2Qt11MouseButtonE6QFlagsIS6_ES7_INS5_16KeyboardModifierEE
	_ZN11QMouseEventC1EN6QEvent4TypeERK7QPointFS4_N2Qt11MouseButtonE6QFlagsIS6_ES7_INS5_16KeyboardModifierEE
	_ZN11QMouseEventC1EN6QEvent4TypeERK7QPointFS4_S4_N2Qt11MouseButtonE6QFlagsIS6_ES7_INS5_16KeyboardModifierEE
	_ZN11QMouseEventC2EN6QEvent4TypeERK7QPointFN2Qt11MouseButtonE6QFlagsIS6_ES7_INS5_16KeyboardModifierEE
	_ZN11QMouseEventC2EN6QEvent4TypeERK7QPointFS4_N2Qt11MouseButtonE6QFlagsIS6_ES7_INS5_16KeyboardModifierEE
	_ZN11QMouseEventC2EN6QEvent4TypeERK7QPointFS4_S4_N2Qt11MouseButtonE6QFlagsIS6_ES7_INS5_16KeyboardModifierEE
	_ZN11QMouseEventD0Ev
	_ZN11QMouseEventD1Ev
	_ZN11QMouseEventD2Ev
	_ZN11QPageLayout10setMarginsERK9QMarginsF
	_ZN11QPageLayout11setPageSizeERK9QPageSizeRK9QMarginsF
	_ZN11QPageLayout12setTopMarginEd
	_ZN11QPageLayout13setLeftMarginEd
	_ZN11QPageLayout14setOrientationENS_11OrientationE
	_ZN11QPageLayout14setRightMarginEd
	_ZN11QPageLayout15setBottomMarginEd
	_ZN11QPageLayout17setMinimumMarginsERK9QMarginsF
	_ZN11QPageLayout7setModeENS_4ModeE
	_ZN11QPageLayout8setUnitsENS_4UnitE
	_ZN11QPageLayoutC1ERK9QPageSizeNS_11OrientationERK9QMarginsFNS_4UnitES6_
	_ZN11QPageLayoutC1ERKS_
	_ZN11QPageLayoutC1Ev
	_ZN11QPageLayoutC2ERK9QPageSizeNS_11OrientationERK9QMarginsFNS_4UnitES6_
	_ZN11QPageLayoutC2ERKS_
	_ZN11QPageLayoutC2Ev
	_ZN11QPageLayoutD1Ev
	_ZN11QPageLayoutD2Ev
	_ZN11QPageLayoutaSERKS_
	_ZN11QPaintEventC1ERK5QRect
	_ZN11QPaintEventC1ERK7QRegion
	_ZN11QPaintEventC2ERK5QRect
	_ZN11QPaintEventC2ERK7QRegion
	_ZN11QPaintEventD0Ev
	_ZN11QPaintEventD1Ev
	_ZN11QPaintEventD2Ev
	_ZN11QQuaternion16fromAxisAndAngleERK9QVector3Df
	_ZN11QQuaternion16fromAxisAndAngleEffff
	_ZN11QQuaternion5nlerpERKS_S1_f
	_ZN11QQuaternion5slerpERKS_S1_f
	_ZN11QQuaternion9normalizeEv
	_ZN11QSimpleDrag16platformDropDataEv
	_ZN11QSimpleDrag4dropEPK11QMouseEvent
	_ZN11QSimpleDrag4moveEPK11QMouseEvent
	_ZN11QSimpleDrag6cancelEv
	_ZN11QSimpleDrag9startDragEv
	_ZN11QSimpleDragC1Ev
	_ZN11QSimpleDragC2Ev
	_ZN11QStaticText12setTextWidthEd
	_ZN11QStaticText13setTextFormatEN2Qt10TextFormatE
	_ZN11QStaticText13setTextOptionERK11QTextOption
	_ZN11QStaticText18setPerformanceHintENS_15PerformanceHintE
	_ZN11QStaticText6detachEv
	_ZN11QStaticText7prepareERK10QTransformRK5QFont
	_ZN11QStaticText7setTextERK7QString
	_ZN11QStaticTextC1ERK7QString
	_ZN11QStaticTextC1ERKS_
	_ZN11QStaticTextC1Ev
	_ZN11QStaticTextC2ERK7QString
	_ZN11QStaticTextC2ERKS_
	_ZN11QStaticTextC2Ev
	_ZN11QStaticTextD1Ev
	_ZN11QStaticTextD2Ev
	_ZN11QStaticTextaSERKS_
	_ZN11QStrokerOps10strokePathERK12QPainterPathPvRK10QTransform
	_ZN11QStrokerOps13strokeEllipseERK6QRectFPvRK10QTransform
	_ZN11QStrokerOps13strokePolygonEPK7QPointFibPvRK10QTransform
	_ZN11QStrokerOps3endEv
	_ZN11QStrokerOps5beginEPv
	_ZN11QStrokerOpsC1Ev
	_ZN11QStrokerOpsC2Ev
	_ZN11QStrokerOpsD0Ev
	_ZN11QStrokerOpsD1Ev
	_ZN11QStrokerOpsD2Ev
	_ZN11QStyleHints11qt_metacallEN11QMetaObject4CallEiPPv
	_ZN11QStyleHints11qt_metacastEPKc
	_ZN11QStyleHints16setStartDragTimeEi
	_ZN11QStyleHints16staticMetaObjectE
	_ZN11QStyleHints18qt_static_metacallEP7QObjectN11QMetaObject4CallEiPPv
	_ZN11QStyleHints18setCursorFlashTimeEi
	_ZN11QStyleHints20setStartDragDistanceEi
	_ZN11QStyleHints24setKeyboardInputIntervalEi
	_ZN11QStyleHints27setMouseDoubleClickIntervalEi
	_ZN11QStyleHintsC1Ev
	_ZN11QStyleHintsC2Ev
	_ZN11QTextCursor10createListEN15QTextListFormat5StyleE
	_ZN11QTextCursor10createListERK15QTextListFormat
	_ZN11QTextCursor10deleteCharEv
	_ZN11QTextCursor10insertHtmlERK7QString
	_ZN11QTextCursor10insertListEN15QTextListFormat5StyleE
	_ZN11QTextCursor10insertListERK15QTextListFormat
	_ZN11QTextCursor10insertTextERK7QString
	_ZN11QTextCursor10insertTextERK7QStringRK15QTextCharFormat
	_ZN11QTextCursor11insertBlockERK16QTextBlockFormat
	_ZN11QTextCursor11insertBlockERK16QTextBlockFormatRK15QTextCharFormat
	_ZN11QTextCursor11insertBlockEv
	_ZN11QTextCursor11insertFrameERK16QTextFrameFormat
	_ZN11QTextCursor11insertImageERK16QTextImageFormat
	_ZN11QTextCursor11insertImageERK16QTextImageFormatN16QTextFrameFormat8PositionE
	_ZN11QTextCursor11insertImageERK6QImageRK7QString
	_ZN11QTextCursor11insertImageERK7QString
	_ZN11QTextCursor11insertTableEii
	_ZN11QTextCursor11insertTableEiiRK16QTextTableFormat
	_ZN11QTextCursor11setPositionEiNS_8MoveModeE
	_ZN11QTextCursor12endEditBlockEv
	_ZN11QTextCursor12movePositionENS_13MoveOperationENS_8MoveModeEi
	_ZN11QTextCursor13setCharFormatERK15QTextCharFormat
	_ZN11QTextCursor14beginEditBlockEv
	_ZN11QTextCursor14clearSelectionEv
	_ZN11QTextCursor14insertFragmentERK21QTextDocumentFragment
	_ZN11QTextCursor14setBlockFormatERK16QTextBlockFormat
	_ZN11QTextCursor15mergeCharFormatERK15QTextCharFormat
	_ZN11QTextCursor16mergeBlockFormatERK16QTextBlockFormat
	_ZN11QTextCursor18deletePreviousCharEv
	_ZN11QTextCursor18removeSelectedTextEv
	_ZN11QTextCursor18setBlockCharFormatERK15QTextCharFormat
	_ZN11QTextCursor19setVisualNavigationEb
	_ZN11QTextCursor20mergeBlockCharFormatERK15QTextCharFormat
	_ZN11QTextCursor20setVerticalMovementXEi
	_ZN11QTextCursor21joinPreviousEditBlockEv
	_ZN11QTextCursor23setKeepPositionOnInsertEb
	_ZN11QTextCursor6selectENS_13SelectionTypeE
	_ZN11QTextCursorC1EP10QTextFrame
	_ZN11QTextCursorC1EP13QTextDocument
	_ZN11QTextCursorC1EP18QTextCursorPrivate
	_ZN11QTextCursorC1EP20QTextDocumentPrivatei
	_ZN11QTextCursorC1ERK10QTextBlock
	_ZN11QTextCursorC1ERKS_
	_ZN11QTextCursorC1Ev
	_ZN11QTextCursorC2EP10QTextFrame
	_ZN11QTextCursorC2EP13QTextDocument
	_ZN11QTextCursorC2EP18QTextCursorPrivate
	_ZN11QTextCursorC2EP20QTextDocumentPrivatei
	_ZN11QTextCursorC2ERK10QTextBlock
	_ZN11QTextCursorC2ERKS_
	_ZN11QTextCursorC2Ev
	_ZN11QTextCursorD1Ev
	_ZN11QTextCursorD2Ev
	_ZN11QTextCursoraSERKS_
	_ZN11QTextEngine10LayoutData10reallocateEi
	_ZN11QTextEngine10LayoutDataC1ERK7QStringPPvi
	_ZN11QTextEngine10LayoutDataC1Ev
	_ZN11QTextEngine10LayoutDataC2ERK7QStringPPvi
	_ZN11QTextEngine10LayoutDataC2Ev
	_ZN11QTextEngine10LayoutDataD1Ev
	_ZN11QTextEngine10LayoutDataD2Ev
	_ZN11QTextEngine10freeMemoryEv
	_ZN11QTextEngine10invalidateEv
	_ZN11QTextEngine11addOverlineEP8QPainterRK6QLineF
	_ZN11QTextEngine11bidiReorderEiPKhPi
	_ZN11QTextEngine12addStrikeOutEP8QPainterRK6QLineF
	_ZN11QTextEngine12addUnderlineEP8QPainterRK6QLineF
	_ZN11QTextEngine13clearLineDataEv
	_ZN11QTextEngine14setPreeditAreaEiRK7QString
	_ZN11QTextEngine15beginningOfLineEi
	_ZN11QTextEngine15drawDecorationsEP8QPainter
	_ZN11QTextEngine16adjustUnderlinesEN5QListINS_14ItemDecorationEE8iteratorES3_dd
	_ZN11QTextEngine16adjustUnderlinesEv
	_ZN11QTextEngine16clearDecorationsEv
	_ZN11QTextEngine16getClusterLengthEPtPK15QCharAttributesiiiPi
	_ZN11QTextEngine16offsetInLigatureEPK11QScriptItemiii
	_ZN11QTextEngine17addItemDecorationEP8QPainterRK6QLineFP5QListINS_14ItemDecorationEE
	_ZN11QTextEngine17leadingSpaceWidthERK11QScriptLine
	_ZN11QTextEngine18positionInLigatureEPK11QScriptItemi6QFixedS3_ib
	_ZN11QTextEngine20resetFontEngineCacheEv
	_ZN11QTextEngine20setAdditionalFormatsERK5QListIN11QTextLayout11FormatRangeEE
	_ZN11QTextEngine22drawItemDecorationListEP8QPainterRK5QListINS_14ItemDecorationEE
	_ZN11QTextEngine22indexAdditionalFormatsEv
	_ZN11QTextEngine22insertionPointsForLineEiR7QVectorIiE
	_ZN11QTextEngine25lineNumberForTextPositionEi
	_ZN11QTextEngine27positionAfterVisualMovementEiN11QTextCursor13MoveOperationE
	_ZN11QTextEngine4initEPS_
	_ZN11QTextEngine7justifyERK11QScriptLine
	_ZN11QTextEngine9alignLineERK11QScriptLine
	_ZN11QTextEngine9endOfLineEi
	_ZN11QTextEngine9shapeLineERK11QScriptLine
	_ZN11QTextEngineC1ERK7QStringRK5QFont
	_ZN11QTextEngineC1Ev
	_ZN11QTextEngineC2ERK7QStringRK5QFont
	_ZN11QTextEngineC2Ev
	_ZN11QTextEngineD1Ev
	_ZN11QTextEngineD2Ev
	_ZN11QTextFormat11setPropertyEiRK7QVectorI11QTextLengthE
	_ZN11QTextFormat11setPropertyEiRK8QVariant
	_ZN11QTextFormat13clearPropertyEi
	_ZN11QTextFormat13setBackgroundERK6QBrush
	_ZN11QTextFormat14setObjectIndexEi
	_ZN11QTextFormat16staticMetaObjectE
	_ZN11QTextFormat5mergeERKS_
	_ZN11QTextFormatC1ERKS_
	_ZN11QTextFormatC1Ei
	_ZN11QTextFormatC1Ev
	_ZN11QTextFormatC2ERKS_
	_ZN11QTextFormatC2Ei
	_ZN11QTextFormatC2Ev
	_ZN11QTextFormatD1Ev
	_ZN11QTextFormatD2Ev
	_ZN11QTextFormataSERKS_
	_ZN11QTextLayout10createLineEv
	_ZN11QTextLayout10setRawFontERK8QRawFont
	_ZN11QTextLayout11beginLayoutEv
	_ZN11QTextLayout11clearLayoutEv
	_ZN11QTextLayout11setPositionERK7QPointF
	_ZN11QTextLayout13setTextOptionERK11QTextOption
	_ZN11QTextLayout14setPreeditAreaEiRK7QString
	_ZN11QTextLayout15setCacheEnabledEb
	_ZN11QTextLayout18setCursorMoveStyleEN2Qt15CursorMoveStyleE
	_ZN11QTextLayout20setAdditionalFormatsERK5QListINS_11FormatRangeEE
	_ZN11QTextLayout22clearAdditionalFormatsEv
	_ZN11QTextLayout7setFontERK5QFont
	_ZN11QTextLayout7setTextERK7QString
	_ZN11QTextLayout8setFlagsEi
	_ZN11QTextLayout9endLayoutEv
	_ZN11QTextLayoutC1ERK10QTextBlock
	_ZN11QTextLayoutC1ERK7QString
	_ZN11QTextLayoutC1ERK7QStringRK5QFontP12QPaintDevice
	_ZN11QTextLayoutC1Ev
	_ZN11QTextLayoutC2ERK10QTextBlock
	_ZN11QTextLayoutC2ERK7QString
	_ZN11QTextLayoutC2ERK7QStringRK5QFontP12QPaintDevice
	_ZN11QTextLayoutC2Ev
	_ZN11QTextLayoutD1Ev
	_ZN11QTextLayoutD2Ev
	_ZN11QTextObject11qt_metacallEN11QMetaObject4CallEiPPv
	_ZN11QTextObject11qt_metacastEPKc
	_ZN11QTextObject16staticMetaObjectE
	_ZN11QTextObject18qt_static_metacallEP7QObjectN11QMetaObject4CallEiPPv
	_ZN11QTextObject9setFormatERK11QTextFormat
	_ZN11QTextObjectC1EP13QTextDocument
	_ZN11QTextObjectC1ER18QTextObjectPrivateP13QTextDocument
	_ZN11QTextObjectC2EP13QTextDocument
	_ZN11QTextObjectC2ER18QTextObjectPrivateP13QTextDocument
	_ZN11QTextObjectD0Ev
	_ZN11QTextObjectD1Ev
	_ZN11QTextObjectD2Ev
	_ZN11QTextOption11setTabArrayERK5QListIdE
	_ZN11QTextOption7setTabsERK5QListINS_3TabEE
	_ZN11QTextOptionC1E6QFlagsIN2Qt13AlignmentFlagEE
	_ZN11QTextOptionC1ERKS_
	_ZN11QTextOptionC1Ev
	_ZN11QTextOptionC2E6QFlagsIN2Qt13AlignmentFlagEE
	_ZN11QTextOptionC2ERKS_
	_ZN11QTextOptionC2Ev
	_ZN11QTextOptionD1Ev
	_ZN11QTextOptionD2Ev
	_ZN11QTextOptionaSERKS_
	_ZN11QTouchEvent10TouchPoint10setLastPosERK7QPointF
	_ZN11QTouchEvent10TouchPoint11setPressureEd
	_ZN11QTouchEvent10TouchPoint11setScenePosERK7QPointF
	_ZN11QTouchEvent10TouchPoint11setStartPosERK7QPointF
	_ZN11QTouchEvent10TouchPoint11setVelocityERK9QVector2D
	_ZN11QTouchEvent10TouchPoint12setSceneRectERK6QRectF
	_ZN11QTouchEvent10TouchPoint12setScreenPosERK7QPointF
	_ZN11QTouchEvent10TouchPoint13setScreenRectERK6QRectF
	_ZN11QTouchEvent10TouchPoint15setLastScenePosERK7QPointF
	_ZN11QTouchEvent10TouchPoint16setLastScreenPosERK7QPointF
	_ZN11QTouchEvent10TouchPoint16setNormalizedPosERK7QPointF
	_ZN11QTouchEvent10TouchPoint16setStartScenePosERK7QPointF
	_ZN11QTouchEvent10TouchPoint17setStartScreenPosERK7QPointF
	_ZN11QTouchEvent10TouchPoint20setLastNormalizedPosERK7QPointF
	_ZN11QTouchEvent10TouchPoint21setRawScreenPositionsERK7QVectorI7QPointFE
	_ZN11QTouchEvent10TouchPoint21setStartNormalizedPosERK7QPointF
	_ZN11QTouchEvent10TouchPoint5setIdEi
	_ZN11QTouchEvent10TouchPoint6setPosERK7QPointF
	_ZN11QTouchEvent10TouchPoint7setRectERK6QRectF
	_ZN11QTouchEvent10TouchPoint8setFlagsE6QFlagsINS0_8InfoFlagEE
	_ZN11QTouchEvent10TouchPoint8setStateE6QFlagsIN2Qt15TouchPointStateEE
	_ZN11QTouchEvent10TouchPointC1ERKS0_
	_ZN11QTouchEvent10TouchPointC1Ei
	_ZN11QTouchEvent10TouchPointC2ERKS0_
	_ZN11QTouchEvent10TouchPointC2Ei
	_ZN11QTouchEvent10TouchPointD1Ev
	_ZN11QTouchEvent10TouchPointD2Ev
	_ZN11QTouchEventC1EN6QEvent4TypeEP12QTouchDevice6QFlagsIN2Qt16KeyboardModifierEES4_INS5_15TouchPointStateEERK5QListINS_10TouchPointEE
	_ZN11QTouchEventC2EN6QEvent4TypeEP12QTouchDevice6QFlagsIN2Qt16KeyboardModifierEES4_INS5_15TouchPointStateEERK5QListINS_10TouchPointEE
	_ZN11QTouchEventD0Ev
	_ZN11QTouchEventD1Ev
	_ZN11QTouchEventD2Ev
	_ZN11QVectorPathD1Ev
	_ZN11QVectorPathD2Ev
	_ZN11QWheelEventC1ERK7QPointFS2_6QPointS3_iN2Qt11OrientationE6QFlagsINS4_11MouseButtonEES6_INS4_16KeyboardModifierEE
	_ZN11QWheelEventC1ERK7QPointFS2_6QPointS3_iN2Qt11OrientationE6QFlagsINS4_11MouseButtonEES6_INS4_16KeyboardModifierEENS4_11ScrollPhaseE
	_ZN11QWheelEventC1ERK7QPointFS2_i6QFlagsIN2Qt11MouseButtonEES3_INS4_16KeyboardModifierEENS4_11OrientationE
	_ZN11QWheelEventC1ERK7QPointFi6QFlagsIN2Qt11MouseButtonEES3_INS4_16KeyboardModifierEENS4_11OrientationE
	_ZN11QWheelEventC2ERK7QPointFS2_6QPointS3_iN2Qt11OrientationE6QFlagsINS4_11MouseButtonEES6_INS4_16KeyboardModifierEE
	_ZN11QWheelEventC2ERK7QPointFS2_6QPointS3_iN2Qt11OrientationE6QFlagsINS4_11MouseButtonEES6_INS4_16KeyboardModifierEENS4_11ScrollPhaseE
	_ZN11QWheelEventC2ERK7QPointFS2_i6QFlagsIN2Qt11MouseButtonEES3_INS4_16KeyboardModifierEENS4_11OrientationE
	_ZN11QWheelEventC2ERK7QPointFi6QFlagsIN2Qt11MouseButtonEES3_INS4_16KeyboardModifierEENS4_11OrientationE
	_ZN11QWheelEventD0Ev
	_ZN11QWheelEventD1Ev
	_ZN11QWheelEventD2Ev
	_ZN12QActionEventC1EiP7QActionS1_
	_ZN12QActionEventC2EiP7QActionS1_
	_ZN12QActionEventD0Ev
	_ZN12QActionEventD1Ev
	_ZN12QActionEventD2Ev
	_ZN12QDashStroker15patternForStyleEN2Qt8PenStyleE
	_ZN12QDashStroker21processCurrentSubpathEv
	_ZN12QDashStroker3endEv
	_ZN12QDashStroker5beginEPv
	_ZN12QDashStrokerC1EP8QStroker
	_ZN12QDashStrokerC2EP8QStroker
	_ZN12QDashStrokerD0Ev
	_ZN12QDashStrokerD1Ev
	_ZN12QDashStrokerD2Ev
	_ZN12QDragManager10m_instanceE
	_ZN12QDragManager11qt_metacallEN11QMetaObject4CallEiPPv
	_ZN12QDragManager11qt_metacastEPKc
	_ZN12QDragManager16setCurrentTargetEP7QObjectb
	_ZN12QDragManager16staticMetaObjectE
	_ZN12QDragManager18qt_static_metacallEP7QObjectN11QMetaObject4CallEiPPv
	_ZN12QDragManager4dragEP5QDrag
	_ZN12QDragManager4selfEv
	_ZN12QDragManagerC1Ev
	_ZN12QDragManagerC2Ev
	_ZN12QDragManagerD0Ev
	_ZN12QDragManagerD1Ev
	_ZN12QDragManagerD2Ev
	_ZN12QExposeEventC1ERK7QRegion
	_ZN12QExposeEventC2ERK7QRegion
	_ZN12QExposeEventD0Ev
	_ZN12QExposeEventD1Ev
	_ZN12QExposeEventD2Ev
	_ZN12QFontMetricsC1ERK5QFont
	_ZN12QFontMetricsC1ERK5QFontP12QPaintDevice
	_ZN12QFontMetricsC1ERKS_
	_ZN12QFontMetricsC2ERK5QFont
	_ZN12QFontMetricsC2ERK5QFontP12QPaintDevice
	_ZN12QFontMetricsC2ERKS_
	_ZN12QFontMetricsD1Ev
	_ZN12QFontMetricsD2Ev
	_ZN12QFontMetricsaSERKS_
	_ZN12QFontPrivate23detachButKeepEngineDataEP5QFont
	_ZN12QFontPrivate7resolveEjPKS_
	_ZN12QFontPrivateC1ERKS_
	_ZN12QFontPrivateC1Ev
	_ZN12QFontPrivateC2ERKS_
	_ZN12QFontPrivateC2Ev
	_ZN12QFontPrivateD1Ev
	_ZN12QFontPrivateD2Ev
	_ZN12QImageReader10setQualityEi
	_ZN12QImageReader11imageFormatEP9QIODevice
	_ZN12QImageReader11imageFormatERK7QString
	_ZN12QImageReader11jumpToImageEi
	_ZN12QImageReader11setClipRectERK5QRect
	_ZN12QImageReader11setFileNameERK7QString
	_ZN12QImageReader13setScaledSizeERK5QSize
	_ZN12QImageReader15jumpToNextImageEv
	_ZN12QImageReader17setScaledClipRectERK5QRect
	_ZN12QImageReader18setBackgroundColorERK6QColor
	_ZN12QImageReader18supportedMimeTypesEv
	_ZN12QImageReader21supportedImageFormatsEv
	_ZN12QImageReader24setAutoDetectImageFormatEb
	_ZN12QImageReader26setDecideFormatFromContentEb
	_ZN12QImageReader4readEP6QImage
	_ZN12QImageReader4readEv
	_ZN12QImageReader9setDeviceEP9QIODevice
	_ZN12QImageReader9setFormatERK10QByteArray
	_ZN12QImageReaderC1EP9QIODeviceRK10QByteArray
	_ZN12QImageReaderC1ERK7QStringRK10QByteArray
	_ZN12QImageReaderC1Ev
	_ZN12QImageReaderC2EP9QIODeviceRK10QByteArray
	_ZN12QImageReaderC2ERK7QStringRK10QByteArray
	_ZN12QImageReaderC2Ev
	_ZN12QImageReaderD1Ev
	_ZN12QImageReaderD2Ev
	_ZN12QImageWriter10setQualityEi
	_ZN12QImageWriter11setFileNameERK7QString
	_ZN12QImageWriter14setCompressionEi
	_ZN12QImageWriter14setDescriptionERK7QString
	_ZN12QImageWriter18supportedMimeTypesEv
	_ZN12QImageWriter21supportedImageFormatsEv
	_ZN12QImageWriter5writeERK6QImage
	_ZN12QImageWriter7setTextERK7QStringS2_
	_ZN12QImageWriter8setGammaEf
	_ZN12QImageWriter9setDeviceEP9QIODevice
	_ZN12QImageWriter9setFormatERK10QByteArray
	_ZN12QImageWriterC1EP9QIODeviceRK10QByteArray
	_ZN12QImageWriterC1ERK7QStringRK10QByteArray
	_ZN12QImageWriterC1Ev
	_ZN12QImageWriterC2EP9QIODeviceRK10QByteArray
	_ZN12QImageWriterC2ERK7QStringRK10QByteArray
	_ZN12QImageWriterC2Ev
	_ZN12QImageWriterD1Ev
	_ZN12QImageWriterD2Ev
	_ZN12QInputMethod10setVisibleEb
	_ZN12QInputMethod11qt_metacallEN11QMetaObject4CallEiPPv
	_ZN12QInputMethod11qt_metacastEPKc
	_ZN12QInputMethod12invokeActionENS_6ActionEi
	_ZN12QInputMethod13localeChangedEv
	_ZN12QInputMethod14visibleChangedEv
	_ZN12QInputMethod16animatingChangedEv
	_ZN12QInputMethod16queryFocusObjectEN2Qt16InputMethodQueryE8QVariant
	_ZN12QInputMethod16staticMetaObjectE
	_ZN12QInputMethod18qt_static_metacallEP7QObjectN11QMetaObject4CallEiPPv
	_ZN12QInputMethod21inputDirectionChangedEN2Qt15LayoutDirectionE
	_ZN12QInputMethod21setInputItemRectangleERK6QRectF
	_ZN12QInputMethod21setInputItemTransformERK10QTransform
	_ZN12QInputMethod22cursorRectangleChangedEv
	_ZN12QInputMethod24keyboardRectangleChangedEv
	_ZN12QInputMethod4hideEv
	_ZN12QInputMethod4showEv
	_ZN12QInputMethod5resetEv
	_ZN12QInputMethod6commitEv
	_ZN12QInputMethod6updateE6QFlagsIN2Qt16InputMethodQueryEE
	_ZN12QInputMethodC1Ev
	_ZN12QInputMethodC2Ev
	_ZN12QInputMethodD0Ev
	_ZN12QInputMethodD1Ev
	_ZN12QInputMethodD2Ev
	_ZN12QKeySequence10fromStringERK7QStringNS_14SequenceFormatE
	_ZN12QKeySequence11keyBindingsENS_11StandardKeyE
	_ZN12QKeySequence12decodeStringERK7QString
	_ZN12QKeySequence12encodeStringEi
	_ZN12QKeySequence12listToStringERK5QListIS_ENS_14SequenceFormatE
	_ZN12QKeySequence14listFromStringERK7QStringNS_14SequenceFormatE
	_ZN12QKeySequence16staticMetaObjectE
	_ZN12QKeySequence6assignERK7QString
	_ZN12QKeySequence6assignERK7QStringNS_14SequenceFormatE
	_ZN12QKeySequence6setKeyEii
	_ZN12QKeySequence8mnemonicERK7QString
	_ZN12QKeySequenceC1ENS_11StandardKeyE
	_ZN12QKeySequenceC1ERK7QStringNS_14SequenceFormatE
	_ZN12QKeySequenceC1ERKS_
	_ZN12QKeySequenceC1Eiiii
	_ZN12QKeySequenceC1Ev
	_ZN12QKeySequenceC2ENS_11StandardKeyE
	_ZN12QKeySequenceC2ERK7QStringNS_14SequenceFormatE
	_ZN12QKeySequenceC2ERKS_
	_ZN12QKeySequenceC2Eiiii
	_ZN12QKeySequenceC2Ev
	_ZN12QKeySequenceD1Ev
	_ZN12QKeySequenceD2Ev
	_ZN12QKeySequenceaSERKS_
	_ZN12QPaintBuffer13beginNewFrameEv
	_ZN12QPaintBuffer15setBoundingRectERK6QRectF
	_ZN12QPaintBufferC1ERKS_
	_ZN12QPaintBufferC1Ev
	_ZN12QPaintBufferC2ERKS_
	_ZN12QPaintBufferC2Ev
	_ZN12QPaintBufferD0Ev
	_ZN12QPaintBufferD1Ev
	_ZN12QPaintBufferD2Ev
	_ZN12QPaintBufferaSERKS_
	_ZN12QPaintDeviceC1Ev
	_ZN12QPaintDeviceC2Ev
	_ZN12QPaintDeviceD0Ev
	_ZN12QPaintDeviceD1Ev
	_ZN12QPaintDeviceD2Ev
	_ZN12QPaintEngine10drawPointsEPK6QPointi
	_ZN12QPaintEngine10drawPointsEPK7QPointFi
	_ZN12QPaintEngine11drawEllipseERK5QRect
	_ZN12QPaintEngine11drawEllipseERK6QRectF
	_ZN12QPaintEngine11drawPolygonEPK6QPointiNS_15PolygonDrawModeE
	_ZN12QPaintEngine11drawPolygonEPK7QPointFiNS_15PolygonDrawModeE
	_ZN12QPaintEngine12drawTextItemERK7QPointFRK9QTextItem
	_ZN12QPaintEngine13setSystemClipERK7QRegion
	_ZN12QPaintEngine13setSystemRectERK5QRect
	_ZN12QPaintEngine14setPaintDeviceEP12QPaintDevice
	_ZN12QPaintEngine15drawTiledPixmapERK6QRectFRK7QPixmapRK7QPointF
	_ZN12QPaintEngine8drawPathERK12QPainterPath
	_ZN12QPaintEngine9drawImageERK6QRectFRK6QImageS2_6QFlagsIN2Qt19ImageConversionFlagEE
	_ZN12QPaintEngine9drawLinesEPK5QLinei
	_ZN12QPaintEngine9drawLinesEPK6QLineFi
	_ZN12QPaintEngine9drawRectsEPK5QRecti
	_ZN12QPaintEngine9drawRectsEPK6QRectFi
	_ZN12QPaintEngine9syncStateEv
	_ZN12QPaintEngineC1E6QFlagsINS_18PaintEngineFeatureEE
	_ZN12QPaintEngineC1ER19QPaintEnginePrivate6QFlagsINS_18PaintEngineFeatureEE
	_ZN12QPaintEngineC2E6QFlagsINS_18PaintEngineFeatureEE
	_ZN12QPaintEngineC2ER19QPaintEnginePrivate6QFlagsINS_18PaintEngineFeatureEE
	_ZN12QPaintEngineD0Ev
	_ZN12QPaintEngineD1Ev
	_ZN12QPaintEngineD2Ev
	_ZN12QPainterPath10addEllipseERK6QRectF
	_ZN12QPainterPath10addPolygonERK9QPolygonF
	_ZN12QPainterPath11connectPathERKS_
	_ZN12QPainterPath11setFillRuleEN2Qt8FillRuleE
	_ZN12QPainterPath12addRoundRectERK6QRectFii
	_ZN12QPainterPath12closeSubpathEv
	_ZN12QPainterPath13detach_helperEv
	_ZN12QPainterPath14addRoundedRectERK6QRectFddN2Qt8SizeModeE
	_ZN12QPainterPath17ensureData_helperEv
	_ZN12QPainterPath20setElementPositionAtEidd
	_ZN12QPainterPath5arcToERK6QRectFdd
	_ZN12QPainterPath6detachEv
	_ZN12QPainterPath6lineToERK7QPointF
	_ZN12QPainterPath6moveToERK7QPointF
	_ZN12QPainterPath6quadToERK7QPointFS2_
	_ZN12QPainterPath7addPathERKS_
	_ZN12QPainterPath7addRectERK6QRectF
	_ZN12QPainterPath7addTextERK7QPointFRK5QFontRK7QString
	_ZN12QPainterPath7cubicToERK7QPointFS2_S2_
	_ZN12QPainterPath8setDirtyEb
	_ZN12QPainterPath9addRegionERK7QRegion
	_ZN12QPainterPath9arcMoveToERK6QRectFd
	_ZN12QPainterPath9translateEdd
	_ZN12QPainterPathC1ERK7QPointF
	_ZN12QPainterPathC1ERKS_
	_ZN12QPainterPathC1Ev
	_ZN12QPainterPathC2ERK7QPointF
	_ZN12QPainterPathC2ERKS_
	_ZN12QPainterPathC2Ev
	_ZN12QPainterPathD1Ev
	_ZN12QPainterPathD2Ev
	_ZN12QPainterPathaNERKS_
	_ZN12QPainterPathaSERKS_
	_ZN12QPainterPathmIERKS_
	_ZN12QPainterPathoRERKS_
	_ZN12QPainterPathpLERKS_
	_ZN12QPathClipper10pathToRectERK12QPainterPathP6QRectF
	_ZN12QPathClipper19handleCrossingEdgesER11QWingedEdgedNS_11ClipperModeE
	_ZN12QPathClipper4clipENS_9OperationE
	_ZN12QPathClipper6doClipER11QWingedEdgeNS_11ClipperModeE
	_ZN12QPathClipper8containsEv
	_ZN12QPathClipper9intersectERK12QPainterPathRK6QRectF
	_ZN12QPathClipper9intersectEv
	_ZN12QPathClipperC1ERK12QPainterPathS2_
	_ZN12QPathClipperC2ERK12QPainterPathS2_
	_ZN12QPixmapCache10allPixmapsEv
	_ZN12QPixmapCache10cacheLimitEv
	_ZN12QPixmapCache13setCacheLimitEi
	_ZN12QPixmapCache20flushDetachedPixmapsEv
	_ZN12QPixmapCache3KeyC1ERKS0_
	_ZN12QPixmapCache3KeyC1Ev
	_ZN12QPixmapCache3KeyC2ERKS0_
	_ZN12QPixmapCache3KeyC2Ev
	_ZN12QPixmapCache3KeyD1Ev
	_ZN12QPixmapCache3KeyD2Ev
	_ZN12QPixmapCache3KeyaSERKS0_
	_ZN12QPixmapCache4findERK7QString
	_ZN12QPixmapCache4findERK7QStringP7QPixmap
	_ZN12QPixmapCache4findERK7QStringR7QPixmap
	_ZN12QPixmapCache4findERKNS_3KeyEP7QPixmap
	_ZN12QPixmapCache5clearEv
	_ZN12QPixmapCache6insertERK7QPixmap
	_ZN12QPixmapCache6insertERK7QStringRK7QPixmap
	_ZN12QPixmapCache6removeERK7QString
	_ZN12QPixmapCache6removeERKNS_3KeyE
	_ZN12QPixmapCache7replaceERKNS_3KeyERK7QPixmap
	_ZN12QPixmapCache9totalUsedEv
	_ZN12QResizeEventC1ERK5QSizeS2_
	_ZN12QResizeEventC2ERK5QSizeS2_
	_ZN12QResizeEventD0Ev
	_ZN12QResizeEventD1Ev
	_ZN12QResizeEventD2Ev
	_ZN12QScrollEventC1ERK7QPointFS2_NS_11ScrollStateE
	_ZN12QScrollEventC2ERK7QPointFS2_NS_11ScrollStateE
	_ZN12QScrollEventD0Ev
	_ZN12QScrollEventD1Ev
	_ZN12QScrollEventD2Ev
	_ZN12QShortcutMap10resetStateEv
	_ZN12QShortcutMap11addShortcutEP7QObjectRK12QKeySequenceN2Qt15ShortcutContextEPFbS1_S6_E
	_ZN12QShortcutMap13clearSequenceER7QVectorI12QKeySequenceE
	_ZN12QShortcutMap13dispatchEventEP9QKeyEvent
	_ZN12QShortcutMap14removeShortcutEiP7QObjectRK12QKeySequence
	_ZN12QShortcutMap16tryShortcutEventEP7QObjectP9QKeyEvent
	_ZN12QShortcutMap18createNewSequencesEP9QKeyEventR7QVectorI12QKeySequenceE
	_ZN12QShortcutMap18setShortcutEnabledEbiP7QObjectRK12QKeySequence
	_ZN12QShortcutMap18translateModifiersE6QFlagsIN2Qt16KeyboardModifierEE
	_ZN12QShortcutMap21setShortcutAutoRepeatEbiP7QObjectRK12QKeySequence
	_ZN12QShortcutMap4findEP9QKeyEvent
	_ZN12QShortcutMap5stateEv
	_ZN12QShortcutMap9nextStateEP9QKeyEvent
	_ZN12QShortcutMapC1Ev
	_ZN12QShortcutMapC2Ev
	_ZN12QShortcutMapD1Ev
	_ZN12QShortcutMapD2Ev
	_ZN12QTabletEventC1EN6QEvent4TypeERK7QPointFS4_iidiiddi6QFlagsIN2Qt16KeyboardModifierEEx
	_ZN12QTabletEventC2EN6QEvent4TypeERK7QPointFS4_iidiiddi6QFlagsIN2Qt16KeyboardModifierEEx
	_ZN12QTabletEventD0Ev
	_ZN12QTabletEventD1Ev
	_ZN12QTabletEventD2Ev
	_ZN12QTouchDevice15setCapabilitiesE6QFlagsINS_14CapabilityFlagEE
	_ZN12QTouchDevice21setMaximumTouchPointsEi
	_ZN12QTouchDevice7devicesEv
	_ZN12QTouchDevice7setNameERK7QString
	_ZN12QTouchDevice7setTypeENS_10DeviceTypeE
	_ZN12QTouchDeviceC1Ev
	_ZN12QTouchDeviceC2Ev
	_ZN12QTouchDeviceD1Ev
	_ZN12QTouchDeviceD2Ev
	_ZN13QBackingStore10beginPaintERK7QRegion
	_ZN13QBackingStore11paintDeviceEv
	_ZN13QBackingStore17setStaticContentsERK7QRegion
	_ZN13QBackingStore5flushERK7QRegionP7QWindowRK6QPoint
	_ZN13QBackingStore6resizeERK5QSize
	_ZN13QBackingStore6scrollERK7QRegionii
	_ZN13QBackingStore8endPaintEv
	_ZN13QBackingStoreC1EP7QWindow
	_ZN13QBackingStoreC2EP7QWindow
	_ZN13QBackingStoreD1Ev
	_ZN13QBackingStoreD2Ev
	_ZN13QFontDatabase10pointSizesERK7QStringS2_
	_ZN13QFontDatabase10systemFontENS_10SystemFontE
	_ZN13QFontDatabase11smoothSizesERK7QStringS2_
	_ZN13QFontDatabase11styleStringERK5QFont
	_ZN13QFontDatabase11styleStringERK9QFontInfo
	_ZN13QFontDatabase13parseFontNameERK7QStringRS0_S3_
	_ZN13QFontDatabase13standardSizesEv
	_ZN13QFontDatabase14createDatabaseEv
	_ZN13QFontDatabase16staticMetaObjectE
	_ZN13QFontDatabase17writingSystemNameENS_13WritingSystemE
	_ZN13QFontDatabase18addApplicationFontERK7QString
	_ZN13QFontDatabase19writingSystemSampleENS_13WritingSystemE
	_ZN13QFontDatabase21removeApplicationFontEi
	_ZN13QFontDatabase22resolveFontFamilyAliasERK7QString
	_ZN13QFontDatabase23applicationFontFamiliesEi
	_ZN13QFontDatabase25removeAllApplicationFontsEv
	_ZN13QFontDatabase26addApplicationFontFromDataERK10QByteArray
	_ZN13QFontDatabase29supportsThreadedFontRenderingEv
	_ZN13QFontDatabase4loadEPK12QFontPrivatei
	_ZN13QFontDatabase8findFontEiPK12QFontPrivateRK8QFontDefb
	_ZN13QFontDatabaseC1Ev
	_ZN13QFontDatabaseC2Ev
	_ZN13QFontMetricsFC1ERK12QFontMetrics
	_ZN13QFontMetricsFC1ERK5QFont
	_ZN13QFontMetricsFC1ERK5QFontP12QPaintDevice
	_ZN13QFontMetricsFC1ERKS_
	_ZN13QFontMetricsFC2ERK12QFontMetrics
	_ZN13QFontMetricsFC2ERK5QFont
	_ZN13QFontMetricsFC2ERK5QFontP12QPaintDevice
	_ZN13QFontMetricsFC2ERKS_
	_ZN13QFontMetricsFD1Ev
	_ZN13QFontMetricsFD2Ev
	_ZN13QFontMetricsFaSERK12QFontMetrics
	_ZN13QFontMetricsFaSERKS_
	_ZN13QIntValidator10topChangedEi
	_ZN13QIntValidator11qt_metacallEN11QMetaObject4CallEiPPv
	_ZN13QIntValidator11qt_metacastEPKc
	_ZN13QIntValidator13bottomChangedEi
	_ZN13QIntValidator16staticMetaObjectE
	_ZN13QIntValidator18qt_static_metacallEP7QObjectN11QMetaObject4CallEiPPv
	_ZN13QIntValidator6setTopEi
	_ZN13QIntValidator8setRangeEii
	_ZN13QIntValidator9setBottomEi
	_ZN13QIntValidatorC1EP7QObject
	_ZN13QIntValidatorC1EiiP7QObject
	_ZN13QIntValidatorC2EP7QObject
	_ZN13QIntValidatorC2EiiP7QObject
	_ZN13QIntValidatorD0Ev
	_ZN13QIntValidatorD1Ev
	_ZN13QIntValidatorD2Ev
	_ZN13QLayoutPolicy14setControlTypeENS_11ControlTypeE
	_ZN13QOpenGLBuffer15setUsagePatternENS_12UsagePatternE
	_ZN13QOpenGLBuffer3mapENS_6AccessE
	_ZN13QOpenGLBuffer4bindEv
	_ZN13QOpenGLBuffer4readEiPvi
	_ZN13QOpenGLBuffer5unmapEv
	_ZN13QOpenGLBuffer5writeEiPKvi
	_ZN13QOpenGLBuffer6createEv
	_ZN13QOpenGLBuffer7destroyEv
	_ZN13QOpenGLBuffer7releaseENS_4TypeE
	_ZN13QOpenGLBuffer7releaseEv
	_ZN13QOpenGLBuffer8allocateEPKvi
	_ZN13QOpenGLBufferC1ENS_4TypeE
	_ZN13QOpenGLBufferC1ERKS_
	_ZN13QOpenGLBufferC1Ev
	_ZN13QOpenGLBufferC2ENS_4TypeE
	_ZN13QOpenGLBufferC2ERKS_
	_ZN13QOpenGLBufferC2Ev
	_ZN13QOpenGLBufferD1Ev
	_ZN13QOpenGLBufferD2Ev
	_ZN13QOpenGLBufferaSERKS_
	_ZN13QOpenGLShader11qt_metacallEN11QMetaObject4CallEiPPv
	_ZN13QOpenGLShader11qt_metacastEPKc
	_ZN13QOpenGLShader16hasOpenGLShadersE6QFlagsINS_13ShaderTypeBitEEP14QOpenGLContext
	_ZN13QOpenGLShader16staticMetaObjectE
	_ZN13QOpenGLShader17compileSourceCodeEPKc
	_ZN13QOpenGLShader17compileSourceCodeERK10QByteArray
	_ZN13QOpenGLShader17compileSourceCodeERK7QString
	_ZN13QOpenGLShader17compileSourceFileERK7QString
	_ZN13QOpenGLShader18qt_static_metacallEP7QObjectN11QMetaObject4CallEiPPv
	_ZN13QOpenGLShaderC1E6QFlagsINS_13ShaderTypeBitEEP7QObject
	_ZN13QOpenGLShaderC2E6QFlagsINS_13ShaderTypeBitEEP7QObject
	_ZN13QOpenGLShaderD0Ev
	_ZN13QOpenGLShaderD1Ev
	_ZN13QOpenGLShaderD2Ev
	_ZN13QPainterState4initEP8QPainter
	_ZN13QPainterStateC1EPKS_
	_ZN13QPainterStateC1Ev
	_ZN13QPainterStateC2EPKS_
	_ZN13QPainterStateC2Ev
	_ZN13QPainterStateD0Ev
	_ZN13QPainterStateD1Ev
	_ZN13QPainterStateD2Ev
	_ZN13QPlatformDrag12updateActionEN2Qt10DropActionE
	_ZN13QPlatformDrag13defaultPixmapEv
	_ZN13QPlatformDragC1Ev
	_ZN13QPlatformDragC2Ev
	_ZN13QPlatformDragD0Ev
	_ZN13QPlatformDragD1Ev
	_ZN13QPlatformDragD2Ev
	_ZN13QPlatformMenu11aboutToHideEv
	_ZN13QPlatformMenu11aboutToShowEv
	_ZN13QPlatformMenu11qt_metacallEN11QMetaObject4CallEiPPv
	_ZN13QPlatformMenu11qt_metacastEPKc
	_ZN13QPlatformMenu15setMinimumWidthEi
	_ZN13QPlatformMenu16staticMetaObjectE
	_ZN13QPlatformMenu18qt_static_metacallEP7QObjectN11QMetaObject4CallEiPPv
	_ZN13QPlatformMenu7dismissEv
	_ZN13QPlatformMenu7setFontERK5QFont
	_ZN13QPlatformMenu9showPopupEPK7QWindow6QPointPK17QPlatformMenuItem
	_ZN13QStandardItem10insertRowsEiRK5QListIPS_E
	_ZN13QStandardItem10insertRowsEii
	_ZN13QStandardItem10removeRowsEii
	_ZN13QStandardItem10setEnabledEb
	_ZN13QStandardItem10takeColumnEi
	_ZN13QStandardItem11setEditableEb
	_ZN13QStandardItem11setRowCountEi
	_ZN13QStandardItem11setTristateEb
	_ZN13QStandardItem12insertColumnEiRK5QListIPS_E
	_ZN13QStandardItem12removeColumnEi
	_ZN13QStandardItem12setCheckableEb
	_ZN13QStandardItem12sortChildrenEiN2Qt9SortOrderE
	_ZN13QStandardItem13insertColumnsEii
	_ZN13QStandardItem13removeColumnsEii
	_ZN13QStandardItem13setSelectableEb
	_ZN13QStandardItem14setColumnCountEi
	_ZN13QStandardItem14setDragEnabledEb
	_ZN13QStandardItem14setDropEnabledEb
	_ZN13QStandardItem15emitDataChangedEv
	_ZN13QStandardItem4readER11QDataStream
	_ZN13QStandardItem7setDataERK8QVarianti
	_ZN13QStandardItem7takeRowEi
	_ZN13QStandardItem8setChildEiiPS_
	_ZN13QStandardItem8setFlagsE6QFlagsIN2Qt8ItemFlagEE
	_ZN13QStandardItem9insertRowEiRK5QListIPS_E
	_ZN13QStandardItem9removeRowEi
	_ZN13QStandardItem9takeChildEii
	_ZN13QStandardItemC1ER20QStandardItemPrivate
	_ZN13QStandardItemC1ERK5QIconRK7QString
	_ZN13QStandardItemC1ERK7QString
	_ZN13QStandardItemC1ERKS_
	_ZN13QStandardItemC1Eii
	_ZN13QStandardItemC1Ev
	_ZN13QStandardItemC2ER20QStandardItemPrivate
	_ZN13QStandardItemC2ERK5QIconRK7QString
	_ZN13QStandardItemC2ERK7QString
	_ZN13QStandardItemC2ERKS_
	_ZN13QStandardItemC2Eii
	_ZN13QStandardItemC2Ev
	_ZN13QStandardItemD0Ev
	_ZN13QStandardItemD1Ev
	_ZN13QStandardItemD2Ev
	_ZN13QStandardItemaSERKS_
	_ZN13QTextDocument10adjustSizeEv
	_ZN13QTextDocument10setBaseUrlERK4QUrl
	_ZN13QTextDocument11addResourceEiRK4QUrlRK8QVariant
	_ZN13QTextDocument11qt_metacallEN11QMetaObject4CallEiPPv
	_ZN13QTextDocument11qt_metacastEPKc
	_ZN13QTextDocument11setModifiedEb
	_ZN13QTextDocument11setPageSizeERK6QSizeF
	_ZN13QTextDocument12createObjectERK11QTextFormat
	_ZN13QTextDocument12drawContentsEP8QPainterRK6QRectF
	_ZN13QTextDocument12loadResourceEiRK4QUrl
	_ZN13QTextDocument12setPlainTextERK7QString
	_ZN13QTextDocument12setTextWidthEd
	_ZN13QTextDocument13redoAvailableEb
	_ZN13QTextDocument13undoAvailableEb
	_ZN13QTextDocument14appendUndoItemEP17QAbstractUndoItem
	_ZN13QTextDocument14baseUrlChangedERK4QUrl
	_ZN13QTextDocument14contentsChangeEiii
	_ZN13QTextDocument14setDefaultFontERK5QFont
	_ZN13QTextDocument14setIndentWidthEd
	_ZN13QTextDocument15contentsChangedEv
	_ZN13QTextDocument16staticMetaObjectE
	_ZN13QTextDocument16undoCommandAddedEv
	_ZN13QTextDocument17blockCountChangedEi
	_ZN13QTextDocument17markContentsDirtyEii
	_ZN13QTextDocument17setDocumentLayoutEP27QAbstractTextDocumentLayout
	_ZN13QTextDocument17setDocumentMarginEd
	_ZN13QTextDocument18qt_static_metacallEP7QObjectN11QMetaObject4CallEiPPv
	_ZN13QTextDocument18setMetaInformationENS_15MetaInformationERK7QString
	_ZN13QTextDocument18setUndoRedoEnabledEb
	_ZN13QTextDocument19clearUndoRedoStacksENS_6StacksE
	_ZN13QTextDocument19modificationChangedEb
	_ZN13QTextDocument19setUseDesignMetricsEb
	_ZN13QTextDocument20setDefaultStyleSheetERK7QString
	_ZN13QTextDocument20setDefaultTextOptionERK11QTextOption
	_ZN13QTextDocument20setMaximumBlockCountEi
	_ZN13QTextDocument21cursorPositionChangedERK11QTextCursor
	_ZN13QTextDocument21documentLayoutChangedEv
	_ZN13QTextDocument25setDefaultCursorMoveStyleEN2Qt15CursorMoveStyleE
	_ZN13QTextDocument4redoEP11QTextCursor
	_ZN13QTextDocument4redoEv
	_ZN13QTextDocument4undoEP11QTextCursor
	_ZN13QTextDocument4undoEv
	_ZN13QTextDocument5clearEv
	_ZN13QTextDocument7setHtmlERK7QString
	_ZN13QTextDocumentC1EP7QObject
	_ZN13QTextDocumentC1ER20QTextDocumentPrivateP7QObject
	_ZN13QTextDocumentC1ERK7QStringP7QObject
	_ZN13QTextDocumentC2EP7QObject
	_ZN13QTextDocumentC2ER20QTextDocumentPrivateP7QObject
	_ZN13QTextDocumentC2ERK7QStringP7QObject
	_ZN13QTextDocumentD0Ev
	_ZN13QTextDocumentD1Ev
	_ZN13QTextDocumentD2Ev
	_ZN14QDistanceField4bitsEv
	_ZN14QDistanceField8scanLineEi
	_ZN14QDistanceField8setGlyphEP11QFontEnginejb
	_ZN14QDistanceField8setGlyphERK8QRawFontjb
	_ZN14QDistanceFieldC1EP11QFontEnginejb
	_ZN14QDistanceFieldC1EP18QDistanceFieldData
	_ZN14QDistanceFieldC1ERK8QRawFontjb
	_ZN14QDistanceFieldC1ERKS_
	_ZN14QDistanceFieldC1Eii
	_ZN14QDistanceFieldC1Ev
	_ZN14QDistanceFieldC2EP11QFontEnginejb
	_ZN14QDistanceFieldC2EP18QDistanceFieldData
	_ZN14QDistanceFieldC2ERK8QRawFontjb
	_ZN14QDistanceFieldC2ERKS_
	_ZN14QDistanceFieldC2Eii
	_ZN14QDistanceFieldC2Ev
	_ZN14QDragMoveEventC1ERK6QPoint6QFlagsIN2Qt10DropActionEEPK9QMimeDataS3_INS4_11MouseButtonEES3_INS4_16KeyboardModifierEEN6QEvent4TypeE
	_ZN14QDragMoveEventC2ERK6QPoint6QFlagsIN2Qt10DropActionEEPK9QMimeDataS3_INS4_11MouseButtonEES3_INS4_16KeyboardModifierEEN6QEvent4TypeE
	_ZN14QDragMoveEventD0Ev
	_ZN14QDragMoveEventD1Ev
	_ZN14QDragMoveEventD2Ev
	_ZN14QFileOpenEventC1ERK4QUrl
	_ZN14QFileOpenEventC1ERK7QString
	_ZN14QFileOpenEventC2ERK4QUrl
	_ZN14QFileOpenEventC2ERK7QString
	_ZN14QFileOpenEventD0Ev
	_ZN14QFileOpenEventD1Ev
	_ZN14QFileOpenEventD2Ev
	_ZN14QFontEngineQPA11boundingBoxERK12QGlyphLayout
	_ZN14QFontEngineQPA11boundingBoxEj
	_ZN14QFontEngineQPA12verifyHeaderEPKhi
	_ZN14QFontEngineQPA16addOutlineToPathEddRK12QGlyphLayoutP12QPainterPath6QFlagsIN9QTextItem10RenderFlagEE
	_ZN14QFontEngineQPA16alphaMapForGlyphEj
	_ZN14QFontEngineQPA18extractHeaderFieldEPKhNS_9HeaderTagE
	_ZN14QFontEngineQPAC1ERK8QFontDefRK10QByteArray
	_ZN14QFontEngineQPAC2ERK8QFontDefRK10QByteArray
	_ZN14QFontEngineQPAD0Ev
	_ZN14QFontEngineQPAD1Ev
	_ZN14QFontEngineQPAD2Ev
	_ZN14QGenericPlugin11qt_metacallEN11QMetaObject4CallEiPPv
	_ZN14QGenericPlugin11qt_metacastEPKc
	_ZN14QGenericPlugin16staticMetaObjectE
	_ZN14QGenericPlugin18qt_static_metacallEP7QObjectN11QMetaObject4CallEiPPv
	_ZN14QGenericPluginC1EP7QObject
	_ZN14QGenericPluginC2EP7QObject
	_ZN14QGenericPluginD0Ev
	_ZN14QGenericPluginD1Ev
	_ZN14QGenericPluginD2Ev
	_ZN14QGridLayoutBox3addERKS_id
	_ZN14QGridLayoutBox7combineERKS_
	_ZN14QGridLayoutBox9normalizeEv
	_ZN14QIconDragEventC1Ev
	_ZN14QIconDragEventC2Ev
	_ZN14QIconDragEventD0Ev
	_ZN14QIconDragEventD1Ev
	_ZN14QIconDragEventD2Ev
	_ZN14QImageIOPlugin11qt_metacallEN11QMetaObject4CallEiPPv
	_ZN14QImageIOPlugin11qt_metacastEPKc
	_ZN14QImageIOPlugin16staticMetaObjectE
	_ZN14QImageIOPlugin18qt_static_metacallEP7QObjectN11QMetaObject4CallEiPPv
	_ZN14QImageIOPluginC1EP7QObject
	_ZN14QImageIOPluginC2EP7QObject
	_ZN14QImageIOPluginD0Ev
	_ZN14QImageIOPluginD1Ev
	_ZN14QImageIOPluginD2Ev
	_ZN14QOpenGLContext10areSharingEPS_S0_
	_ZN14QOpenGLContext11doneCurrentEv
	_ZN14QOpenGLContext11makeCurrentEP8QSurface
	_ZN14QOpenGLContext11qt_metacallEN11QMetaObject4CallEiPPv
	_ZN14QOpenGLContext11qt_metacastEPKc
	_ZN14QOpenGLContext11swapBuffersEP8QSurface
	_ZN14QOpenGLContext14currentContextEv
	_ZN14QOpenGLContext15setShareContextEPS_
	_ZN14QOpenGLContext16deleteQGLContextEv
	_ZN14QOpenGLContext16openGLModuleTypeEv
	_ZN14QOpenGLContext16staticMetaObjectE
	_ZN14QOpenGLContext18aboutToBeDestroyedEv
	_ZN14QOpenGLContext18openGLModuleHandleEv
	_ZN14QOpenGLContext18qt_static_metacallEP7QObjectN11QMetaObject4CallEiPPv
	_ZN14QOpenGLContext19setQGLContextHandleEPvPFvS0_E
	_ZN14QOpenGLContext19setTextureFunctionsEP20QOpenGLTextureHelper
	_ZN14QOpenGLContext22insertFunctionsBackendERK20QOpenGLVersionStatusP30QOpenGLVersionFunctionsBackend
	_ZN14QOpenGLContext22removeFunctionsBackendERK20QOpenGLVersionStatus
	_ZN14QOpenGLContext6createEv
	_ZN14QOpenGLContext7destroyEv
	_ZN14QOpenGLContext9setFormatERK14QSurfaceFormat
	_ZN14QOpenGLContext9setScreenEP7QScreen
	_ZN14QOpenGLContextC1EP7QObject
	_ZN14QOpenGLContextC2EP7QObject
	_ZN14QOpenGLContextD0Ev
	_ZN14QOpenGLContextD1Ev
	_ZN14QOpenGLContextD2Ev
	_ZN14QOpenGLTexture10hasFeatureENS_7FeatureE
	_ZN14QOpenGLTexture11setWrapModeENS_19CoordinateDirectionENS_8WrapModeE
	_ZN14QOpenGLTexture11setWrapModeENS_8WrapModeE
	_ZN14QOpenGLTexture12setMipLevelsEi
	_ZN14QOpenGLTexture14boundTextureIdENS_13BindingTargetE
	_ZN14QOpenGLTexture14boundTextureIdEjNS_13BindingTargetE
	_ZN14QOpenGLTexture14setBorderColorE6QColor
	_ZN14QOpenGLTexture14setBorderColorEffff
	_ZN14QOpenGLTexture14setBorderColorEiiii
	_ZN14QOpenGLTexture14setBorderColorEjjjj
	_ZN14QOpenGLTexture14setMipMaxLevelEi
	_ZN14QOpenGLTexture14setSwizzleMaskENS_12SwizzleValueES0_S0_S0_
	_ZN14QOpenGLTexture14setSwizzleMaskENS_16SwizzleComponentENS_12SwizzleValueE
	_ZN14QOpenGLTexture15allocateStorageEv
	_ZN14QOpenGLTexture15generateMipMapsEib
	_ZN14QOpenGLTexture15generateMipMapsEv
	_ZN14QOpenGLTexture15setMipBaseLevelEi
	_ZN14QOpenGLTexture16setMinMagFiltersENS_6FilterES0_
	_ZN14QOpenGLTexture16setMipLevelRangeEii
	_ZN14QOpenGLTexture17setCompressedDataEiPKvPK27QOpenGLPixelTransferOptions
	_ZN14QOpenGLTexture17setCompressedDataEiPvPK27QOpenGLPixelTransferOptions
	_ZN14QOpenGLTexture17setCompressedDataEiiNS_11CubeMapFaceEiPKvPK27QOpenGLPixelTransferOptions
	_ZN14QOpenGLTexture17setCompressedDataEiiNS_11CubeMapFaceEiPvPK27QOpenGLPixelTransferOptions
	_ZN14QOpenGLTexture17setCompressedDataEiiPKvPK27QOpenGLPixelTransferOptions
	_ZN14QOpenGLTexture17setCompressedDataEiiPvPK27QOpenGLPixelTransferOptions
	_ZN14QOpenGLTexture17setCompressedDataEiiiPKvPK27QOpenGLPixelTransferOptions
	_ZN14QOpenGLTexture17setCompressedDataEiiiPvPK27QOpenGLPixelTransferOptions
	_ZN14QOpenGLTexture19setDepthStencilModeENS_16DepthStencilModeE
	_ZN14QOpenGLTexture20setLevelofDetailBiasEf
	_ZN14QOpenGLTexture20setMaximumAnisotropyEf
	_ZN14QOpenGLTexture21setLevelOfDetailRangeEff
	_ZN14QOpenGLTexture21setMinificationFilterENS_6FilterE
	_ZN14QOpenGLTexture22setMagnificationFilterENS_6FilterE
	_ZN14QOpenGLTexture23setMaximumLevelOfDetailEf
	_ZN14QOpenGLTexture23setMinimumLevelOfDetailEf
	_ZN14QOpenGLTexture30setAutoMipMapGenerationEnabledEb
	_ZN14QOpenGLTexture4bindEjNS_16TextureUnitResetE
	_ZN14QOpenGLTexture4bindEv
	_ZN14QOpenGLTexture6createEv
	_ZN14QOpenGLTexture7destroyEv
	_ZN14QOpenGLTexture7isBoundEj
	_ZN14QOpenGLTexture7releaseEjNS_16TextureUnitResetE
	_ZN14QOpenGLTexture7releaseEv
	_ZN14QOpenGLTexture7setDataENS_11PixelFormatENS_9PixelTypeEPKvPK27QOpenGLPixelTransferOptions
	_ZN14QOpenGLTexture7setDataENS_11PixelFormatENS_9PixelTypeEPvPK27QOpenGLPixelTransferOptions
	_ZN14QOpenGLTexture7setDataERK6QImageNS_16MipMapGenerationE
	_ZN14QOpenGLTexture7setDataEiNS_11PixelFormatENS_9PixelTypeEPKvPK27QOpenGLPixelTransferOptions
	_ZN14QOpenGLTexture7setDataEiNS_11PixelFormatENS_9PixelTypeEPvPK27QOpenGLPixelTransferOptions
	_ZN14QOpenGLTexture7setDataEiiNS_11CubeMapFaceENS_11PixelFormatENS_9PixelTypeEPKvPK27QOpenGLPixelTransferOptions
	_ZN14QOpenGLTexture7setDataEiiNS_11CubeMapFaceENS_11PixelFormatENS_9PixelTypeEPvPK27QOpenGLPixelTransferOptions
	_ZN14QOpenGLTexture7setDataEiiNS_11PixelFormatENS_9PixelTypeEPKvPK27QOpenGLPixelTransferOptions
	_ZN14QOpenGLTexture7setDataEiiNS_11PixelFormatENS_9PixelTypeEPvPK27QOpenGLPixelTransferOptions
	_ZN14QOpenGLTexture7setSizeEiii
	_ZN14QOpenGLTexture9setFormatENS_13TextureFormatE
	_ZN14QOpenGLTexture9setLayersEi
	_ZN14QOpenGLTextureC1ENS_6TargetE
	_ZN14QOpenGLTextureC1ERK6QImageNS_16MipMapGenerationE
	_ZN14QOpenGLTextureC2ENS_6TargetE
	_ZN14QOpenGLTextureC2ERK6QImageNS_16MipMapGenerationE
	_ZN14QOpenGLTextureD1Ev
	_ZN14QOpenGLTextureD2Ev
	_ZN14QPaintEngineEx10drawPixmapERK7QPointFRK7QPixmap
	_ZN14QPaintEngineEx10drawPointsEPK6QPointi
	_ZN14QPaintEngineEx10drawPointsEPK7QPointFi
	_ZN14QPaintEngineEx11drawEllipseERK5QRect
	_ZN14QPaintEngineEx11drawEllipseERK6QRectF
	_ZN14QPaintEngineEx11drawPolygonEPK6QPointiN12QPaintEngine15PolygonDrawModeE
	_ZN14QPaintEngineEx11drawPolygonEPK7QPointFiN12QPaintEngine15PolygonDrawModeE
	_ZN14QPaintEngineEx11updateStateERK17QPaintEngineState
	_ZN14QPaintEngineEx12pixmapFilterEiPK13QPixmapFilter
	_ZN14QPaintEngineEx15drawRoundedRectERK6QRectFddN2Qt8SizeModeE
	_ZN14QPaintEngineEx15drawTiledPixmapERK6QRectFRK7QPixmapRK7QPointF
	_ZN14QPaintEngineEx17endNativePaintingEv
	_ZN14QPaintEngineEx18drawStaticTextItemEP15QStaticTextItem
	_ZN14QPaintEngineEx19beginNativePaintingEv
	_ZN14QPaintEngineEx19drawPixmapFragmentsEPKN8QPainter14PixmapFragmentEiRK7QPixmap6QFlagsINS0_18PixmapFragmentHintEE
	_ZN14QPaintEngineEx4clipERK12QPainterPathN2Qt13ClipOperationE
	_ZN14QPaintEngineEx4clipERK5QRectN2Qt13ClipOperationE
	_ZN14QPaintEngineEx4clipERK7QRegionN2Qt13ClipOperationE
	_ZN14QPaintEngineEx4drawERK11QVectorPath
	_ZN14QPaintEngineEx4syncEv
	_ZN14QPaintEngineEx6strokeERK11QVectorPathRK4QPen
	_ZN14QPaintEngineEx8drawPathERK12QPainterPath
	_ZN14QPaintEngineEx8fillRectERK6QRectFRK6QBrush
	_ZN14QPaintEngineEx8fillRectERK6QRectFRK6QColor
	_ZN14QPaintEngineEx8setStateEP13QPainterState
	_ZN14QPaintEngineEx9drawImageERK7QPointFRK6QImage
	_ZN14QPaintEngineEx9drawLinesEPK5QLinei
	_ZN14QPaintEngineEx9drawLinesEPK6QLineFi
	_ZN14QPaintEngineEx9drawRectsEPK5QRecti
	_ZN14QPaintEngineEx9drawRectsEPK6QRectFi
	_ZN14QPaintEngineExC1ER21QPaintEngineExPrivate
	_ZN14QPaintEngineExC1Ev
	_ZN14QPaintEngineExC2ER21QPaintEngineExPrivate
	_ZN14QPaintEngineExC2Ev
	_ZN14QPlatformTheme16defaultThemeHintENS_9ThemeHintE
	_ZN14QPlatformTheme25defaultStandardButtonTextEi
	_ZN14QPlatformThemeC1EP21QPlatformThemePrivate
	_ZN14QPlatformThemeC1Ev
	_ZN14QPlatformThemeC2EP21QPlatformThemePrivate
	_ZN14QPlatformThemeC2Ev
	_ZN14QPlatformThemeD0Ev
	_ZN14QPlatformThemeD1Ev
	_ZN14QPlatformThemeD2Ev
	_ZN14QShortcutEventC1ERK12QKeySequenceib
	_ZN14QShortcutEventC2ERK12QKeySequenceib
	_ZN14QShortcutEventD0Ev
	_ZN14QShortcutEventD1Ev
	_ZN14QShortcutEventD2Ev
	_ZN14QSurfaceFormat10setOptionsE6QFlagsINS_12FormatOptionEE
	_ZN14QSurfaceFormat10setProfileENS_20OpenGLContextProfileE
	_ZN14QSurfaceFormat10setSamplesEi
	_ZN14QSurfaceFormat10setVersionEii
	_ZN14QSurfaceFormat15setMajorVersionEi
	_ZN14QSurfaceFormat15setMinorVersionEi
	_ZN14QSurfaceFormat15setSwapBehaviorENS_12SwapBehaviorE
	_ZN14QSurfaceFormat15setSwapIntervalEi
	_ZN14QSurfaceFormat16setRedBufferSizeEi
	_ZN14QSurfaceFormat17setBlueBufferSizeEi
	_ZN14QSurfaceFormat17setRenderableTypeENS_14RenderableTypeE
	_ZN14QSurfaceFormat18setAlphaBufferSizeEi
	_ZN14QSurfaceFormat18setDepthBufferSizeEi
	_ZN14QSurfaceFormat18setGreenBufferSizeEi
	_ZN14QSurfaceFormat20setStencilBufferSizeEi
	_ZN14QSurfaceFormat6detachEv
	_ZN14QSurfaceFormat9setOptionE6QFlagsINS_12FormatOptionEE
	_ZN14QSurfaceFormat9setOptionENS_12FormatOptionEb
	_ZN14QSurfaceFormat9setStereoEb
	_ZN14QSurfaceFormatC1E6QFlagsINS_12FormatOptionEE
	_ZN14QSurfaceFormatC1ERKS_
	_ZN14QSurfaceFormatC1Ev
	_ZN14QSurfaceFormatC2E6QFlagsINS_12FormatOptionEE
	_ZN14QSurfaceFormatC2ERKS_
	_ZN14QSurfaceFormatC2Ev
	_ZN14QSurfaceFormatD1Ev
	_ZN14QSurfaceFormatD2Ev
	_ZN14QSurfaceFormataSERKS_
	_ZN14QTextTableCell9setFormatERK15QTextCharFormat
	_ZN14QWindowPrivate11applyCursorEv
	_ZN14QWindowPrivate13_q_clearAlertEv
	_ZN14QWindowPrivate13eventReceiverEv
	_ZN14QWindowPrivate16clearFocusObjectEv
	_ZN14QWindowPrivate16updateVisibilityEv
	_ZN14QWindowPrivate27maybeQuitOnLastWindowClosedEv
	_ZN14QWindowPrivate4initEv
	_ZN14QWindowPrivate9setCursorEPK7QCursor
	_ZN14QWindowPrivate9setScreenEP7QScreenb
	_ZN14QWindowPrivateD0Ev
	_ZN14QWindowPrivateD1Ev
	_ZN15QDragEnterEventC1ERK6QPoint6QFlagsIN2Qt10DropActionEEPK9QMimeDataS3_INS4_11MouseButtonEES3_INS4_16KeyboardModifierEE
	_ZN15QDragEnterEventC2ERK6QPoint6QFlagsIN2Qt10DropActionEEPK9QMimeDataS3_INS4_11MouseButtonEES3_INS4_16KeyboardModifierEE
	_ZN15QDragEnterEventD0Ev
	_ZN15QDragEnterEventD1Ev
	_ZN15QDragEnterEventD2Ev
	_ZN15QDragLeaveEventC1Ev
	_ZN15QDragLeaveEventC2Ev
	_ZN15QDragLeaveEventD0Ev
	_ZN15QDragLeaveEventD1Ev
	_ZN15QDragLeaveEventD2Ev
	_ZN15QGridLayoutItem10setRowSpanEiN2Qt11OrientationE
	_ZN15QGridLayoutItem11setFirstRowEiN2Qt11OrientationE
	_ZN15QGridLayoutItem16setStretchFactorEiN2Qt11OrientationE
	_ZN15QGridLayoutItem18insertOrRemoveRowsEiiN2Qt11OrientationE
	_ZN15QGridLayoutItem9transposeEv
	_ZN15QGridLayoutItemC1Eiiii6QFlagsIN2Qt13AlignmentFlagEE
	_ZN15QGridLayoutItemC2Eiiii6QFlagsIN2Qt13AlignmentFlagEE
	_ZN15QGridLayoutItemD0Ev
	_ZN15QGridLayoutItemD1Ev
	_ZN15QGuiApplication10allWindowsEv
	_ZN15QGuiApplication10setPaletteERK8QPalette
	_ZN15QGuiApplication10styleHintsEv
	_ZN15QGuiApplication10topLevelAtERK6QPoint
	_ZN15QGuiApplication10windowIconEv
	_ZN15QGuiApplication11focusObjectEv
	_ZN15QGuiApplication11focusWindowEv
	_ZN15QGuiApplication11inputMethodEv
	_ZN15QGuiApplication11modalWindowEv
	_ZN15QGuiApplication11qt_metacallEN11QMetaObject4CallEiPPv
	_ZN15QGuiApplication11qt_metacastEPKc
	_ZN15QGuiApplication11screenAddedEP7QScreen
	_ZN15QGuiApplication12mouseButtonsEv
	_ZN15QGuiApplication12platformNameEv
	_ZN15QGuiApplication13compressEventEP6QEventP7QObjectP14QPostEventList
	_ZN15QGuiApplication13primaryScreenEv
	_ZN15QGuiApplication13setWindowIconERK5QIcon
	_ZN15QGuiApplication14overrideCursorEv
	_ZN15QGuiApplication15layoutDirectionEv
	_ZN15QGuiApplication15topLevelWindowsEv
	_ZN15QGuiApplication16applicationStateEv
	_ZN15QGuiApplication16lastWindowClosedEv
	_ZN15QGuiApplication16saveStateRequestER15QSessionManager
	_ZN15QGuiApplication16staticMetaObjectE
	_ZN15QGuiApplication17commitDataRequestER15QSessionManager
	_ZN15QGuiApplication17keyboardModifiersEv
	_ZN15QGuiApplication17setOverrideCursorERK7QCursor
	_ZN15QGuiApplication18focusObjectChangedEP7QObject
	_ZN15QGuiApplication18focusWindowChangedEP7QWindow
	_ZN15QGuiApplication18qt_static_metacallEP7QObjectN11QMetaObject4CallEiPPv
	_ZN15QGuiApplication18setLayoutDirectionEN2Qt15LayoutDirectionE
	_ZN15QGuiApplication19fontDatabaseChangedEv
	_ZN15QGuiApplication20changeOverrideCursorERK7QCursor
	_ZN15QGuiApplication20desktopSettingsAwareEv
	_ZN15QGuiApplication21restoreOverrideCursorEv
	_ZN15QGuiApplication22applicationDisplayNameEv
	_ZN15QGuiApplication22queryKeyboardModifiersEv
	_ZN15QGuiApplication22quitOnLastWindowClosedEv
	_ZN15QGuiApplication23applicationStateChangedEN2Qt16ApplicationStateE
	_ZN15QGuiApplication23platformNativeInterfaceEv
	_ZN15QGuiApplication23setDesktopSettingsAwareEb
	_ZN15QGuiApplication25setApplicationDisplayNameERK7QString
	_ZN15QGuiApplication25setQuitOnLastWindowClosedEb
	_ZN15QGuiApplication4execEv
	_ZN15QGuiApplication4fontEv
	_ZN15QGuiApplication4syncEv
	_ZN15QGuiApplication5eventEP6QEvent
	_ZN15QGuiApplication6notifyEP7QObjectP6QEvent
	_ZN15QGuiApplication7paletteEv
	_ZN15QGuiApplication7screensEv
	_ZN15QGuiApplication7setFontERK5QFont
	_ZN15QGuiApplication9clipboardEv
	_ZN15QGuiApplicationC1ER22QGuiApplicationPrivate
	_ZN15QGuiApplicationC1ERiPPci
	_ZN15QGuiApplicationC2ER22QGuiApplicationPrivate
	_ZN15QGuiApplicationC2ERiPPci
	_ZN15QGuiApplicationD0Ev
	_ZN15QGuiApplicationD1Ev
	_ZN15QGuiApplicationD2Ev
	_ZN15QImageIOHandler11jumpToImageEi
	_ZN15QImageIOHandler15jumpToNextImageEv
	_ZN15QImageIOHandler5writeERK6QImage
	_ZN15QImageIOHandler9setDeviceEP9QIODevice
	_ZN15QImageIOHandler9setFormatERK10QByteArray
	_ZN15QImageIOHandler9setOptionENS_11ImageOptionERK8QVariant
	_ZN15QImageIOHandlerC1ER22QImageIOHandlerPrivate
	_ZN15QImageIOHandlerC1Ev
	_ZN15QImageIOHandlerC2ER22QImageIOHandlerPrivate
	_ZN15QImageIOHandlerC2Ev
	_ZN15QImageIOHandlerD0Ev
	_ZN15QImageIOHandlerD1Ev
	_ZN15QImageIOHandlerD2Ev
	_ZN15QLinearGradient12setFinalStopERK7QPointF
	_ZN15QLinearGradient8setStartERK7QPointF
	_ZN15QLinearGradientC1ERK7QPointFS2_
	_ZN15QLinearGradientC1Edddd
	_ZN15QLinearGradientC1Ev
	_ZN15QLinearGradientC2ERK7QPointFS2_
	_ZN15QLinearGradientC2Edddd
	_ZN15QLinearGradientC2Ev
	_ZN15QPlatformCursor12pointerEventERK11QMouseEvent
	_ZN15QPlatformCursor6setPosERK6QPoint
	_ZN15QPlatformCursorC1Ev
	_ZN15QPlatformCursorC2Ev
	_ZN15QPlatformPixmap15fromImageReaderEP12QImageReader6QFlagsIN2Qt19ImageConversionFlagEE
	_ZN15QPlatformPixmap15setDetachNumberEi
	_ZN15QPlatformPixmap15setSerialNumberEi
	_ZN15QPlatformPixmap16fromImageInPlaceER6QImage6QFlagsIN2Qt19ImageConversionFlagEE
	_ZN15QPlatformPixmap4copyEPKS_RK5QRect
	_ZN15QPlatformPixmap6bufferEv
	_ZN15QPlatformPixmap6createEiiNS_9PixelTypeE
	_ZN15QPlatformPixmap6scrollEiiRK5QRect
	_ZN15QPlatformPixmap8fromDataEPKhjPKc6QFlagsIN2Qt19ImageConversionFlagEE
	_ZN15QPlatformPixmap8fromFileERK7QStringPKc6QFlagsIN2Qt19ImageConversionFlagEE
	_ZN15QPlatformPixmapC1ENS_9PixelTypeEi
	_ZN15QPlatformPixmapC2ENS_9PixelTypeEi
	_ZN15QPlatformPixmapD0Ev
	_ZN15QPlatformPixmapD1Ev
	_ZN15QPlatformPixmapD2Ev
	_ZN15QPlatformScreen22resizeMaximizedWindowsEv
	_ZN15QPlatformScreen23platformScreenForWindowEPK7QWindow
	_ZN15QPlatformScreen24setOrientationUpdateMaskE6QFlagsIN2Qt17ScreenOrientationEE
	_ZN15QPlatformScreenC1Ev
	_ZN15QPlatformScreenC2Ev
	_ZN15QPlatformScreenD0Ev
	_ZN15QPlatformScreenD1Ev
	_ZN15QPlatformScreenD2Ev
	_ZN15QPlatformWindow10setOpacityEd
	_ZN15QPlatformWindow10setVisibleEb
	_ZN15QPlatformWindow11setGeometryERK5QRect
	_ZN15QPlatformWindow11windowEventEP6QEvent
	_ZN15QPlatformWindow13setAlertStateEb
	_ZN15QPlatformWindow13setWindowIconERK5QIcon
	_ZN15QPlatformWindow14setWindowFlagsE6QFlagsIN2Qt10WindowTypeEE
	_ZN15QPlatformWindow14setWindowStateEN2Qt11WindowStateE
	_ZN15QPlatformWindow14setWindowTitleERK7QString
	_ZN15QPlatformWindow15initialGeometryEPK7QWindowRK5QRectii
	_ZN15QPlatformWindow17formatWindowTitleERK7QStringS2_
	_ZN15QPlatformWindow17invalidateSurfaceEv
	_ZN15QPlatformWindow17setWindowFilePathERK7QString
	_ZN15QPlatformWindow17setWindowModifiedEb
	_ZN15QPlatformWindow17startSystemResizeERK6QPointN2Qt6CornerE
	_ZN15QPlatformWindow18propagateSizeHintsEv
	_ZN15QPlatformWindow19setMouseGrabEnabledEb
	_ZN15QPlatformWindow21requestActivateWindowEv
	_ZN15QPlatformWindow22setKeyboardGrabEnabledEb
	_ZN15QPlatformWindow26setFrameStrutEventsEnabledEb
	_ZN15QPlatformWindow30handleContentOrientationChangeEN2Qt17ScreenOrientationE
	_ZN15QPlatformWindow5lowerEv
	_ZN15QPlatformWindow5raiseEv
	_ZN15QPlatformWindow7setMaskERK7QRegion
	_ZN15QPlatformWindow9setParentEPKS_
	_ZN15QPlatformWindowC1EP7QWindow
	_ZN15QPlatformWindowC2EP7QWindow
	_ZN15QPlatformWindowD0Ev
	_ZN15QPlatformWindowD1Ev
	_ZN15QPlatformWindowD2Ev
	_ZN15QRadialGradient13setFocalPointERK7QPointF
	_ZN15QRadialGradient14setFocalRadiusEd
	_ZN15QRadialGradient15setCenterRadiusEd
	_ZN15QRadialGradient9setCenterERK7QPointF
	_ZN15QRadialGradient9setRadiusEd
	_ZN15QRadialGradientC1ERK7QPointFd
	_ZN15QRadialGradientC1ERK7QPointFdS2_
	_ZN15QRadialGradientC1ERK7QPointFdS2_d
	_ZN15QRadialGradientC1Eddd
	_ZN15QRadialGradientC1Eddddd
	_ZN15QRadialGradientC1Edddddd
	_ZN15QRadialGradientC1Ev
	_ZN15QRadialGradientC2ERK7QPointFd
	_ZN15QRadialGradientC2ERK7QPointFdS2_
	_ZN15QRadialGradientC2ERK7QPointFdS2_d
	_ZN15QRadialGradientC2Eddd
	_ZN15QRadialGradientC2Eddddd
	_ZN15QRadialGradientC2Edddddd
	_ZN15QRadialGradientC2Ev
	_ZN15QRawFontPrivate15platformCleanUpEv
	_ZN15QRawFontPrivate20platformLoadFromDataERK10QByteArraydN5QFont17HintingPreferenceE
	_ZN15QRawFontPrivate7cleanUpEv
	_ZN15QSessionManager11qt_metacallEN11QMetaObject4CallEiPPv
	_ZN15QSessionManager11qt_metacastEPKc
	_ZN15QSessionManager13requestPhase2Ev
	_ZN15QSessionManager14setRestartHintENS_11RestartHintE
	_ZN15QSessionManager16staticMetaObjectE
	_ZN15QSessionManager17allowsInteractionEv
	_ZN15QSessionManager17setDiscardCommandERK11QStringList
	_ZN15QSessionManager17setRestartCommandERK11QStringList
	_ZN15QSessionManager18qt_static_metacallEP7QObjectN11QMetaObject4CallEiPPv
	_ZN15QSessionManager18setManagerPropertyERK7QStringRK11QStringList
	_ZN15QSessionManager18setManagerPropertyERK7QStringS2_
	_ZN15QSessionManager22allowsErrorInteractionEv
	_ZN15QSessionManager6cancelEv
	_ZN15QSessionManager7releaseEv
	_ZN15QSessionManagerC1EP15QGuiApplicationR7QStringS3_
	_ZN15QSessionManagerC2EP15QGuiApplicationR7QStringS3_
	_ZN15QSessionManagerD0Ev
	_ZN15QSessionManagerD1Ev
	_ZN15QSessionManagerD2Ev
	_ZN15QStaticTextItem13setFontEngineEP11QFontEngine
	_ZN15QStaticTextItemD1Ev
	_ZN15QStaticTextItemD2Ev
	_ZN15QStatusTipEventC1ERK7QString
	_ZN15QStatusTipEventC2ERK7QString
	_ZN15QStatusTipEventD0Ev
	_ZN15QStatusTipEventD1Ev
	_ZN15QStatusTipEventD2Ev
	_ZN15QTextBlockGroup11qt_metacallEN11QMetaObject4CallEiPPv
	_ZN15QTextBlockGroup11qt_metacastEPKc
	_ZN15QTextBlockGroup12blockRemovedERK10QTextBlock
	_ZN15QTextBlockGroup13blockInsertedERK10QTextBlock
	_ZN15QTextBlockGroup16staticMetaObjectE
	_ZN15QTextBlockGroup18blockFormatChangedERK10QTextBlock
	_ZN15QTextBlockGroup18qt_static_metacallEP7QObjectN11QMetaObject4CallEiPPv
	_ZN15QTextBlockGroupC1EP13QTextDocument
	_ZN15QTextBlockGroupC1ER22QTextBlockGroupPrivateP13QTextDocument
	_ZN15QTextBlockGroupC2EP13QTextDocument
	_ZN15QTextBlockGroupC2ER22QTextBlockGroupPrivateP13QTextDocument
	_ZN15QTextBlockGroupD0Ev
	_ZN15QTextBlockGroupD1Ev
	_ZN15QTextBlockGroupD2Ev
	_ZN15QTextCharFormat13setFontFamilyERK7QString
	_ZN15QTextCharFormat13setFontWeightEi
	_ZN15QTextCharFormat17setFontFixedPitchEb
	_ZN15QTextCharFormat17setUnderlineStyleENS_14UnderlineStyleE
	_ZN15QTextCharFormat20setVerticalAlignmentENS_17VerticalAlignmentE
	_ZN15QTextCharFormat7setFontERK5QFont
	_ZN15QTextCharFormat7setFontERK5QFontNS_33FontPropertiesInheritanceBehaviorE
	_ZN15QTextCharFormat9setAnchorEb
	_ZN15QTextCharFormatC1ERK11QTextFormat
	_ZN15QTextCharFormatC1Ev
	_ZN15QTextCharFormatC2ERK11QTextFormat
	_ZN15QTextCharFormatC2Ev
	_ZN15QTextListFormatC1ERK11QTextFormat
	_ZN15QTextListFormatC1Ev
	_ZN15QTextListFormatC2ERK11QTextFormat
	_ZN15QTextListFormatC2Ev
	_ZN16QAccessibleCache11qt_metacallEN11QMetaObject4CallEiPPv
	_ZN16QAccessibleCache11qt_metacastEPKc
	_ZN16QAccessibleCache15deleteInterfaceEjP7QObject
	_ZN16QAccessibleCache15objectDestroyedEP7QObject
	_ZN16QAccessibleCache16staticMetaObjectE
	_ZN16QAccessibleCache18qt_static_metacallEP7QObjectN11QMetaObject4CallEiPPv
	_ZN16QAccessibleCache8instanceEv
	_ZN16QAccessibleEventD0Ev
	_ZN16QAccessibleEventD1Ev
	_ZN16QConicalGradient8setAngleEd
	_ZN16QConicalGradient9setCenterERK7QPointF
	_ZN16QConicalGradientC1ERK7QPointFd
	_ZN16QConicalGradientC1Eddd
	_ZN16QConicalGradientC1Ev
	_ZN16QConicalGradientC2ERK7QPointFd
	_ZN16QConicalGradientC2Eddd
	_ZN16QConicalGradientC2Ev
	_ZN16QDesktopServices13setUrlHandlerERK7QStringP7QObjectPKc
	_ZN16QDesktopServices15unsetUrlHandlerERK7QString
	_ZN16QDesktopServices19storageLocationImplEN14QStandardPaths16StandardLocationE
	_ZN16QDesktopServices7openUrlERK4QUrl
	_ZN16QDoubleValidator10topChangedEd
	_ZN16QDoubleValidator11qt_metacallEN11QMetaObject4CallEiPPv
	_ZN16QDoubleValidator11qt_metacastEPKc
	_ZN16QDoubleValidator11setDecimalsEi
	_ZN16QDoubleValidator11setNotationENS_8NotationE
	_ZN16QDoubleValidator13bottomChangedEd
	_ZN16QDoubleValidator15decimalsChangedEi
	_ZN16QDoubleValidator15notationChangedENS_8NotationE
	_ZN16QDoubleValidator16staticMetaObjectE
	_ZN16QDoubleValidator18qt_static_metacallEP7QObjectN11QMetaObject4CallEiPPv
	_ZN16QDoubleValidator6setTopEd
	_ZN16QDoubleValidator8setRangeEddi
	_ZN16QDoubleValidator9setBottomEd
	_ZN16QDoubleValidatorC1EP7QObject
	_ZN16QDoubleValidatorC1EddiP7QObject
	_ZN16QDoubleValidatorC2EP7QObject
	_ZN16QDoubleValidatorC2EddiP7QObject
	_ZN16QDoubleValidatorD0Ev
	_ZN16QDoubleValidatorD1Ev
	_ZN16QDoubleValidatorD2Ev
	_ZN16QFontEngineMulti11boundingBoxERK12QGlyphLayout
	_ZN16QFontEngineMulti11boundingBoxEj
	_ZN16QFontEngineMulti16addOutlineToPathEddRK12QGlyphLayoutP12QPainterPath6QFlagsIN9QTextItem10RenderFlagEE
	_ZN16QFontEngineMulti16alphaMapForGlyphEj
	_ZN16QFontEngineMulti16alphaMapForGlyphEj6QFixed
	_ZN16QFontEngineMulti16alphaMapForGlyphEj6QFixedRK10QTransform
	_ZN16QFontEngineMulti16alphaMapForGlyphEjRK10QTransform
	_ZN16QFontEngineMulti16getGlyphBearingsEjPdS0_
	_ZN16QFontEngineMulti19alphaRGBMapForGlyphEj6QFixedRK10QTransform
	_ZN16QFontEngineMulti23setFallbackFamiliesListERK11QStringList
	_ZN16QFontEngineMulti29ensureFallbackFamiliesQueriedEv
	_ZN16QFontEngineMultiC1Ei
	_ZN16QFontEngineMultiC2Ei
	_ZN16QFontEngineMultiD0Ev
	_ZN16QFontEngineMultiD1Ev
	_ZN16QFontEngineMultiD2Ev
	_ZN16QOpenGLFunctions25initializeOpenGLFunctionsEv
	_ZN16QOpenGLFunctionsC1EP14QOpenGLContext
	_ZN16QOpenGLFunctionsC1Ev
	_ZN16QOpenGLFunctionsC2EP14QOpenGLContext
	_ZN16QOpenGLFunctionsC2Ev
	_ZN16QPainterReplayer14setupTransformEP8QPainter
	_ZN16QPainterReplayer15processCommandsERK12QPaintBufferP8QPainterii
	_ZN16QPainterReplayer7processERK19QPaintBufferCommand
	_ZN16QPainterReplayerD0Ev
	_ZN16QPainterReplayerD1Ev
	_ZN16QPlatformMenuBar11qt_metacallEN11QMetaObject4CallEiPPv
	_ZN16QPlatformMenuBar11qt_metacastEPKc
	_ZN16QPlatformMenuBar16staticMetaObjectE
	_ZN16QPlatformMenuBar18qt_static_metacallEP7QObjectN11QMetaObject4CallEiPPv
	_ZN16QPlatformSurfaceC1EP8QSurface
	_ZN16QPlatformSurfaceC2EP8QSurface
	_ZN16QPlatformSurfaceD0Ev
	_ZN16QPlatformSurfaceD1Ev
	_ZN16QPlatformSurfaceD2Ev
	_ZN16QRegExpValidator11qt_metacallEN11QMetaObject4CallEiPPv
	_ZN16QRegExpValidator11qt_metacastEPKc
	_ZN16QRegExpValidator13regExpChangedERK7QRegExp
	_ZN16QRegExpValidator16staticMetaObjectE
	_ZN16QRegExpValidator18qt_static_metacallEP7QObjectN11QMetaObject4CallEiPPv
	_ZN16QRegExpValidator9setRegExpERK7QRegExp
	_ZN16QRegExpValidatorC1EP7QObject
	_ZN16QRegExpValidatorC1ERK7QRegExpP7QObject
	_ZN16QRegExpValidatorC2EP7QObject
	_ZN16QRegExpValidatorC2ERK7QRegExpP7QObject
	_ZN16QRegExpValidatorD0Ev
	_ZN16QRegExpValidatorD1Ev
	_ZN16QRegExpValidatorD2Ev
	_ZN16QStackTextEngineC1ERK7QStringRK5QFont
	_ZN16QStackTextEngineC2ERK7QStringRK5QFont
	_ZN16QTextBlockFormat12setAlignmentE6QFlagsIN2Qt13AlignmentFlagEE
	_ZN16QTextBlockFormat15setTabPositionsERK5QListIN11QTextOption3TabEE
	_ZN16QTextBlockFormatC1ERK11QTextFormat
	_ZN16QTextBlockFormatC1Ev
	_ZN16QTextBlockFormatC2ERK11QTextFormat
	_ZN16QTextBlockFormatC2Ev
	_ZN16QTextFrameFormat9setMarginEd
	_ZN16QTextFrameFormatC1ERK11QTextFormat
	_ZN16QTextFrameFormatC1Ev
	_ZN16QTextFrameFormatC2ERK11QTextFormat
	_ZN16QTextFrameFormatC2Ev
	_ZN16QTextImageFormatC1ERK11QTextFormat
	_ZN16QTextImageFormatC1Ev
	_ZN16QTextImageFormatC2ERK11QTextFormat
	_ZN16QTextImageFormatC2Ev
	_ZN16QTextTableFormatC1ERK11QTextFormat
	_ZN16QTextTableFormatC1Ev
	_ZN16QTextTableFormatC2ERK11QTextFormat
	_ZN16QTextTableFormatC2Ev
	_ZN17QAccessibleObject7setTextEN11QAccessible4TextERK7QString
	_ZN17QAccessibleObjectC1EP7QObject
	_ZN17QAccessibleObjectC2EP7QObject
	_ZN17QAccessibleObjectD0Ev
	_ZN17QAccessibleObjectD1Ev
	_ZN17QAccessibleObjectD2Ev
	_ZN17QAccessiblePlugin11qt_metacallEN11QMetaObject4CallEiPPv
	_ZN17QAccessiblePlugin11qt_metacastEPKc
	_ZN17QAccessiblePlugin16staticMetaObjectE
	_ZN17QAccessiblePlugin18qt_static_metacallEP7QObjectN11QMetaObject4CallEiPPv
	_ZN17QAccessiblePluginC1EP7QObject
	_ZN17QAccessiblePluginC2EP7QObject
	_ZN17QAccessiblePluginD0Ev
	_ZN17QAccessiblePluginD1Ev
	_ZN17QAccessiblePluginD2Ev
	_ZN17QContextMenuEventC1ENS_6ReasonERK6QPoint
	_ZN17QContextMenuEventC1ENS_6ReasonERK6QPointS3_
	_ZN17QContextMenuEventC1ENS_6ReasonERK6QPointS3_6QFlagsIN2Qt16KeyboardModifierEE
	_ZN17QContextMenuEventC2ENS_6ReasonERK6QPoint
	_ZN17QContextMenuEventC2ENS_6ReasonERK6QPointS3_
	_ZN17QContextMenuEventC2ENS_6ReasonERK6QPointS3_6QFlagsIN2Qt16KeyboardModifierEE
	_ZN17QContextMenuEventD0Ev
	_ZN17QContextMenuEventD1Ev
	_ZN17QContextMenuEventD2Ev
	_ZN17QGridLayoutEngine10insertItemEP15QGridLayoutItemi
	_ZN17QGridLayoutEngine10invalidateEv
	_ZN17QGridLayoutEngine10removeItemEP15QGridLayoutItem
	_ZN17QGridLayoutEngine10setSpacingEd6QFlagsIN2Qt11OrientationEE
	_ZN17QGridLayoutEngine13setGeometriesERK6QRectFPK24QAbstractLayoutStyleInfo
	_ZN17QGridLayoutEngine13setRowSpacingEidN2Qt11OrientationE
	_ZN17QGridLayoutEngine14regenerateGridEv
	_ZN17QGridLayoutEngine14setRowSizeHintEN2Qt8SizeHintEidNS0_11OrientationE
	_ZN17QGridLayoutEngine15maybeExpandGridEiiN2Qt11OrientationE
	_ZN17QGridLayoutEngine15setRowAlignmentEi6QFlagsIN2Qt13AlignmentFlagEENS1_11OrientationE
	_ZN17QGridLayoutEngine18insertOrRemoveRowsEiiN2Qt11OrientationE
	_ZN17QGridLayoutEngine18setVisualDirectionEN2Qt15LayoutDirectionE
	_ZN17QGridLayoutEngine19setRowStretchFactorEiiN2Qt11OrientationE
	_ZN17QGridLayoutEngine7addItemEP15QGridLayoutItem
	_ZN17QGridLayoutEngine9setItemAtEiiP15QGridLayoutItem
	_ZN17QGridLayoutEngine9transposeEv
	_ZN17QGridLayoutEngineC1E6QFlagsIN2Qt13AlignmentFlagEE
	_ZN17QGridLayoutEngineC2E6QFlagsIN2Qt13AlignmentFlagEE
	_ZN17QIconEnginePlugin11qt_metacallEN11QMetaObject4CallEiPPv
	_ZN17QIconEnginePlugin11qt_metacastEPKc
	_ZN17QIconEnginePlugin16staticMetaObjectE
	_ZN17QIconEnginePlugin18qt_static_metacallEP7QObjectN11QMetaObject4CallEiPPv
	_ZN17QIconEnginePluginC1EP7QObject
	_ZN17QIconEnginePluginC2EP7QObject
	_ZN17QIconEnginePluginD0Ev
	_ZN17QIconEnginePluginD1Ev
	_ZN17QIconEnginePluginD2Ev
	_ZN17QInputMethodEvent15setCommitStringERK7QStringii
	_ZN17QInputMethodEventC1ERK7QStringRK5QListINS_9AttributeEE
	_ZN17QInputMethodEventC1ERKS_
	_ZN17QInputMethodEventC1Ev
	_ZN17QInputMethodEventC2ERK7QStringRK5QListINS_9AttributeEE
	_ZN17QInputMethodEventC2ERKS_
	_ZN17QInputMethodEventC2Ev
	_ZN17QInternalMimeData11canReadDataERK7QString
	_ZN17QInternalMimeData11qt_metacallEN11QMetaObject4CallEiPPv
	_ZN17QInternalMimeData11qt_metacastEPKc
	_ZN17QInternalMimeData13formatsHelperEPK9QMimeData
	_ZN17QInternalMimeData15hasFormatHelperERK7QStringPK9QMimeData
	_ZN17QInternalMimeData16renderDataHelperERK7QStringPK9QMimeData
	_ZN17QInternalMimeData16staticMetaObjectE
	_ZN17QInternalMimeData18qt_static_metacallEP7QObjectN11QMetaObject4CallEiPPv
	_ZN17QInternalMimeDataC1Ev
	_ZN17QInternalMimeDataC2Ev
	_ZN17QInternalMimeDataD0Ev
	_ZN17QInternalMimeDataD1Ev
	_ZN17QInternalMimeDataD2Ev
	_ZN17QOffscreenSurface11qt_metacallEN11QMetaObject4CallEiPPv
	_ZN17QOffscreenSurface11qt_metacastEPKc
	_ZN17QOffscreenSurface13screenChangedEP7QScreen
	_ZN17QOffscreenSurface15screenDestroyedEP7QObject
	_ZN17QOffscreenSurface16staticMetaObjectE
	_ZN17QOffscreenSurface18qt_static_metacallEP7QObjectN11QMetaObject4CallEiPPv
	_ZN17QOffscreenSurface6createEv
	_ZN17QOffscreenSurface7destroyEv
	_ZN17QOffscreenSurface9setFormatERK14QSurfaceFormat
	_ZN17QOffscreenSurface9setScreenEP7QScreen
	_ZN17QOffscreenSurfaceC1EP7QScreen
	_ZN17QOffscreenSurfaceC2EP7QScreen
	_ZN17QOffscreenSurfaceD0Ev
	_ZN17QOffscreenSurfaceD1Ev
	_ZN17QOffscreenSurfaceD2Ev
	_ZN17QOpenGLExtensions16openGLExtensionsEv
	_ZN17QOpenGLExtensionsC1EP14QOpenGLContext
	_ZN17QOpenGLExtensionsC1Ev
	_ZN17QOpenGLExtensionsC2EP14QOpenGLContext
	_ZN17QOpenGLExtensionsC2Ev
	_ZN17QOpenGLTimerQuery11qt_metacallEN11QMetaObject4CallEiPPv
	_ZN17QOpenGLTimerQuery11qt_metacastEPKc
	_ZN17QOpenGLTimerQuery15recordTimestampEv
	_ZN17QOpenGLTimerQuery16staticMetaObjectE
	_ZN17QOpenGLTimerQuery18qt_static_metacallEP7QObjectN11QMetaObject4CallEiPPv
	_ZN17QOpenGLTimerQuery3endEv
	_ZN17QOpenGLTimerQuery5beginEv
	_ZN17QOpenGLTimerQuery6createEv
	_ZN17QOpenGLTimerQuery7destroyEv
	_ZN17QOpenGLTimerQueryC1EP7QObject
	_ZN17QOpenGLTimerQueryC2EP7QObject
	_ZN17QOpenGLTimerQueryD0Ev
	_ZN17QOpenGLTimerQueryD1Ev
	_ZN17QOpenGLTimerQueryD2Ev
	_ZN17QPagedPaintDevice10setMarginsERKNS_7MarginsE
	_ZN17QPagedPaintDevice11setPageSizeENS_8PageSizeE
	_ZN17QPagedPaintDevice11setPageSizeERK9QPageSize
	_ZN17QPagedPaintDevice13setPageLayoutERK11QPageLayout
	_ZN17QPagedPaintDevice13setPageSizeMMERK6QSizeF
	_ZN17QPagedPaintDevice14setPageMarginsERK9QMarginsF
	_ZN17QPagedPaintDevice14setPageMarginsERK9QMarginsFN11QPageLayout4UnitE
	_ZN17QPagedPaintDevice16devicePageLayoutEv
	_ZN17QPagedPaintDevice18setPageOrientationEN11QPageLayout11OrientationE
	_ZN17QPagedPaintDevice2ddEv
	_ZN17QPagedPaintDeviceC1EP24QPagedPaintDevicePrivate
	_ZN17QPagedPaintDeviceC1Ev
	_ZN17QPagedPaintDeviceC2EP24QPagedPaintDevicePrivate
	_ZN17QPagedPaintDeviceC2Ev
	_ZN17QPagedPaintDeviceD0Ev
	_ZN17QPagedPaintDeviceD1Ev
	_ZN17QPagedPaintDeviceD2Ev
	_ZN17QPdfEnginePrivate10writeFontsEv
	_ZN17QPdfEnginePrivate10writeImageERK10QByteArrayiiiiib
	_ZN17QPdfEnginePrivate11printStringERK7QString
	_ZN17QPdfEnginePrivate11writeHeaderEv
	_ZN17QPdfEnginePrivate12addXrefEntryEib
	_ZN17QPdfEnginePrivate12drawTextItemERK7QPointFRK12QTextItemInt
	_ZN17QPdfEnginePrivate13writePageRootEv
	_ZN17QPdfEnginePrivate15addBrushPatternERK10QTransformPbPi
	_ZN17QPdfEnginePrivate15writeCompressedEP9QIODevice
	_ZN17QPdfEnginePrivate15writeCompressedEPKci
	_ZN17QPdfEnginePrivate22addConstantAlphaObjectEii
	_ZN17QPdfEnginePrivate7newPageEv
	_ZN17QPdfEnginePrivate7xprintfEPKcz
	_ZN17QPdfEnginePrivate8addImageERK6QImagePbx
	_ZN17QPdfEnginePrivate9embedFontEP11QFontSubset
	_ZN17QPdfEnginePrivate9writeInfoEv
	_ZN17QPdfEnginePrivate9writePageEv
	_ZN17QPdfEnginePrivate9writeTailEv
	_ZN17QPdfEnginePrivateC1Ev
	_ZN17QPdfEnginePrivateC2Ev
	_ZN17QPdfEnginePrivateD0Ev
	_ZN17QPdfEnginePrivateD1Ev
	_ZN17QPdfEnginePrivateD2Ev
	_ZN17QPlatformMenuItem11qt_metacallEN11QMetaObject4CallEiPPv
	_ZN17QPlatformMenuItem11qt_metacastEPKc
	_ZN17QPlatformMenuItem16staticMetaObjectE
	_ZN17QPlatformMenuItem17setNativeContentsEy
	_ZN17QPlatformMenuItem18qt_static_metacallEP7QObjectN11QMetaObject4CallEiPPv
	_ZN17QPlatformMenuItem7hoveredEv
	_ZN17QPlatformMenuItem9activatedEv
	_ZN17QPlatformServices12openDocumentERK4QUrl
	_ZN17QPlatformServices7openUrlERK4QUrl
	_ZN17QPlatformServicesD0Ev
	_ZN17QPlatformServicesD1Ev
	_ZN17QTextImageHandler10drawObjectEP8QPainterRK6QRectFP13QTextDocumentiRK11QTextFormat
	_ZN17QTextImageHandler11qt_metacallEN11QMetaObject4CallEiPPv
	_ZN17QTextImageHandler11qt_metacastEPKc
	_ZN17QTextImageHandler13intrinsicSizeEP13QTextDocumentiRK11QTextFormat
	_ZN17QTextImageHandler16staticMetaObjectE
	_ZN17QTextImageHandler18qt_static_metacallEP7QObjectN11QMetaObject4CallEiPPv
	_ZN17QTextImageHandler5imageEP13QTextDocumentRK16QTextImageFormat
	_ZN17QTextImageHandlerC1EP7QObject
	_ZN17QTextImageHandlerC2EP7QObject
	_ZN17QTextInlineObject10setDescentEd
	_ZN17QTextInlineObject8setWidthEd
	_ZN17QTextInlineObject9setAscentEd
	_ZN18QDistanceFieldData6createERK12QPainterPathb
	_ZN18QDistanceFieldData6createERK5QSize
	_ZN18QDistanceFieldDataC1ERKS_
	_ZN18QDistanceFieldDataC2ERKS_
	_ZN18QDistanceFieldDataD1Ev
	_ZN18QDistanceFieldDataD2Ev
	_ZN18QFileDialogOptions10setHistoryERK11QStringList
	_ZN18QFileDialogOptions10setOptionsE6QFlagsINS_16FileDialogOptionEE
	_ZN18QFileDialogOptions11setFileModeENS_8FileModeE
	_ZN18QFileDialogOptions11setViewModeENS_8ViewModeE
	_ZN18QFileDialogOptions12setLabelTextENS_11DialogLabelERK7QString
	_ZN18QFileDialogOptions13setAcceptModeENS_10AcceptModeE
	_ZN18QFileDialogOptions14setNameFiltersERK11QStringList
	_ZN18QFileDialogOptions14setSidebarUrlsERK5QListI4QUrlE
	_ZN18QFileDialogOptions14setWindowTitleERK7QString
	_ZN18QFileDialogOptions16setDefaultSuffixERK7QString
	_ZN18QFileDialogOptions18setMimeTypeFiltersERK11QStringList
	_ZN18QFileDialogOptions19setInitialDirectoryERK4QUrl
	_ZN18QFileDialogOptions20isLabelExplicitlySetENS_11DialogLabelE
	_ZN18QFileDialogOptions25setInitiallySelectedFilesERK5QListI4QUrlE
	_ZN18QFileDialogOptions30setInitiallySelectedNameFilterERK7QString
	_ZN18QFileDialogOptions9setFilterE6QFlagsIN4QDir6FilterEE
	_ZN18QFileDialogOptions9setOptionENS_16FileDialogOptionEb
	_ZN18QFileDialogOptionsC1ERKS_
	_ZN18QFileDialogOptionsC1Ev
	_ZN18QFileDialogOptionsC2ERKS_
	_ZN18QFileDialogOptionsC2Ev
	_ZN18QFileDialogOptionsD1Ev
	_ZN18QFileDialogOptionsD2Ev
	_ZN18QFileDialogOptionsaSERKS_
	_ZN18QFontDialogOptions10setOptionsE6QFlagsINS_16FontDialogOptionEE
	_ZN18QFontDialogOptions14setWindowTitleERK7QString
	_ZN18QFontDialogOptions9setOptionENS_16FontDialogOptionEb
	_ZN18QFontDialogOptionsC1ERKS_
	_ZN18QFontDialogOptionsC1Ev
	_ZN18QFontDialogOptionsC2ERKS_
	_ZN18QFontDialogOptionsC2Ev
	_ZN18QFontDialogOptionsD1Ev
	_ZN18QFontDialogOptionsD2Ev
	_ZN18QFontDialogOptionsaSERKS_
	_ZN18QOpenGLDebugLogger10initializeEv
	_ZN18QOpenGLDebugLogger10logMessageERK19QOpenGLDebugMessage
	_ZN18QOpenGLDebugLogger11qt_metacallEN11QMetaObject4CallEiPPv
	_ZN18QOpenGLDebugLogger11qt_metacastEPKc
	_ZN18QOpenGLDebugLogger11stopLoggingEv
	_ZN18QOpenGLDebugLogger12startLoggingENS_11LoggingModeE
	_ZN18QOpenGLDebugLogger13messageLoggedERK19QOpenGLDebugMessage
	_ZN18QOpenGLDebugLogger14enableMessagesE6QFlagsIN19QOpenGLDebugMessage6SourceEES0_INS1_4TypeEES0_INS1_8SeverityEE
	_ZN18QOpenGLDebugLogger14enableMessagesERK7QVectorIjE6QFlagsIN19QOpenGLDebugMessage6SourceEES4_INS5_4TypeEE
	_ZN18QOpenGLDebugLogger15disableMessagesE6QFlagsIN19QOpenGLDebugMessage6SourceEES0_INS1_4TypeEES0_INS1_8SeverityEE
	_ZN18QOpenGLDebugLogger15disableMessagesERK7QVectorIjE6QFlagsIN19QOpenGLDebugMessage6SourceEES4_INS5_4TypeEE
	_ZN18QOpenGLDebugLogger16staticMetaObjectE
	_ZN18QOpenGLDebugLogger18qt_static_metacallEP7QObjectN11QMetaObject4CallEiPPv
	_ZN18QOpenGLDebugLogger8popGroupEv
	_ZN18QOpenGLDebugLogger9pushGroupERK7QStringjN19QOpenGLDebugMessage6SourceE
	_ZN18QOpenGLDebugLoggerC1EP7QObject
	_ZN18QOpenGLDebugLoggerC2EP7QObject
	_ZN18QOpenGLDebugLoggerD0Ev
	_ZN18QOpenGLDebugLoggerD1Ev
	_ZN18QOpenGLDebugLoggerD2Ev
	_ZN18QOpenGLPaintDevice15setPaintFlippedEb
	_ZN18QOpenGLPaintDevice16setDotsPerMeterXEd
	_ZN18QOpenGLPaintDevice16setDotsPerMeterYEd
	_ZN18QOpenGLPaintDevice18ensureActiveTargetEv
	_ZN18QOpenGLPaintDevice19setDevicePixelRatioEd
	_ZN18QOpenGLPaintDevice7setSizeERK5QSize
	_ZN18QOpenGLPaintDeviceC1ERK5QSize
	_ZN18QOpenGLPaintDeviceC1Eii
	_ZN18QOpenGLPaintDeviceC1Ev
	_ZN18QOpenGLPaintDeviceC2ERK5QSize
	_ZN18QOpenGLPaintDeviceC2Eii
	_ZN18QOpenGLPaintDeviceC2Ev
	_ZN18QOpenGLPaintDeviceD0Ev
	_ZN18QOpenGLPaintDeviceD1Ev
	_ZN18QOpenGLPaintDeviceD2Ev
	_ZN18QOpenGLTimeMonitor11qt_metacallEN11QMetaObject4CallEiPPv
	_ZN18QOpenGLTimeMonitor11qt_metacastEPKc
	_ZN18QOpenGLTimeMonitor12recordSampleEv
	_ZN18QOpenGLTimeMonitor14setSampleCountEi
	_ZN18QOpenGLTimeMonitor16staticMetaObjectE
	_ZN18QOpenGLTimeMonitor18qt_static_metacallEP7QObjectN11QMetaObject4CallEiPPv
	_ZN18QOpenGLTimeMonitor5resetEv
	_ZN18QOpenGLTimeMonitor6createEv
	_ZN18QOpenGLTimeMonitor7destroyEv
	_ZN18QOpenGLTimeMonitorC1EP7QObject
	_ZN18QOpenGLTimeMonitorC2EP7QObject
	_ZN18QOpenGLTimeMonitorD0Ev
	_ZN18QOpenGLTimeMonitorD1Ev
	_ZN18QOpenGLTimeMonitorD2Ev
	_ZN18QPlatformClipboard11emitChangedEN10QClipboard4ModeE
	_ZN18QPlatformClipboard11setMimeDataEP9QMimeDataN10QClipboard4ModeE
	_ZN18QPlatformClipboard8mimeDataEN10QClipboard4ModeE
	_ZN18QPlatformClipboardD0Ev
	_ZN18QPlatformClipboardD1Ev
	_ZN18QPlatformClipboardD2Ev
	_ZN18QRasterPaintEngine10drawBitmapERK7QPointFRK6QImageP9QSpanData
	_ZN18QRasterPaintEngine10drawPixmapERK6QRectFRK7QPixmapS2_
	_ZN18QRasterPaintEngine10drawPixmapERK7QPointFRK7QPixmap
	_ZN18QRasterPaintEngine10drawPointsEPK6QPointi
	_ZN18QRasterPaintEngine10drawPointsEPK7QPointFi
	_ZN18QRasterPaintEngine10penChangedEv
	_ZN18QRasterPaintEngine11alphaPenBltEPKviiiiii
	_ZN18QRasterPaintEngine11drawEllipseERK6QRectF
	_ZN18QRasterPaintEngine11drawPolygonEPK6QPointiN12QPaintEngine15PolygonDrawModeE
	_ZN18QRasterPaintEngine11drawPolygonEPK7QPointFiN12QPaintEngine15PolygonDrawModeE
	_ZN18QRasterPaintEngine11fillPolygonEPK7QPointFiN12QPaintEngine15PolygonDrawModeE
	_ZN18QRasterPaintEngine11updateBrushERK6QBrush
	_ZN18QRasterPaintEngine12brushChangedEv
	_ZN18QRasterPaintEngine12drawTextItemERK7QPointFRK9QTextItem
	_ZN18QRasterPaintEngine12rasterBufferEv
	_ZN18QRasterPaintEngine12updateMatrixERK10QTransform
	_ZN18QRasterPaintEngine13releaseBufferEv
	_ZN18QRasterPaintEngine14opacityChangedEv
	_ZN18QRasterPaintEngine15drawTiledPixmapERK6QRectFRK7QPixmapRK7QPointF
	_ZN18QRasterPaintEngine16drawCachedGlyphsEiPKjPK11QFixedPointP11QFontEngine
	_ZN18QRasterPaintEngine16transformChangedEv
	_ZN18QRasterPaintEngine17updateRasterStateEv
	_ZN18QRasterPaintEngine18brushOriginChangedEv
	_ZN18QRasterPaintEngine18clipEnabledChangedEv
	_ZN18QRasterPaintEngine18drawStaticTextItemEP15QStaticTextItem
	_ZN18QRasterPaintEngine18renderHintsChangedEv
	_ZN18QRasterPaintEngine19updateOutlineMapperEv
	_ZN18QRasterPaintEngine20toNormalizedFillRectERK6QRectF
	_ZN18QRasterPaintEngine21clearTypeFontsEnabledEv
	_ZN18QRasterPaintEngine22compositionModeChangedEv
	_ZN18QRasterPaintEngine25setClipRectInDeviceCoordsERK5QRectN2Qt13ClipOperationE
	_ZN18QRasterPaintEngine3endEv
	_ZN18QRasterPaintEngine4clipERK11QVectorPathN2Qt13ClipOperationE
	_ZN18QRasterPaintEngine4clipERK5QRectN2Qt13ClipOperationE
	_ZN18QRasterPaintEngine4clipERK7QRegionN2Qt13ClipOperationE
	_ZN18QRasterPaintEngine4fillERK11QVectorPathRK6QBrush
	_ZN18QRasterPaintEngine4initEv
	_ZN18QRasterPaintEngine5beginEP12QPaintDevice
	_ZN18QRasterPaintEngine5setDCEP5HDC__
	_ZN18QRasterPaintEngine6strokeERK11QVectorPathRK4QPen
	_ZN18QRasterPaintEngine8fillPathERK12QPainterPathP9QSpanData
	_ZN18QRasterPaintEngine8fillRectERK6QRectFP9QSpanData
	_ZN18QRasterPaintEngine8fillRectERK6QRectFRK6QBrush
	_ZN18QRasterPaintEngine8fillRectERK6QRectFRK6QColor
	_ZN18QRasterPaintEngine8setStateEP13QPainterState
	_ZN18QRasterPaintEngine9drawImageERK6QRectFRK6QImageS2_6QFlagsIN2Qt19ImageConversionFlagEE
	_ZN18QRasterPaintEngine9drawImageERK7QPointFRK6QImage
	_ZN18QRasterPaintEngine9drawLinesEPK5QLinei
	_ZN18QRasterPaintEngine9drawLinesEPK6QLineFi
	_ZN18QRasterPaintEngine9drawRectsEPK5QRecti
	_ZN18QRasterPaintEngine9drawRectsEPK6QRectFi
	_ZN18QRasterPaintEngine9updatePenERK4QPen
	_ZN18QRasterPaintEngineC1EP12QPaintDevice
	_ZN18QRasterPaintEngineC1ER25QRasterPaintEnginePrivateP12QPaintDevice
	_ZN18QRasterPaintEngineC2EP12QPaintDevice
	_ZN18QRasterPaintEngineC2ER25QRasterPaintEnginePrivateP12QPaintDevice
	_ZN18QRasterPaintEngineD0Ev
	_ZN18QRasterPaintEngineD1Ev
	_ZN18QRasterPaintEngineD2Ev
	_ZN18QStandardItemModel10insertRowsEiiRK11QModelIndex
	_ZN18QStandardItemModel10removeRowsEiiRK11QModelIndex
	_ZN18QStandardItemModel10takeColumnEi
	_ZN18QStandardItemModel11itemChangedEP13QStandardItem
	_ZN18QStandardItemModel11qt_metacallEN11QMetaObject4CallEiPPv
	_ZN18QStandardItemModel11qt_metacastEPKc
	_ZN18QStandardItemModel11setItemDataERK11QModelIndexRK4QMapIi8QVariantE
	_ZN18QStandardItemModel11setRowCountEi
	_ZN18QStandardItemModel11setSortRoleEi
	_ZN18QStandardItemModel12appendColumnERK5QListIP13QStandardItemE
	_ZN18QStandardItemModel12dropMimeDataEPK9QMimeDataN2Qt10DropActionEiiRK11QModelIndex
	_ZN18QStandardItemModel12insertColumnEiRK5QListIP13QStandardItemE
	_ZN18QStandardItemModel13insertColumnsEiiRK11QModelIndex
	_ZN18QStandardItemModel13removeColumnsEiiRK11QModelIndex
	_ZN18QStandardItemModel13setHeaderDataEiN2Qt11OrientationERK8QVarianti
	_ZN18QStandardItemModel14setColumnCountEi
	_ZN18QStandardItemModel16setItemPrototypeEPK13QStandardItem
	_ZN18QStandardItemModel16setItemRoleNamesERK5QHashIi10QByteArrayE
	_ZN18QStandardItemModel16staticMetaObjectE
	_ZN18QStandardItemModel18qt_static_metacallEP7QObjectN11QMetaObject4CallEiPPv
	_ZN18QStandardItemModel21setVerticalHeaderItemEiP13QStandardItem
	_ZN18QStandardItemModel22takeVerticalHeaderItemEi
	_ZN18QStandardItemModel23setHorizontalHeaderItemEiP13QStandardItem
	_ZN18QStandardItemModel23setVerticalHeaderLabelsERK11QStringList
	_ZN18QStandardItemModel24takeHorizontalHeaderItemEi
	_ZN18QStandardItemModel25setHorizontalHeaderLabelsERK11QStringList
	_ZN18QStandardItemModel4sortEiN2Qt9SortOrderE
	_ZN18QStandardItemModel5clearEv
	_ZN18QStandardItemModel7setDataERK11QModelIndexRK8QVarianti
	_ZN18QStandardItemModel7setItemEiiP13QStandardItem
	_ZN18QStandardItemModel7takeRowEi
	_ZN18QStandardItemModel8takeItemEii
	_ZN18QStandardItemModel9appendRowERK5QListIP13QStandardItemE
	_ZN18QStandardItemModel9insertRowEiRK5QListIP13QStandardItemE
	_ZN18QStandardItemModelC1EP7QObject
	_ZN18QStandardItemModelC1ER25QStandardItemModelPrivateP7QObject
	_ZN18QStandardItemModelC1EiiP7QObject
	_ZN18QStandardItemModelC2EP7QObject
	_ZN18QStandardItemModelC2ER25QStandardItemModelPrivateP7QObject
	_ZN18QStandardItemModelC2EiiP7QObject
	_ZN18QStandardItemModelD0Ev
	_ZN18QStandardItemModelD1Ev
	_ZN18QStandardItemModelD2Ev
	_ZN18QSyntaxHighlighter11qt_metacallEN11QMetaObject4CallEiPPv
	_ZN18QSyntaxHighlighter11qt_metacastEPKc
	_ZN18QSyntaxHighlighter11rehighlightEv
	_ZN18QSyntaxHighlighter11setDocumentEP13QTextDocument
	_ZN18QSyntaxHighlighter16rehighlightBlockERK10QTextBlock
	_ZN18QSyntaxHighlighter16staticMetaObjectE
	_ZN18QSyntaxHighlighter18qt_static_metacallEP7QObjectN11QMetaObject4CallEiPPv
	_ZN18QSyntaxHighlighter20setCurrentBlockStateEi
	_ZN18QSyntaxHighlighter23setCurrentBlockUserDataEP18QTextBlockUserData
	_ZN18QSyntaxHighlighter9setFormatEiiRK15QTextCharFormat
	_ZN18QSyntaxHighlighter9setFormatEiiRK5QFont
	_ZN18QSyntaxHighlighter9setFormatEiiRK6QColor
	_ZN18QSyntaxHighlighterC1EP13QTextDocument
	_ZN18QSyntaxHighlighterC1EP7QObject
	_ZN18QSyntaxHighlighterC2EP13QTextDocument
	_ZN18QSyntaxHighlighterC2EP7QObject
	_ZN18QSyntaxHighlighterD0Ev
	_ZN18QSyntaxHighlighterD1Ev
	_ZN18QSyntaxHighlighterD2Ev
	_ZN18QTextBlockUserDataD0Ev
	_ZN18QTextBlockUserDataD1Ev
	_ZN18QTextBlockUserDataD2Ev
	_ZN18QTextCursorPrivate10clearCellsEP10QTextTableiiiiN16QTextUndoCommand9OperationE
	_ZN18QTextCursorPrivate11insertBlockERK16QTextBlockFormatRK15QTextCharFormat
	_ZN18QTextCursorPrivate12adjustCursorEN11QTextCursor13MoveOperationE
	_ZN18QTextCursorPrivate12movePositionEN11QTextCursor13MoveOperationENS0_8MoveModeE
	_ZN18QTextCursorPrivate13setCharFormatERK15QTextCharFormatN20QTextDocumentPrivate16FormatChangeModeE
	_ZN18QTextCursorPrivate14adjustPositionEiiN16QTextUndoCommand9OperationE
	_ZN18QTextCursorPrivate14setBlockFormatERK16QTextBlockFormatN20QTextDocumentPrivate16FormatChangeModeE
	_ZN18QTextCursorPrivate17aboutToRemoveCellEii
	_ZN18QTextCursorPrivate18setBlockCharFormatERK15QTextCharFormatN20QTextDocumentPrivate16FormatChangeModeE
	_ZN18QTextCursorPrivate4setXEv
	_ZN18QTextCursorPrivate6removeEv
	_ZN18QTextCursorPrivateC1EP20QTextDocumentPrivate
	_ZN18QTextCursorPrivateC1ERKS_
	_ZN18QTextCursorPrivateC2EP20QTextDocumentPrivate
	_ZN18QTextCursorPrivateC2ERKS_
	_ZN18QTextCursorPrivateD1Ev
	_ZN18QTextCursorPrivateD2Ev
	_ZN18QTextureGlyphCache19fillInPendingGlyphsEv
	_ZN18QTextureGlyphCache8populateEP11QFontEngineiPKjPK11QFixedPoint
	_ZN18QTextureGlyphCacheD0Ev
	_ZN18QTextureGlyphCacheD1Ev
	_ZN19QBlitterPaintEngine10drawPixmapERK6QRectFRK7QPixmapS2_
	_ZN19QBlitterPaintEngine10drawPixmapERK7QPointFRK7QPixmap
	_ZN19QBlitterPaintEngine10drawPointsEPK6QPointi
	_ZN19QBlitterPaintEngine10drawPointsEPK7QPointFi
	_ZN19QBlitterPaintEngine10penChangedEv
	_ZN19QBlitterPaintEngine11drawEllipseERK6QRectF
	_ZN19QBlitterPaintEngine11drawPolygonEPK6QPointiN12QPaintEngine15PolygonDrawModeE
	_ZN19QBlitterPaintEngine11drawPolygonEPK7QPointFiN12QPaintEngine15PolygonDrawModeE
	_ZN19QBlitterPaintEngine11fillPolygonEPK7QPointFiN12QPaintEngine15PolygonDrawModeE
	_ZN19QBlitterPaintEngine12brushChangedEv
	_ZN19QBlitterPaintEngine12drawTextItemERK7QPointFRK9QTextItem
	_ZN19QBlitterPaintEngine14opacityChangedEv
	_ZN19QBlitterPaintEngine15drawTiledPixmapERK6QRectFRK7QPixmapRK7QPointF
	_ZN19QBlitterPaintEngine16transformChangedEv
	_ZN19QBlitterPaintEngine18clipEnabledChangedEv
	_ZN19QBlitterPaintEngine18drawStaticTextItemEP15QStaticTextItem
	_ZN19QBlitterPaintEngine18renderHintsChangedEv
	_ZN19QBlitterPaintEngine22compositionModeChangedEv
	_ZN19QBlitterPaintEngine3endEv
	_ZN19QBlitterPaintEngine4fillERK11QVectorPathRK6QBrush
	_ZN19QBlitterPaintEngine5beginEP12QPaintDevice
	_ZN19QBlitterPaintEngine6strokeERK11QVectorPathRK4QPen
	_ZN19QBlitterPaintEngine8fillPathERK12QPainterPathP9QSpanData
	_ZN19QBlitterPaintEngine8fillRectERK6QRectFRK6QBrush
	_ZN19QBlitterPaintEngine8fillRectERK6QRectFRK6QColor
	_ZN19QBlitterPaintEngine8setStateEP13QPainterState
	_ZN19QBlitterPaintEngine9drawImageERK6QRectFRK6QImageS2_6QFlagsIN2Qt19ImageConversionFlagEE
	_ZN19QBlitterPaintEngine9drawImageERK7QPointFRK6QImage
	_ZN19QBlitterPaintEngine9drawRectsEPK5QRecti
	_ZN19QBlitterPaintEngine9drawRectsEPK6QRectFi
	_ZN19QBlitterPaintEngineC1EP24QBlittablePlatformPixmap
	_ZN19QBlitterPaintEngineC2EP24QBlittablePlatformPixmap
	_ZN19QColorDialogOptions10setOptionsE6QFlagsINS_17ColorDialogOptionEE
	_ZN19QColorDialogOptions11customColorEi
	_ZN19QColorDialogOptions12customColorsEv
	_ZN19QColorDialogOptions13standardColorEi
	_ZN19QColorDialogOptions14setCustomColorEij
	_ZN19QColorDialogOptions14setWindowTitleERK7QString
	_ZN19QColorDialogOptions14standardColorsEv
	_ZN19QColorDialogOptions16customColorCountEv
	_ZN19QColorDialogOptions16setStandardColorEij
	_ZN19QColorDialogOptions9setOptionENS_17ColorDialogOptionEb
	_ZN19QColorDialogOptionsC1ERKS_
	_ZN19QColorDialogOptionsC1Ev
	_ZN19QColorDialogOptionsC2ERKS_
	_ZN19QColorDialogOptionsC2Ev
	_ZN19QColorDialogOptionsD1Ev
	_ZN19QColorDialogOptionsD2Ev
	_ZN19QColorDialogOptionsaSERKS_
	_ZN19QFontEngineMultiQPA10loadEngineEi
	_ZN19QFontEngineMultiQPA21createMultiFontEngineEP11QFontEnginei
	_ZN19QFontEngineMultiQPA23setFallbackFamiliesListERK11QStringList
	_ZN19QFontEngineMultiQPA29ensureFallbackFamiliesQueriedEv
	_ZN19QFontEngineMultiQPA4initEP11QFontEngine
	_ZN19QFontEngineMultiQPAC1EP11QFontEnginei
	_ZN19QFontEngineMultiQPAC1EP11QFontEngineiRK11QStringList
	_ZN19QFontEngineMultiQPAC2EP11QFontEnginei
	_ZN19QFontEngineMultiQPAC2EP11QFontEngineiRK11QStringList
	_ZN19QNativeGestureEventC1EN2Qt17NativeGestureTypeERK7QPointFS4_S4_dmy
	_ZN19QNativeGestureEventC2EN2Qt17NativeGestureTypeERK7QPointFS4_S4_dmy
	_ZN19QOpenGLContextGroup11qt_metacallEN11QMetaObject4CallEiPPv
	_ZN19QOpenGLContextGroup11qt_metacastEPKc
	_ZN19QOpenGLContextGroup16staticMetaObjectE
	_ZN19QOpenGLContextGroup18qt_static_metacallEP7QObjectN11QMetaObject4CallEiPPv
	_ZN19QOpenGLContextGroup19currentContextGroupEv
	_ZN19QOpenGLContextGroupC1Ev
	_ZN19QOpenGLContextGroupC2Ev
	_ZN19QOpenGLContextGroupD0Ev
	_ZN19QOpenGLContextGroupD1Ev
	_ZN19QOpenGLContextGroupD2Ev
	_ZN19QOpenGLDebugMessage23createThirdPartyMessageERK7QStringjNS_8SeverityENS_4TypeE
	_ZN19QOpenGLDebugMessage24createApplicationMessageERK7QStringjNS_8SeverityENS_4TypeE
	_ZN19QOpenGLDebugMessageC1ERKS_
	_ZN19QOpenGLDebugMessageC1Ev
	_ZN19QOpenGLDebugMessageC2ERKS_
	_ZN19QOpenGLDebugMessageC2Ev
	_ZN19QOpenGLDebugMessageD1Ev
	_ZN19QOpenGLDebugMessageD2Ev
	_ZN19QOpenGLDebugMessageaSERKS_
	_ZN19QOpenGLTextureCache10invalidateEx
	_ZN19QOpenGLTextureCache11bindTextureEP14QOpenGLContextRK6QImage
	_ZN19QOpenGLTextureCache11bindTextureEP14QOpenGLContextRK7QPixmap
	_ZN19QOpenGLTextureCache11bindTextureEP14QOpenGLContextxRK6QImage
	_ZN19QOpenGLTextureCache12freeResourceEP14QOpenGLContext
	_ZN19QOpenGLTextureCache15cacheForContextEP14QOpenGLContext
	_ZN19QOpenGLTextureCache18invalidateResourceEv
	_ZN19QOpenGLTextureCacheC1EP14QOpenGLContext
	_ZN19QOpenGLTextureCacheC2EP14QOpenGLContext
	_ZN19QOpenGLTextureCacheD0Ev
	_ZN19QOpenGLTextureCacheD1Ev
	_ZN19QOpenGLTextureCacheD2Ev
	_ZN19QPaintEnginePrivate15drawBoxTextItemERK7QPointFRK12QTextItemInt
	_ZN19QPaintEnginePrivate18systemStateChangedEv
	_ZN19QPaintEnginePrivateD0Ev
	_ZN19QPaintEnginePrivateD1Ev
	_ZN19QPainterPathStroker11setCapStyleEN2Qt11PenCapStyleE
	_ZN19QPainterPathStroker12setJoinStyleEN2Qt12PenJoinStyleE
	_ZN19QPainterPathStroker13setDashOffsetEd
	_ZN19QPainterPathStroker13setMiterLimitEd
	_ZN19QPainterPathStroker14setDashPatternEN2Qt8PenStyleE
	_ZN19QPainterPathStroker14setDashPatternERK7QVectorIdE
	_ZN19QPainterPathStroker17setCurveThresholdEd
	_ZN19QPainterPathStroker8setWidthEd
	_ZN19QPainterPathStrokerC1ERK4QPen
	_ZN19QPainterPathStrokerC1Ev
	_ZN19QPainterPathStrokerC2ERK4QPen
	_ZN19QPainterPathStrokerC2Ev
	_ZN19QPainterPathStrokerD1Ev
	_ZN19QPainterPathStrokerD2Ev
	_ZN19QScrollPrepareEvent13setContentPosERK7QPointF
	_ZN19QScrollPrepareEvent15setViewportSizeERK6QSizeF
	_ZN19QScrollPrepareEvent18setContentPosRangeERK6QRectF
	_ZN19QScrollPrepareEventC1ERK7QPointF
	_ZN19QScrollPrepareEventC2ERK7QPointF
	_ZN19QScrollPrepareEventD0Ev
	_ZN19QScrollPrepareEventD1Ev
	_ZN19QScrollPrepareEventD2Ev
	_ZN19QTextDocumentLayout10timerEventEP11QTimerEvent
	_ZN19QTextDocumentLayout11qt_metacallEN11QMetaObject4CallEiPPv
	_ZN19QTextDocumentLayout11qt_metacastEPKc
	_ZN19QTextDocumentLayout11setViewportERK6QRectF
	_ZN19QTextDocumentLayout14ensureLayoutedEd
	_ZN19QTextDocumentLayout14layoutFinishedEv
	_ZN19QTextDocumentLayout14setCursorWidthEi
	_ZN19QTextDocumentLayout15documentChangedEiii
	_ZN19QTextDocumentLayout16drawInlineObjectEP8QPainterRK6QRectF17QTextInlineObjectiRK11QTextFormat
	_ZN19QTextDocumentLayout16staticMetaObjectE
	_ZN19QTextDocumentLayout18qt_static_metacallEP7QObjectN11QMetaObject4CallEiPPv
	_ZN19QTextDocumentLayout18resizeInlineObjectE17QTextInlineObjectiRK11QTextFormat
	_ZN19QTextDocumentLayout19setFixedColumnWidthEi
	_ZN19QTextDocumentLayout20positionInlineObjectE17QTextInlineObjectiRK11QTextFormat
	_ZN19QTextDocumentLayout4drawEP8QPainterRKN27QAbstractTextDocumentLayout12PaintContextE
	_ZN19QTextDocumentLayout8doLayoutEiii
	_ZN19QTextDocumentLayoutC1EP13QTextDocument
	_ZN19QTextDocumentLayoutC2EP13QTextDocument
	_ZN19QTextDocumentWriter11setFileNameERK7QString
	_ZN19QTextDocumentWriter24supportedDocumentFormatsEv
	_ZN19QTextDocumentWriter5writeEPK13QTextDocument
	_ZN19QTextDocumentWriter5writeERK21QTextDocumentFragment
	_ZN19QTextDocumentWriter8setCodecEP10QTextCodec
	_ZN19QTextDocumentWriter9setDeviceEP9QIODevice
	_ZN19QTextDocumentWriter9setFormatERK10QByteArray
	_ZN19QTextDocumentWriterC1EP9QIODeviceRK10QByteArray
	_ZN19QTextDocumentWriterC1ERK7QStringRK10QByteArray
	_ZN19QTextDocumentWriterC1Ev
	_ZN19QTextDocumentWriterC2EP9QIODeviceRK10QByteArray
	_ZN19QTextDocumentWriterC2ERK7QStringRK10QByteArray
	_ZN19QTextDocumentWriterC2Ev
	_ZN19QTextDocumentWriterD1Ev
	_ZN19QTextDocumentWriterD2Ev
	_ZN19QToolBarChangeEventC1Eb
	_ZN19QToolBarChangeEventC2Eb
	_ZN19QToolBarChangeEventD0Ev
	_ZN19QToolBarChangeEventD1Ev
	_ZN19QToolBarChangeEventD2Ev
	_ZN20QAccessibleInterface12virtual_hookEiPv
	_ZN20QAccessibleInterface14interface_castEN11QAccessible13InterfaceTypeE
	_ZN20QAccessibleInterfaceD0Ev
	_ZN20QAccessibleInterfaceD1Ev
	_ZN20QAccessibleInterfaceD2Ev
	_ZN20QOpenGLFunctions_1_014versionProfileEv
	_ZN20QOpenGLFunctions_1_019isContextCompatibleEP14QOpenGLContext
	_ZN20QOpenGLFunctions_1_025initializeOpenGLFunctionsEv
	_ZN20QOpenGLFunctions_1_0C1Ev
	_ZN20QOpenGLFunctions_1_0C2Ev
	_ZN20QOpenGLFunctions_1_0D0Ev
	_ZN20QOpenGLFunctions_1_0D1Ev
	_ZN20QOpenGLFunctions_1_0D2Ev
	_ZN20QOpenGLFunctions_1_114versionProfileEv
	_ZN20QOpenGLFunctions_1_119isContextCompatibleEP14QOpenGLContext
	_ZN20QOpenGLFunctions_1_125initializeOpenGLFunctionsEv
	_ZN20QOpenGLFunctions_1_1C1Ev
	_ZN20QOpenGLFunctions_1_1C2Ev
	_ZN20QOpenGLFunctions_1_1D0Ev
	_ZN20QOpenGLFunctions_1_1D1Ev
	_ZN20QOpenGLFunctions_1_1D2Ev
	_ZN20QOpenGLFunctions_1_214versionProfileEv
	_ZN20QOpenGLFunctions_1_219isContextCompatibleEP14QOpenGLContext
	_ZN20QOpenGLFunctions_1_225initializeOpenGLFunctionsEv
	_ZN20QOpenGLFunctions_1_2C1Ev
	_ZN20QOpenGLFunctions_1_2C2Ev
	_ZN20QOpenGLFunctions_1_2D0Ev
	_ZN20QOpenGLFunctions_1_2D1Ev
	_ZN20QOpenGLFunctions_1_2D2Ev
	_ZN20QOpenGLFunctions_1_314versionProfileEv
	_ZN20QOpenGLFunctions_1_319isContextCompatibleEP14QOpenGLContext
	_ZN20QOpenGLFunctions_1_325initializeOpenGLFunctionsEv
	_ZN20QOpenGLFunctions_1_3C1Ev
	_ZN20QOpenGLFunctions_1_3C2Ev
	_ZN20QOpenGLFunctions_1_3D0Ev
	_ZN20QOpenGLFunctions_1_3D1Ev
	_ZN20QOpenGLFunctions_1_3D2Ev
	_ZN20QOpenGLFunctions_1_414versionProfileEv
	_ZN20QOpenGLFunctions_1_419isContextCompatibleEP14QOpenGLContext
	_ZN20QOpenGLFunctions_1_425initializeOpenGLFunctionsEv
	_ZN20QOpenGLFunctions_1_4C1Ev
	_ZN20QOpenGLFunctions_1_4C2Ev
	_ZN20QOpenGLFunctions_1_4D0Ev
	_ZN20QOpenGLFunctions_1_4D1Ev
	_ZN20QOpenGLFunctions_1_4D2Ev
	_ZN20QOpenGLFunctions_1_514versionProfileEv
	_ZN20QOpenGLFunctions_1_519isContextCompatibleEP14QOpenGLContext
	_ZN20QOpenGLFunctions_1_525initializeOpenGLFunctionsEv
	_ZN20QOpenGLFunctions_1_5C1Ev
	_ZN20QOpenGLFunctions_1_5C2Ev
	_ZN20QOpenGLFunctions_1_5D0Ev
	_ZN20QOpenGLFunctions_1_5D1Ev
	_ZN20QOpenGLFunctions_1_5D2Ev
	_ZN20QOpenGLFunctions_2_014versionProfileEv
	_ZN20QOpenGLFunctions_2_019isContextCompatibleEP14QOpenGLContext
	_ZN20QOpenGLFunctions_2_025initializeOpenGLFunctionsEv
	_ZN20QOpenGLFunctions_2_0C1Ev
	_ZN20QOpenGLFunctions_2_0C2Ev
	_ZN20QOpenGLFunctions_2_0D0Ev
	_ZN20QOpenGLFunctions_2_0D1Ev
	_ZN20QOpenGLFunctions_2_0D2Ev
	_ZN20QOpenGLFunctions_2_114versionProfileEv
	_ZN20QOpenGLFunctions_2_119isContextCompatibleEP14QOpenGLContext
	_ZN20QOpenGLFunctions_2_125initializeOpenGLFunctionsEv
	_ZN20QOpenGLFunctions_2_1C1Ev
	_ZN20QOpenGLFunctions_2_1C2Ev
	_ZN20QOpenGLFunctions_2_1D0Ev
	_ZN20QOpenGLFunctions_2_1D1Ev
	_ZN20QOpenGLFunctions_2_1D2Ev
	_ZN20QOpenGLFunctions_3_014versionProfileEv
	_ZN20QOpenGLFunctions_3_019isContextCompatibleEP14QOpenGLContext
	_ZN20QOpenGLFunctions_3_025initializeOpenGLFunctionsEv
	_ZN20QOpenGLFunctions_3_0C1Ev
	_ZN20QOpenGLFunctions_3_0C2Ev
	_ZN20QOpenGLFunctions_3_0D0Ev
	_ZN20QOpenGLFunctions_3_0D1Ev
	_ZN20QOpenGLFunctions_3_0D2Ev
	_ZN20QOpenGLFunctions_3_114versionProfileEv
	_ZN20QOpenGLFunctions_3_119isContextCompatibleEP14QOpenGLContext
	_ZN20QOpenGLFunctions_3_125initializeOpenGLFunctionsEv
	_ZN20QOpenGLFunctions_3_1C1Ev
	_ZN20QOpenGLFunctions_3_1C2Ev
	_ZN20QOpenGLFunctions_3_1D0Ev
	_ZN20QOpenGLFunctions_3_1D1Ev
	_ZN20QOpenGLFunctions_3_1D2Ev
	_ZN20QOpenGLShaderProgram11qt_metacallEN11QMetaObject4CallEiPPv
	_ZN20QOpenGLShaderProgram11qt_metacastEPKc
	_ZN20QOpenGLShaderProgram12removeShaderEP13QOpenGLShader
	_ZN20QOpenGLShaderProgram15setUniformValueEPKcPA2_Kf
	_ZN20QOpenGLShaderProgram15setUniformValueEPKcPA3_Kf
	_ZN20QOpenGLShaderProgram15setUniformValueEPKcPA4_Kf
	_ZN20QOpenGLShaderProgram15setUniformValueEPKcRK10QMatrix4x4
	_ZN20QOpenGLShaderProgram15setUniformValueEPKcRK10QTransform
	_ZN20QOpenGLShaderProgram15setUniformValueEPKcRK14QGenericMatrixILi2ELi2EfE
	_ZN20QOpenGLShaderProgram15setUniformValueEPKcRK14QGenericMatrixILi2ELi3EfE
	_ZN20QOpenGLShaderProgram15setUniformValueEPKcRK14QGenericMatrixILi2ELi4EfE
	_ZN20QOpenGLShaderProgram15setUniformValueEPKcRK14QGenericMatrixILi3ELi2EfE
	_ZN20QOpenGLShaderProgram15setUniformValueEPKcRK14QGenericMatrixILi3ELi3EfE
	_ZN20QOpenGLShaderProgram15setUniformValueEPKcRK14QGenericMatrixILi3ELi4EfE
	_ZN20QOpenGLShaderProgram15setUniformValueEPKcRK14QGenericMatrixILi4ELi2EfE
	_ZN20QOpenGLShaderProgram15setUniformValueEPKcRK14QGenericMatrixILi4ELi3EfE
	_ZN20QOpenGLShaderProgram15setUniformValueEPKcRK5QSize
	_ZN20QOpenGLShaderProgram15setUniformValueEPKcRK6QColor
	_ZN20QOpenGLShaderProgram15setUniformValueEPKcRK6QPoint
	_ZN20QOpenGLShaderProgram15setUniformValueEPKcRK6QSizeF
	_ZN20QOpenGLShaderProgram15setUniformValueEPKcRK7QPointF
	_ZN20QOpenGLShaderProgram15setUniformValueEPKcRK9QVector2D
	_ZN20QOpenGLShaderProgram15setUniformValueEPKcRK9QVector3D
	_ZN20QOpenGLShaderProgram15setUniformValueEPKcRK9QVector4D
	_ZN20QOpenGLShaderProgram15setUniformValueEPKcf
	_ZN20QOpenGLShaderProgram15setUniformValueEPKcff
	_ZN20QOpenGLShaderProgram15setUniformValueEPKcfff
	_ZN20QOpenGLShaderProgram15setUniformValueEPKcffff
	_ZN20QOpenGLShaderProgram15setUniformValueEPKci
	_ZN20QOpenGLShaderProgram15setUniformValueEPKcj
	_ZN20QOpenGLShaderProgram15setUniformValueEiPA2_Kf
	_ZN20QOpenGLShaderProgram15setUniformValueEiPA3_Kf
	_ZN20QOpenGLShaderProgram15setUniformValueEiPA4_Kf
	_ZN20QOpenGLShaderProgram15setUniformValueEiRK10QMatrix4x4
	_ZN20QOpenGLShaderProgram15setUniformValueEiRK10QTransform
	_ZN20QOpenGLShaderProgram15setUniformValueEiRK14QGenericMatrixILi2ELi2EfE
	_ZN20QOpenGLShaderProgram15setUniformValueEiRK14QGenericMatrixILi2ELi3EfE
	_ZN20QOpenGLShaderProgram15setUniformValueEiRK14QGenericMatrixILi2ELi4EfE
	_ZN20QOpenGLShaderProgram15setUniformValueEiRK14QGenericMatrixILi3ELi2EfE
	_ZN20QOpenGLShaderProgram15setUniformValueEiRK14QGenericMatrixILi3ELi3EfE
	_ZN20QOpenGLShaderProgram15setUniformValueEiRK14QGenericMatrixILi3ELi4EfE
	_ZN20QOpenGLShaderProgram15setUniformValueEiRK14QGenericMatrixILi4ELi2EfE
	_ZN20QOpenGLShaderProgram15setUniformValueEiRK14QGenericMatrixILi4ELi3EfE
	_ZN20QOpenGLShaderProgram15setUniformValueEiRK5QSize
	_ZN20QOpenGLShaderProgram15setUniformValueEiRK6QColor
	_ZN20QOpenGLShaderProgram15setUniformValueEiRK6QPoint
	_ZN20QOpenGLShaderProgram15setUniformValueEiRK6QSizeF
	_ZN20QOpenGLShaderProgram15setUniformValueEiRK7QPointF
	_ZN20QOpenGLShaderProgram15setUniformValueEiRK9QVector2D
	_ZN20QOpenGLShaderProgram15setUniformValueEiRK9QVector3D
	_ZN20QOpenGLShaderProgram15setUniformValueEiRK9QVector4D
	_ZN20QOpenGLShaderProgram15setUniformValueEif
	_ZN20QOpenGLShaderProgram15setUniformValueEiff
	_ZN20QOpenGLShaderProgram15setUniformValueEifff
	_ZN20QOpenGLShaderProgram15setUniformValueEiffff
	_ZN20QOpenGLShaderProgram15setUniformValueEii
	_ZN20QOpenGLShaderProgram15setUniformValueEij
	_ZN20QOpenGLShaderProgram15shaderDestroyedEv
	_ZN20QOpenGLShaderProgram16removeAllShadersEv
	_ZN20QOpenGLShaderProgram16staticMetaObjectE
	_ZN20QOpenGLShaderProgram17setAttributeArrayEPKcPK9QVector2Di
	_ZN20QOpenGLShaderProgram17setAttributeArrayEPKcPK9QVector3Di
	_ZN20QOpenGLShaderProgram17setAttributeArrayEPKcPK9QVector4Di
	_ZN20QOpenGLShaderProgram17setAttributeArrayEPKcPKfii
	_ZN20QOpenGLShaderProgram17setAttributeArrayEPKcjPKvii
	_ZN20QOpenGLShaderProgram17setAttributeArrayEiPK9QVector2Di
	_ZN20QOpenGLShaderProgram17setAttributeArrayEiPK9QVector3Di
	_ZN20QOpenGLShaderProgram17setAttributeArrayEiPK9QVector4Di
	_ZN20QOpenGLShaderProgram17setAttributeArrayEiPKfii
	_ZN20QOpenGLShaderProgram17setAttributeArrayEijPKvii
	_ZN20QOpenGLShaderProgram17setAttributeValueEPKcPKfii
	_ZN20QOpenGLShaderProgram17setAttributeValueEPKcRK6QColor
	_ZN20QOpenGLShaderProgram17setAttributeValueEPKcRK9QVector2D
	_ZN20QOpenGLShaderProgram17setAttributeValueEPKcRK9QVector3D
	_ZN20QOpenGLShaderProgram17setAttributeValueEPKcRK9QVector4D
	_ZN20QOpenGLShaderProgram17setAttributeValueEPKcf
	_ZN20QOpenGLShaderProgram17setAttributeValueEPKcff
	_ZN20QOpenGLShaderProgram17setAttributeValueEPKcfff
	_ZN20QOpenGLShaderProgram17setAttributeValueEPKcffff
	_ZN20QOpenGLShaderProgram17setAttributeValueEiPKfii
	_ZN20QOpenGLShaderProgram17setAttributeValueEiRK6QColor
	_ZN20QOpenGLShaderProgram17setAttributeValueEiRK9QVector2D
	_ZN20QOpenGLShaderProgram17setAttributeValueEiRK9QVector3D
	_ZN20QOpenGLShaderProgram17setAttributeValueEiRK9QVector4D
	_ZN20QOpenGLShaderProgram17setAttributeValueEif
	_ZN20QOpenGLShaderProgram17setAttributeValueEiff
	_ZN20QOpenGLShaderProgram17setAttributeValueEifff
	_ZN20QOpenGLShaderProgram17setAttributeValueEiffff
	_ZN20QOpenGLShaderProgram18qt_static_metacallEP7QObjectN11QMetaObject4CallEiPPv
	_ZN20QOpenGLShaderProgram18setAttributeBufferEPKcjiii
	_ZN20QOpenGLShaderProgram18setAttributeBufferEijiii
	_ZN20QOpenGLShaderProgram19setPatchVertexCountEi
	_ZN20QOpenGLShaderProgram20enableAttributeArrayEPKc
	_ZN20QOpenGLShaderProgram20enableAttributeArrayEi
	_ZN20QOpenGLShaderProgram20setUniformValueArrayEPKcPK10QMatrix4x4i
	_ZN20QOpenGLShaderProgram20setUniformValueArrayEPKcPK14QGenericMatrixILi2ELi2EfEi
	_ZN20QOpenGLShaderProgram20setUniformValueArrayEPKcPK14QGenericMatrixILi2ELi3EfEi
	_ZN20QOpenGLShaderProgram20setUniformValueArrayEPKcPK14QGenericMatrixILi2ELi4EfEi
	_ZN20QOpenGLShaderProgram20setUniformValueArrayEPKcPK14QGenericMatrixILi3ELi2EfEi
	_ZN20QOpenGLShaderProgram20setUniformValueArrayEPKcPK14QGenericMatrixILi3ELi3EfEi
	_ZN20QOpenGLShaderProgram20setUniformValueArrayEPKcPK14QGenericMatrixILi3ELi4EfEi
	_ZN20QOpenGLShaderProgram20setUniformValueArrayEPKcPK14QGenericMatrixILi4ELi2EfEi
	_ZN20QOpenGLShaderProgram20setUniformValueArrayEPKcPK14QGenericMatrixILi4ELi3EfEi
	_ZN20QOpenGLShaderProgram20setUniformValueArrayEPKcPK9QVector2Di
	_ZN20QOpenGLShaderProgram20setUniformValueArrayEPKcPK9QVector3Di
	_ZN20QOpenGLShaderProgram20setUniformValueArrayEPKcPK9QVector4Di
	_ZN20QOpenGLShaderProgram20setUniformValueArrayEPKcPKfii
	_ZN20QOpenGLShaderProgram20setUniformValueArrayEPKcPKii
	_ZN20QOpenGLShaderProgram20setUniformValueArrayEPKcPKji
	_ZN20QOpenGLShaderProgram20setUniformValueArrayEiPK10QMatrix4x4i
	_ZN20QOpenGLShaderProgram20setUniformValueArrayEiPK14QGenericMatrixILi2ELi2EfEi
	_ZN20QOpenGLShaderProgram20setUniformValueArrayEiPK14QGenericMatrixILi2ELi3EfEi
	_ZN20QOpenGLShaderProgram20setUniformValueArrayEiPK14QGenericMatrixILi2ELi4EfEi
	_ZN20QOpenGLShaderProgram20setUniformValueArrayEiPK14QGenericMatrixILi3ELi2EfEi
	_ZN20QOpenGLShaderProgram20setUniformValueArrayEiPK14QGenericMatrixILi3ELi3EfEi
	_ZN20QOpenGLShaderProgram20setUniformValueArrayEiPK14QGenericMatrixILi3ELi4EfEi
	_ZN20QOpenGLShaderProgram20setUniformValueArrayEiPK14QGenericMatrixILi4ELi2EfEi
	_ZN20QOpenGLShaderProgram20setUniformValueArrayEiPK14QGenericMatrixILi4ELi3EfEi
	_ZN20QOpenGLShaderProgram20setUniformValueArrayEiPK9QVector2Di
	_ZN20QOpenGLShaderProgram20setUniformValueArrayEiPK9QVector3Di
	_ZN20QOpenGLShaderProgram20setUniformValueArrayEiPK9QVector4Di
	_ZN20QOpenGLShaderProgram20setUniformValueArrayEiPKfii
	_ZN20QOpenGLShaderProgram20setUniformValueArrayEiPKii
	_ZN20QOpenGLShaderProgram20setUniformValueArrayEiPKji
	_ZN20QOpenGLShaderProgram21bindAttributeLocationEPKci
	_ZN20QOpenGLShaderProgram21bindAttributeLocationERK10QByteArrayi
	_ZN20QOpenGLShaderProgram21bindAttributeLocationERK7QStringi
	_ZN20QOpenGLShaderProgram21disableAttributeArrayEPKc
	_ZN20QOpenGLShaderProgram21disableAttributeArrayEi
	_ZN20QOpenGLShaderProgram23addShaderFromSourceCodeE6QFlagsIN13QOpenGLShader13ShaderTypeBitEEPKc
	_ZN20QOpenGLShaderProgram23addShaderFromSourceCodeE6QFlagsIN13QOpenGLShader13ShaderTypeBitEERK10QByteArray
	_ZN20QOpenGLShaderProgram23addShaderFromSourceCodeE6QFlagsIN13QOpenGLShader13ShaderTypeBitEERK7QString
	_ZN20QOpenGLShaderProgram23addShaderFromSourceFileE6QFlagsIN13QOpenGLShader13ShaderTypeBitEERK7QString
	_ZN20QOpenGLShaderProgram23hasOpenGLShaderProgramsEP14QOpenGLContext
	_ZN20QOpenGLShaderProgram33setDefaultInnerTessellationLevelsERK7QVectorIfE
	_ZN20QOpenGLShaderProgram33setDefaultOuterTessellationLevelsERK7QVectorIfE
	_ZN20QOpenGLShaderProgram4bindEv
	_ZN20QOpenGLShaderProgram4initEv
	_ZN20QOpenGLShaderProgram4linkEv
	_ZN20QOpenGLShaderProgram6createEv
	_ZN20QOpenGLShaderProgram7releaseEv
	_ZN20QOpenGLShaderProgram9addShaderEP13QOpenGLShader
	_ZN20QOpenGLShaderProgramC1EP7QObject
	_ZN20QOpenGLShaderProgramC2EP7QObject
	_ZN20QOpenGLShaderProgramD0Ev
	_ZN20QOpenGLShaderProgramD1Ev
	_ZN20QOpenGLShaderProgramD2Ev
	_ZN20QPictureFormatPlugin11loadPictureERK7QStringS2_P8QPicture
	_ZN20QPictureFormatPlugin11qt_metacallEN11QMetaObject4CallEiPPv
	_ZN20QPictureFormatPlugin11qt_metacastEPKc
	_ZN20QPictureFormatPlugin11savePictureERK7QStringS2_RK8QPicture
	_ZN20QPictureFormatPlugin16staticMetaObjectE
	_ZN20QPictureFormatPlugin18qt_static_metacallEP7QObjectN11QMetaObject4CallEiPPv
	_ZN20QPictureFormatPluginC1EP7QObject
	_ZN20QPictureFormatPluginC2EP7QObject
	_ZN20QPictureFormatPluginD0Ev
	_ZN20QPictureFormatPluginD1Ev
	_ZN20QPictureFormatPluginD2Ev
	_ZN20QPlatformCursorImage18createSystemCursorEi
	_ZN20QPlatformCursorImage3setEN2Qt11CursorShapeE
	_ZN20QPlatformCursorImage3setEPKhS1_iiii
	_ZN20QPlatformCursorImage3setERK6QImageii
	_ZN20QPlatformIntegration10initializeEv
	_ZN20QPlatformIntegration11screenAddedEP15QPlatformScreen
	_ZN20QPlatformIntegration16openGLModuleTypeEv
	_ZN20QPlatformIntegration4syncEv
	_ZN20QPlatformIntegrationD0Ev
	_ZN20QPlatformIntegrationD1Ev
	_ZN20QPlatformTextureList11qt_metacallEN11QMetaObject4CallEiPPv
	_ZN20QPlatformTextureList11qt_metacastEPKc
	_ZN20QPlatformTextureList13appendTextureEjRK5QRect
	_ZN20QPlatformTextureList16staticMetaObjectE
	_ZN20QPlatformTextureList18qt_static_metacallEP7QObjectN11QMetaObject4CallEiPPv
	_ZN20QPlatformTextureList4lockEb
	_ZN20QPlatformTextureList5clearEv
	_ZN20QPlatformTextureList6lockedEb
	_ZN20QPlatformTextureListC1EP7QObject
	_ZN20QPlatformTextureListC2EP7QObject
	_ZN20QPlatformTextureListD0Ev
	_ZN20QPlatformTextureListD1Ev
	_ZN20QPlatformTextureListD2Ev
	_ZN20QPlatformThemePlugin11qt_metacallEN11QMetaObject4CallEiPPv
	_ZN20QPlatformThemePlugin11qt_metacastEPKc
	_ZN20QPlatformThemePlugin16staticMetaObjectE
	_ZN20QPlatformThemePlugin18qt_static_metacallEP7QObjectN11QMetaObject4CallEiPPv
	_ZN20QPlatformThemePluginC1EP7QObject
	_ZN20QPlatformThemePluginC2EP7QObject
	_ZN20QPlatformThemePluginD0Ev
	_ZN20QPlatformThemePluginD1Ev
	_ZN20QPlatformThemePluginD2Ev
	_ZN20QTextFrameLayoutDataD0Ev
	_ZN20QTextFrameLayoutDataD1Ev
	_ZN20QTextFrameLayoutDataD2Ev
	_ZN20QTextObjectInterfaceD0Ev
	_ZN20QTextObjectInterfaceD1Ev
	_ZN20QTextTableCellFormatC1ERK11QTextFormat
	_ZN20QTextTableCellFormatC1Ev
	_ZN20QTextTableCellFormatC2ERK11QTextFormat
	_ZN20QTextTableCellFormatC2Ev
	_ZN21QGenericPluginFactory4keysEv
	_ZN21QGenericPluginFactory6createERK7QStringS2_
	_ZN21QMessageDialogOptions14setWindowTitleERK7QString
	_ZN21QMessageDialogOptions15setDetailedTextERK7QString
	_ZN21QMessageDialogOptions18setInformativeTextERK7QString
	_ZN21QMessageDialogOptions18setStandardButtonsE6QFlagsIN21QPlatformDialogHelper14StandardButtonEE
	_ZN21QMessageDialogOptions7setIconENS_4IconE
	_ZN21QMessageDialogOptions7setTextERK7QString
	_ZN21QMessageDialogOptionsC1ERKS_
	_ZN21QMessageDialogOptionsC1Ev
	_ZN21QMessageDialogOptionsC2ERKS_
	_ZN21QMessageDialogOptionsC2Ev
	_ZN21QMessageDialogOptionsD1Ev
	_ZN21QMessageDialogOptionsD2Ev
	_ZN21QMessageDialogOptionsaSERKS_
	_ZN21QOpenGL2PaintEngineEx10drawPixmapERK6QRectFRK7QPixmapS2_
	_ZN21QOpenGL2PaintEngineEx10penChangedEv
	_ZN21QOpenGL2PaintEngineEx11drawTextureERK6QRectFjRK5QSizeS2_
	_ZN21QOpenGL2PaintEngineEx12brushChangedEv
	_ZN21QOpenGL2PaintEngineEx12drawTextItemERK7QPointFRK9QTextItem
	_ZN21QOpenGL2PaintEngineEx12ensureActiveEv
	_ZN21QOpenGL2PaintEngineEx14opacityChangedEv
	_ZN21QOpenGL2PaintEngineEx15invalidateStateEv
	_ZN21QOpenGL2PaintEngineEx16transformChangedEv
	_ZN21QOpenGL2PaintEngineEx17endNativePaintingEv
	_ZN21QOpenGL2PaintEngineEx18brushOriginChangedEv
	_ZN21QOpenGL2PaintEngineEx18clipEnabledChangedEv
	_ZN21QOpenGL2PaintEngineEx18drawStaticTextItemEP15QStaticTextItem
	_ZN21QOpenGL2PaintEngineEx18renderHintsChangedEv
	_ZN21QOpenGL2PaintEngineEx19beginNativePaintingEv
	_ZN21QOpenGL2PaintEngineEx19drawPixmapFragmentsEPKN8QPainter14PixmapFragmentEiRK7QPixmap6QFlagsINS0_18PixmapFragmentHintEE
	_ZN21QOpenGL2PaintEngineEx22compositionModeChangedEv
	_ZN21QOpenGL2PaintEngineEx3endEv
	_ZN21QOpenGL2PaintEngineEx4clipERK11QVectorPathN2Qt13ClipOperationE
	_ZN21QOpenGL2PaintEngineEx4fillERK11QVectorPathRK6QBrush
	_ZN21QOpenGL2PaintEngineEx5beginEP12QPaintDevice
	_ZN21QOpenGL2PaintEngineEx6strokeERK11QVectorPathRK4QPen
	_ZN21QOpenGL2PaintEngineEx8setStateEP13QPainterState
	_ZN21QOpenGL2PaintEngineEx9drawImageERK6QRectFRK6QImageS2_6QFlagsIN2Qt19ImageConversionFlagEE
	_ZN21QOpenGL2PaintEngineExC1Ev
	_ZN21QOpenGL2PaintEngineExC2Ev
	_ZN21QOpenGL2PaintEngineExD0Ev
	_ZN21QOpenGL2PaintEngineExD1Ev
	_ZN21QOpenGL2PaintEngineExD2Ev
	_ZN21QOpenGLContextPrivate14maxTextureSizeEv
	_ZN21QOpenGLContextPrivate17setCurrentContextEP14QOpenGLContext
	_ZN21QOpenGLContextPrivate18globalShareContextEv
	_ZN21QOpenGLContextPrivate21setGlobalShareContextEP14QOpenGLContext
	_ZN21QOpenGLContextPrivateD0Ev
	_ZN21QOpenGLContextPrivateD1Ev
	_ZN21QOpenGLSharedResource4freeEv
	_ZN21QOpenGLSharedResourceC1EP19QOpenGLContextGroup
	_ZN21QOpenGLSharedResourceC2EP19QOpenGLContextGroup
	_ZN21QOpenGLSharedResourceD0Ev
	_ZN21QOpenGLSharedResourceD1Ev
	_ZN21QOpenGLSharedResourceD2Ev
	_ZN21QOpenGLTextureBlitter12setSwizzleRBEb
	_ZN21QOpenGLTextureBlitter15sourceTransformERK6QRectFRK5QSizeNS_6OriginE
	_ZN21QOpenGLTextureBlitter15targetTransformERK6QRectFRK5QRect
	_ZN21QOpenGLTextureBlitter4bindEv
	_ZN21QOpenGLTextureBlitter4blitEjRK10QMatrix4x4NS_6OriginE
	_ZN21QOpenGLTextureBlitter4blitEjRK10QMatrix4x4RK14QGenericMatrixILi3ELi3EfE
	_ZN21QOpenGLTextureBlitter6createEv
	_ZN21QOpenGLTextureBlitter7destroyEv
	_ZN21QOpenGLTextureBlitter7releaseEv
	_ZN21QOpenGLTextureBlitterC1Ev
	_ZN21QOpenGLTextureBlitterC2Ev
	_ZN21QOpenGLTextureBlitterD1Ev
	_ZN21QOpenGLTextureBlitterD2Ev
	_ZN21QOpenGLVersionProfile10setProfileEN14QSurfaceFormat20OpenGLContextProfileE
	_ZN21QOpenGLVersionProfile10setVersionEii
	_ZN21QOpenGLVersionProfileC1ERK14QSurfaceFormat
	_ZN21QOpenGLVersionProfileC1ERKS_
	_ZN21QOpenGLVersionProfileC1Ev
	_ZN21QOpenGLVersionProfileC2ERK14QSurfaceFormat
	_ZN21QOpenGLVersionProfileC2ERKS_
	_ZN21QOpenGLVersionProfileC2Ev
	_ZN21QOpenGLVersionProfileD1Ev
	_ZN21QOpenGLVersionProfileD2Ev
	_ZN21QOpenGLVersionProfileaSERKS_
	_ZN21QPaintEngineExPrivate20replayClipOperationsEv
	_ZN21QPaintEngineExPrivateC1Ev
	_ZN21QPaintEngineExPrivateC2Ev
	_ZN21QPaintEngineExPrivateD0Ev
	_ZN21QPaintEngineExPrivateD1Ev
	_ZN21QPaintEngineExPrivateD2Ev
	_ZN21QPlatformBackingStore10beginPaintERK7QRegion
	_ZN21QPlatformBackingStore15composeAndFlushEP7QWindowRK7QRegionRK6QPointP20QPlatformTextureListP14QOpenGLContext
	_ZN21QPlatformBackingStore6scrollERK7QRegionii
	_ZN21QPlatformBackingStore8endPaintEv
	_ZN21QPlatformBackingStoreC1EP7QWindow
	_ZN21QPlatformBackingStoreC2EP7QWindow
	_ZN21QPlatformBackingStoreD0Ev
	_ZN21QPlatformBackingStoreD1Ev
	_ZN21QPlatformBackingStoreD2Ev
	_ZN21QPlatformDialogHelper10buttonRoleENS_14StandardButtonE
	_ZN21QPlatformDialogHelper11qt_metacallEN11QMetaObject4CallEiPPv
	_ZN21QPlatformDialogHelper11qt_metacastEPKc
	_ZN21QPlatformDialogHelper12buttonLayoutEN2Qt11OrientationENS_12ButtonLayoutE
	_ZN21QPlatformDialogHelper16defaultStyleHintENS_9StyleHintE
	_ZN21QPlatformDialogHelper16staticMetaObjectE
	_ZN21QPlatformDialogHelper18qt_static_metacallEP7QObjectN11QMetaObject4CallEiPPv
	_ZN21QPlatformDialogHelper6acceptEv
	_ZN21QPlatformDialogHelper6rejectEv
	_ZN21QPlatformDialogHelperC1Ev
	_ZN21QPlatformDialogHelperC2Ev
	_ZN21QPlatformDialogHelperD0Ev
	_ZN21QPlatformDialogHelperD1Ev
	_ZN21QPlatformDialogHelperD2Ev
	_ZN21QPlatformFontDatabase10fontEngineERK10QByteArraydN5QFont17HintingPreferenceE
	_ZN21QPlatformFontDatabase10fontEngineERK8QFontDefPv
	_ZN21QPlatformFontDatabase10invalidateEv
	_ZN21QPlatformFontDatabase12registerFontERK7QStringS2_S2_N5QFont6WeightENS3_5StyleENS3_7StretchEbbibRK24QSupportedWritingSystemsPv
	_ZN21QPlatformFontDatabase13releaseHandleEPv
	_ZN21QPlatformFontDatabase14populateFamilyERK7QString
	_ZN21QPlatformFontDatabase15fontEngineMultiEP11QFontEngineN5QChar6ScriptE
	_ZN21QPlatformFontDatabase16registerQPF2FontERK10QByteArrayPv
	_ZN21QPlatformFontDatabase18addApplicationFontERK10QByteArrayRK7QString
	_ZN21QPlatformFontDatabase18registerFontFamilyERK7QString
	_ZN21QPlatformFontDatabase20populateFontDatabaseEv
	_ZN21QPlatformFontDatabase25registerAliasToFontFamilyERK7QStringS2_
	_ZN21QPlatformFontDatabase30writingSystemsFromTrueTypeBitsEPjS0_
	_ZN21QPlatformFontDatabaseD0Ev
	_ZN21QPlatformFontDatabaseD1Ev
	_ZN21QPlatformFontDatabaseD2Ev
	_ZN21QPlatformInputContext11filterEventEPK6QEvent
	_ZN21QPlatformInputContext11qt_metacallEN11QMetaObject4CallEiPPv
	_ZN21QPlatformInputContext11qt_metacastEPKc
	_ZN21QPlatformInputContext12invokeActionEN12QInputMethod6ActionEi
	_ZN21QPlatformInputContext14hideInputPanelEv
	_ZN21QPlatformInputContext14setFocusObjectEP7QObject
	_ZN21QPlatformInputContext14showInputPanelEv
	_ZN21QPlatformInputContext16staticMetaObjectE
	_ZN21QPlatformInputContext17emitLocaleChangedEv
	_ZN21QPlatformInputContext18qt_static_metacallEP7QObjectN11QMetaObject4CallEiPPv
	_ZN21QPlatformInputContext20emitAnimatingChangedEv
	_ZN21QPlatformInputContext23emitKeyboardRectChangedEv
	_ZN21QPlatformInputContext25emitInputDirectionChangedEN2Qt15LayoutDirectionE
	_ZN21QPlatformInputContext28emitInputPanelVisibleChangedEv
	_ZN21QPlatformInputContext5resetEv
	_ZN21QPlatformInputContext6commitEv
	_ZN21QPlatformInputContext6updateE6QFlagsIN2Qt16InputMethodQueryEE
	_ZN21QPlatformInputContextC1Ev
	_ZN21QPlatformInputContextC2Ev
	_ZN21QPlatformInputContextD0Ev
	_ZN21QPlatformInputContextD1Ev
	_ZN21QPlatformInputContextD2Ev
	_ZN21QPlatformScreenBuffer18aboutToBeDisplayedEv
	_ZN21QPlatformScreenBuffer9displayedEv
	_ZN21QPlatformScreenBufferC1Ev
	_ZN21QPlatformScreenBufferC2Ev
	_ZN21QPlatformScreenBufferD0Ev
	_ZN21QPlatformScreenBufferD1Ev
	_ZN21QPlatformScreenBufferD2Ev
	_ZN21QPlatformThemePrivate11keyBindingsE
	_ZN21QPlatformThemePrivate19currentKeyPlatformsEv
	_ZN21QPlatformThemePrivate19numberOfKeyBindingsE
	_ZN21QPlatformThemePrivate23initializeSystemPaletteEv
	_ZN21QPlatformThemePrivateC1Ev
	_ZN21QPlatformThemePrivateC2Ev
	_ZN21QPlatformThemePrivateD0Ev
	_ZN21QPlatformThemePrivateD1Ev
	_ZN21QPlatformThemePrivateD2Ev
	_ZN21QRasterPlatformPixmap15fromImageReaderEP12QImageReader6QFlagsIN2Qt19ImageConversionFlagEE
	_ZN21QRasterPlatformPixmap16fromImageInPlaceER6QImage6QFlagsIN2Qt19ImageConversionFlagEE
	_ZN21QRasterPlatformPixmap19setDevicePixelRatioEd
	_ZN21QRasterPlatformPixmap20createPixmapForImageER6QImage6QFlagsIN2Qt19ImageConversionFlagEEb
	_ZN21QRasterPlatformPixmap4copyEPK15QPlatformPixmapRK5QRect
	_ZN21QRasterPlatformPixmap4fillERK6QColor
	_ZN21QRasterPlatformPixmap6bufferEv
	_ZN21QRasterPlatformPixmap6resizeEii
	_ZN21QRasterPlatformPixmap6scrollEiiRK5QRect
	_ZN21QRasterPlatformPixmap8fromDataEPKhjPKc6QFlagsIN2Qt19ImageConversionFlagEE
	_ZN21QRasterPlatformPixmap9fromImageERK6QImage6QFlagsIN2Qt19ImageConversionFlagEE
	_ZN21QRasterPlatformPixmapC1EN15QPlatformPixmap9PixelTypeE
	_ZN21QRasterPlatformPixmapC2EN15QPlatformPixmap9PixelTypeE
	_ZN21QRasterPlatformPixmapD0Ev
	_ZN21QRasterPlatformPixmapD1Ev
	_ZN21QRasterPlatformPixmapD2Ev
	_ZN21QTextDocumentFragment13fromPlainTextERK7QString
	_ZN21QTextDocumentFragment8fromHtmlERK7QString
	_ZN21QTextDocumentFragment8fromHtmlERK7QStringPK13QTextDocument
	_ZN21QTextDocumentFragmentC1EPK13QTextDocument
	_ZN21QTextDocumentFragmentC1ERK11QTextCursor
	_ZN21QTextDocumentFragmentC1ERKS_
	_ZN21QTextDocumentFragmentC1Ev
	_ZN21QTextDocumentFragmentC2EPK13QTextDocument
	_ZN21QTextDocumentFragmentC2ERK11QTextCursor
	_ZN21QTextDocumentFragmentC2ERKS_
	_ZN21QTextDocumentFragmentC2Ev
	_ZN21QTextDocumentFragmentD1Ev
	_ZN21QTextDocumentFragmentD2Ev
	_ZN21QTextDocumentFragmentaSERKS_
	_ZN21QTextFormatCollection14indexForFormatERK11QTextFormat
	_ZN21QTextFormatCollection14setDefaultFontERK5QFont
	_ZN21QTextFormatCollection17createObjectIndexERK11QTextFormat
	_ZN21QTextFormatCollection20setObjectFormatIndexEii
	_ZN21QTextFormatCollectionC1ERKS_
	_ZN21QTextFormatCollectionC2ERKS_
	_ZN21QTextFormatCollectionD1Ev
	_ZN21QTextFormatCollectionD2Ev
	_ZN21QTextFormatCollectionaSERKS_
	_ZN21QTriangulatingStroker18endCapOrJoinClosedEPKdS1_bb
	_ZN21QTriangulatingStroker4joinEPKd
	_ZN21QTriangulatingStroker6endCapEPKd
	_ZN21QTriangulatingStroker6moveToEPKd
	_ZN21QTriangulatingStroker7cubicToEPKd
	_ZN21QTriangulatingStroker7processERK11QVectorPathRK4QPenRK6QRectF6QFlagsIN8QPainter10RenderHintEE
	_ZN21QTriangulatingStroker9arcPointsEffffffR15QVarLengthArrayIfLi256EE
	_ZN22QAccessibleApplicationC1Ev
	_ZN22QAccessibleApplicationC2Ev
	_ZN22QDashedStrokeProcessor7processERK11QVectorPathRK4QPenRK6QRectF6QFlagsIN8QPainter10RenderHintEE
	_ZN22QDashedStrokeProcessorC1Ev
	_ZN22QDashedStrokeProcessorC2Ev
	_ZN22QGuiApplicationPrivate10commitDataEv
	_ZN22QGuiApplicationPrivate10shouldQuitEv
	_ZN22QGuiApplicationPrivate11displayNameE
	_ZN22QGuiApplicationPrivate11gammaTablesEv
	_ZN22QGuiApplicationPrivate11mousePressXE
	_ZN22QGuiApplicationPrivate11mousePressYE
	_ZN22QGuiApplicationPrivate11processDragEP7QWindowPK9QMimeDataRK6QPoint6QFlagsIN2Qt10DropActionEE
	_ZN22QGuiApplicationPrivate11processDropEP7QWindowPK9QMimeDataRK6QPoint6QFlagsIN2Qt10DropActionEE
	_ZN22QGuiApplicationPrivate11screen_listE
	_ZN22QGuiApplicationPrivate11tabletStateE
	_ZN22QGuiApplicationPrivate11window_listE
	_ZN22QGuiApplicationPrivate12focus_windowE
	_ZN22QGuiApplicationPrivate12qt_clipboardE
	_ZN22QGuiApplicationPrivate13mouse_buttonsE
	_ZN22QGuiApplicationPrivate13platform_nameE
	_ZN22QGuiApplicationPrivate14mouseEventCapsEP11QMouseEvent
	_ZN22QGuiApplicationPrivate14mousePressTimeE
	_ZN22QGuiApplicationPrivate14platform_themeE
	_ZN22QGuiApplicationPrivate15getPixmapCursorEN2Qt11CursorShapeE
	_ZN22QGuiApplicationPrivate15hideModalWindowEP7QWindow
	_ZN22QGuiApplicationPrivate15mouseEventFlagsEPK11QMouseEvent
	_ZN22QGuiApplicationPrivate15processKeyEventEPN29QWindowSystemInterfacePrivate8KeyEventE
	_ZN22QGuiApplicationPrivate15showModalWindowEP7QWindow
	_ZN22QGuiApplicationPrivate16applicationStateE
	_ZN22QGuiApplicationPrivate16modifier_buttonsE
	_ZN22QGuiApplicationPrivate16mouseEventSourceEPK11QMouseEvent
	_ZN22QGuiApplicationPrivate16mousePressButtonE
	_ZN22QGuiApplicationPrivate17m_fakeTouchDeviceE
	_ZN22QGuiApplicationPrivate17notifyDragStartedEPK5QDrag
	_ZN22QGuiApplicationPrivate17processCloseEventEPN29QWindowSystemInterfacePrivate10CloseEventE
	_ZN22QGuiApplicationPrivate17processEnterEventEPN29QWindowSystemInterfacePrivate10EnterEventE
	_ZN22QGuiApplicationPrivate17processLeaveEventEPN29QWindowSystemInterfacePrivate10LeaveEventE
	_ZN22QGuiApplicationPrivate17processMouseEventEPN29QWindowSystemInterfacePrivate10MouseEventE
	_ZN22QGuiApplicationPrivate17processTouchEventEPN29QWindowSystemInterfacePrivate10TouchEventE
	_ZN22QGuiApplicationPrivate17processWheelEventEPN29QWindowSystemInterfacePrivate10WheelEventE
	_ZN22QGuiApplicationPrivate17tabletPressTargetE
	_ZN22QGuiApplicationPrivate18currentMouseWindowE
	_ZN22QGuiApplicationPrivate18lastCursorPositionE
	_ZN22QGuiApplicationPrivate18mouseEventVelocityEP11QMouseEvent
	_ZN22QGuiApplicationPrivate18notifyThemeChangedEv
	_ZN22QGuiApplicationPrivate18processExposeEventEPN29QWindowSystemInterfacePrivate11ExposeEventE
	_ZN22QGuiApplicationPrivate18processNativeEventEP7QWindowRK10QByteArrayPvPl
	_ZN22QGuiApplicationPrivate18processTabletEventEPN29QWindowSystemInterfacePrivate11TabletEventE
	_ZN22QGuiApplicationPrivate18setMouseEventFlagsEP11QMouseEvent6QFlagsIN2Qt14MouseEventFlagEE
	_ZN22QGuiApplicationPrivate18shouldQuitInternalERK5QListIP7QWindowE
	_ZN22QGuiApplicationPrivate18tryCloseAllWindowsEv
	_ZN22QGuiApplicationPrivate19generic_plugin_listE
	_ZN22QGuiApplicationPrivate19processGestureEventEPN29QWindowSystemInterfacePrivate12GestureEventE
	_ZN22QGuiApplicationPrivate19processThemeChangedEPN29QWindowSystemInterfacePrivate16ThemeChangeEventE
	_ZN22QGuiApplicationPrivate19setApplicationStateEN2Qt16ApplicationStateE
	_ZN22QGuiApplicationPrivate19setMouseEventSourceEP11QMouseEventN2Qt16MouseEventSourceE
	_ZN22QGuiApplicationPrivate19updateBlockedStatusEP7QWindow
	_ZN22QGuiApplicationPrivate20_q_updateFocusObjectEP7QObject
	_ZN22QGuiApplicationPrivate20emitLastWindowClosedEv
	_ZN22QGuiApplicationPrivate20eventDispatcherReadyEv
	_ZN22QGuiApplicationPrivate20platform_integrationE
	_ZN22QGuiApplicationPrivate20processFileOpenEventEPN29QWindowSystemInterfacePrivate13FileOpenEventE
	_ZN22QGuiApplicationPrivate20reportGeometryChangeEPN29QWindowSystemInterfacePrivate19ScreenGeometryEventE
	_ZN22QGuiApplicationPrivate21createEventDispatcherEv
	_ZN22QGuiApplicationPrivate21obey_desktop_settingsE
	_ZN22QGuiApplicationPrivate21processActivatedEventEPN29QWindowSystemInterfacePrivate20ActivatedWindowEventE
	_ZN22QGuiApplicationPrivate23notifyWindowIconChangedEv
	_ZN22QGuiApplicationPrivate23processContextMenuEventEPN29QWindowSystemInterfacePrivate16ContextMenuEventE
	_ZN22QGuiApplicationPrivate23reportRefreshRateChangeEPN29QWindowSystemInterfacePrivate22ScreenRefreshRateEventE
	_ZN22QGuiApplicationPrivate24m_fakeMouseSourcePointIdE
	_ZN22QGuiApplicationPrivate24notifyActiveWindowChangeEP7QWindow
	_ZN22QGuiApplicationPrivate24processWindowSystemEventEPN29QWindowSystemInterfacePrivate17WindowSystemEventE
	_ZN22QGuiApplicationPrivate24tryCloseRemainingWindowsE5QListIP7QWindowE
	_ZN22QGuiApplicationPrivate25createPlatformIntegrationEv
	_ZN22QGuiApplicationPrivate25processPlatformPanelEventEPN29QWindowSystemInterfacePrivate18PlatformPanelEventE
	_ZN22QGuiApplicationPrivate26processGeometryChangeEventEPN29QWindowSystemInterfacePrivate19GeometryChangeEventE
	_ZN22QGuiApplicationPrivate27mouse_double_click_distanceE
	_ZN22QGuiApplicationPrivate27notifyLayoutDirectionChangeEv
	_ZN22QGuiApplicationPrivate28setMouseEventCapsAndVelocityEP11QMouseEventiRK9QVector2D
	_ZN22QGuiApplicationPrivate29reportAvailableGeometryChangeEPN29QWindowSystemInterfacePrivate28ScreenAvailableGeometryEventE
	_ZN22QGuiApplicationPrivate29reportScreenOrientationChangeEP7QScreen
	_ZN22QGuiApplicationPrivate29reportScreenOrientationChangeEPN29QWindowSystemInterfacePrivate22ScreenOrientationEventE
	_ZN22QGuiApplicationPrivate30processWindowStateChangedEventEPN29QWindowSystemInterfacePrivate23WindowStateChangedEventE
	_ZN22QGuiApplicationPrivate30reportLogicalDotsPerInchChangeEPN29QWindowSystemInterfacePrivate29ScreenLogicalDotsPerInchEventE
	_ZN22QGuiApplicationPrivate31processWindowScreenChangedEventEPN29QWindowSystemInterfacePrivate24WindowScreenChangedEventE
	_ZN22QGuiApplicationPrivate31updateFilteredScreenOrientationEP7QScreen
	_ZN22QGuiApplicationPrivate32applyWindowGeometrySpecificationERK5QRectPK7QWindow
	_ZN22QGuiApplicationPrivate32processTabletEnterProximityEventEPN29QWindowSystemInterfacePrivate25TabletEnterProximityEventE
	_ZN22QGuiApplicationPrivate32processTabletLeaveProximityEventEPN29QWindowSystemInterfacePrivate25TabletLeaveProximityEventE
	_ZN22QGuiApplicationPrivate33sendQWindowEventToQPlatformWindowEP7QWindowP6QEvent
	_ZN22QGuiApplicationPrivate37synthesizeMouseFromTouchEventsEnabledEv
	_ZN22QGuiApplicationPrivate4initEv
	_ZN22QGuiApplicationPrivate4selfE
	_ZN22QGuiApplicationPrivate6noGrabE
	_ZN22QGuiApplicationPrivate7app_palE
	_ZN22QGuiApplicationPrivate7buttonsE
	_ZN22QGuiApplicationPrivate8app_fontE
	_ZN22QGuiApplicationPrivate8app_iconE
	_ZN22QGuiApplicationPrivate9saveStateEv
	_ZN22QGuiApplicationPrivateC1ERiPPci
	_ZN22QGuiApplicationPrivateC2ERiPPci
	_ZN22QGuiApplicationPrivateD0Ev
	_ZN22QGuiApplicationPrivateD1Ev
	_ZN22QGuiApplicationPrivateD2Ev
	_ZN22QInputMethodQueryEvent8setValueEN2Qt16InputMethodQueryERK8QVariant
	_ZN22QInputMethodQueryEventC1E6QFlagsIN2Qt16InputMethodQueryEE
	_ZN22QInputMethodQueryEventC2E6QFlagsIN2Qt16InputMethodQueryEE
	_ZN22QInputMethodQueryEventD0Ev
	_ZN22QInputMethodQueryEventD1Ev
	_ZN22QInputMethodQueryEventD2Ev
	_ZN22QPaintEngineExReplayer7processERK19QPaintBufferCommand
	_ZN22QPlatformAccessibility10initializeEv
	_ZN22QPlatformAccessibility13setRootObjectEP7QObject
	_ZN22QPlatformAccessibility25notifyAccessibilityUpdateEP16QAccessibleEvent
	_ZN22QPlatformAccessibility7cleanupEv
	_ZN22QPlatformAccessibilityC1Ev
	_ZN22QPlatformAccessibilityC2Ev
	_ZN22QPlatformAccessibilityD0Ev
	_ZN22QPlatformAccessibilityD1Ev
	_ZN22QPlatformAccessibilityD2Ev
	_ZN22QPlatformCursorPrivate12getInstancesEv
	_ZN22QPlatformOpenGLContext10setContextEP14QOpenGLContext
	_ZN22QPlatformOpenGLContext18parseOpenGLVersionERK10QByteArrayRiS3_
	_ZN22QPlatformOpenGLContextC1Ev
	_ZN22QPlatformOpenGLContextC2Ev
	_ZN22QPlatformOpenGLContextD0Ev
	_ZN22QPlatformOpenGLContextD1Ev
	_ZN22QPlatformOpenGLContextD2Ev
	_ZN22QWhatsThisClickedEventC1ERK7QString
	_ZN22QWhatsThisClickedEventC2ERK7QString
	_ZN22QWhatsThisClickedEventD0Ev
	_ZN22QWhatsThisClickedEventD1Ev
	_ZN22QWhatsThisClickedEventD2Ev
	_ZN22QWindowSystemInterface10handleDragEP7QWindowPK9QMimeDataRK6QPoint6QFlagsIN2Qt10DropActionEE
	_ZN22QWindowSystemInterface10handleDropEP7QWindowPK9QMimeDataRK6QPoint6QFlagsIN2Qt10DropActionEE
	_ZN22QWindowSystemInterface14handleKeyEventEP7QWindowN6QEvent4TypeEi6QFlagsIN2Qt16KeyboardModifierEERK7QStringbt
	_ZN22QWindowSystemInterface14handleKeyEventEP7QWindowmN6QEvent4TypeEi6QFlagsIN2Qt16KeyboardModifierEERK7QStringbt
	_ZN22QWindowSystemInterface16handleCloseEventEP7QWindowPb
	_ZN22QWindowSystemInterface16handleEnterEventEP7QWindowRK7QPointFS4_
	_ZN22QWindowSystemInterface16handleLeaveEventEP7QWindow
	_ZN22QWindowSystemInterface16handleMouseEventEP7QWindowRK7QPointFS4_6QFlagsIN2Qt11MouseButtonEES5_INS6_16KeyboardModifierEENS6_16MouseEventSourceE
	_ZN22QWindowSystemInterface16handleMouseEventEP7QWindowmRK7QPointFS4_6QFlagsIN2Qt11MouseButtonEES5_INS6_16KeyboardModifierEENS6_16MouseEventSourceE
	_ZN22QWindowSystemInterface16handleTouchEventEP7QWindowP12QTouchDeviceRK5QListINS_10TouchPointEE6QFlagsIN2Qt16KeyboardModifierEE
	_ZN22QWindowSystemInterface16handleTouchEventEP7QWindowmP12QTouchDeviceRK5QListINS_10TouchPointEE6QFlagsIN2Qt16KeyboardModifierEE
	_ZN22QWindowSystemInterface16handleWheelEventEP7QWindowRK7QPointFS4_6QPointS5_6QFlagsIN2Qt16KeyboardModifierEENS7_11ScrollPhaseE
	_ZN22QWindowSystemInterface16handleWheelEventEP7QWindowRK7QPointFS4_iN2Qt11OrientationE6QFlagsINS5_16KeyboardModifierEE
	_ZN22QWindowSystemInterface16handleWheelEventEP7QWindowmRK7QPointFS4_6QPointS5_6QFlagsIN2Qt16KeyboardModifierEENS7_11ScrollPhaseE
	_ZN22QWindowSystemInterface16handleWheelEventEP7QWindowmRK7QPointFS4_iN2Qt11OrientationE6QFlagsINS5_16KeyboardModifierEE
	_ZN22QWindowSystemInterface17handleExposeEventEP7QWindowRK7QRegion
	_ZN22QWindowSystemInterface17handleNativeEventEP7QWindowRK10QByteArrayPvPl
	_ZN22QWindowSystemInterface17handleTabletEventEP7QWindowbRK7QPointFS4_iidiiddix6QFlagsIN2Qt16KeyboardModifierEE
	_ZN22QWindowSystemInterface17handleTabletEventEP7QWindowmbRK7QPointFS4_iidiiddix6QFlagsIN2Qt16KeyboardModifierEE
	_ZN22QWindowSystemInterface17handleThemeChangeEP7QWindow
	_ZN22QWindowSystemInterface18handleGestureEventEP7QWindowmN2Qt17NativeGestureTypeER7QPointFS5_
	_ZN22QWindowSystemInterface19handleFileOpenEventERK4QUrl
	_ZN22QWindowSystemInterface19handleFileOpenEventERK7QString
	_ZN22QWindowSystemInterface19registerTouchDeviceEP12QTouchDevice
	_ZN22QWindowSystemInterface20handleGeometryChangeEP7QWindowRK5QRectS4_
	_ZN22QWindowSystemInterface21handleEnterLeaveEventEP7QWindowS1_RK7QPointFS4_
	_ZN22QWindowSystemInterface21handleWindowActivatedEP7QWindowN2Qt11FocusReasonE
	_ZN22QWindowSystemInterface22handleContextMenuEventEP7QWindowbRK6QPointS4_6QFlagsIN2Qt16KeyboardModifierEE
	_ZN22QWindowSystemInterface22handleExtendedKeyEventEP7QWindowN6QEvent4TypeEi6QFlagsIN2Qt16KeyboardModifierEEjjjRK7QStringbt
	_ZN22QWindowSystemInterface22handleExtendedKeyEventEP7QWindowmN6QEvent4TypeEi6QFlagsIN2Qt16KeyboardModifierEEjjjRK7QStringbt
	_ZN22QWindowSystemInterface22handleTouchCancelEventEP7QWindowP12QTouchDevice6QFlagsIN2Qt16KeyboardModifierEE
	_ZN22QWindowSystemInterface22handleTouchCancelEventEP7QWindowmP12QTouchDevice6QFlagsIN2Qt16KeyboardModifierEE
	_ZN22QWindowSystemInterface22sendWindowSystemEventsE6QFlagsIN10QEventLoop17ProcessEventsFlagEE
	_ZN22QWindowSystemInterface22tryHandleShortcutEventEP7QWindowi6QFlagsIN2Qt16KeyboardModifierEERK7QStringbt
	_ZN22QWindowSystemInterface22tryHandleShortcutEventEP7QWindowmi6QFlagsIN2Qt16KeyboardModifierEERK7QStringbt
	_ZN22QWindowSystemInterface23flushWindowSystemEventsEv
	_ZN22QWindowSystemInterface24handlePlatformPanelEventEP7QWindow
	_ZN22QWindowSystemInterface24handleWindowStateChangedEP7QWindowN2Qt11WindowStateE
	_ZN22QWindowSystemInterface24windowSystemEventsQueuedEv
	_ZN22QWindowSystemInterface25handleEnterWhatsThisEventEv
	_ZN22QWindowSystemInterface25handleWindowScreenChangedEP7QWindowP7QScreen
	_ZN22QWindowSystemInterface26handleFrameStrutMouseEventEP7QWindowRK7QPointFS4_6QFlagsIN2Qt11MouseButtonEES5_INS6_16KeyboardModifierEENS6_16MouseEventSourceE
	_ZN22QWindowSystemInterface26handleFrameStrutMouseEventEP7QWindowmRK7QPointFS4_6QFlagsIN2Qt11MouseButtonEES5_INS6_16KeyboardModifierEENS6_16MouseEventSourceE
	_ZN22QWindowSystemInterface26handleScreenGeometryChangeEP7QScreenRK5QRect
	_ZN22QWindowSystemInterface29handleApplicationStateChangedEN2Qt16ApplicationStateE
	_ZN22QWindowSystemInterface29handleScreenOrientationChangeEP7QScreenN2Qt17ScreenOrientationE
	_ZN22QWindowSystemInterface29handleScreenRefreshRateChangeEP7QScreend
	_ZN22QWindowSystemInterface30tryHandleExtendedShortcutEventEP7QWindowi6QFlagsIN2Qt16KeyboardModifierEEjjjRK7QStringbt
	_ZN22QWindowSystemInterface30tryHandleExtendedShortcutEventEP7QWindowmi6QFlagsIN2Qt16KeyboardModifierEEjjjRK7QStringbt
	_ZN22QWindowSystemInterface31deferredFlushWindowSystemEventsEv
	_ZN22QWindowSystemInterface31handleGestureEventWithRealValueEP7QWindowmN2Qt17NativeGestureTypeEdR7QPointFS5_
	_ZN22QWindowSystemInterface31handleTabletEnterProximityEventEiix
	_ZN22QWindowSystemInterface31handleTabletEnterProximityEventEmiix
	_ZN22QWindowSystemInterface31handleTabletLeaveProximityEventEiix
	_ZN22QWindowSystemInterface31handleTabletLeaveProximityEventEmiix
	_ZN22QWindowSystemInterface33setSynchronousWindowsSystemEventsEb
	_ZN22QWindowSystemInterface35handleScreenAvailableGeometryChangeEP7QScreenRK5QRect
	_ZN22QWindowSystemInterface36handleScreenLogicalDotsPerInchChangeEP7QScreendd
	_ZN22QWindowSystemInterface40handleGestureEventWithSequenceIdAndValueEP7QWindowmN2Qt17NativeGestureTypeEmyR7QPointFS5_
	_ZN23QAccessibleBridgePlugin11qt_metacallEN11QMetaObject4CallEiPPv
	_ZN23QAccessibleBridgePlugin11qt_metacastEPKc
	_ZN23QAccessibleBridgePlugin16staticMetaObjectE
	_ZN23QAccessibleBridgePlugin18qt_static_metacallEP7QObjectN11QMetaObject4CallEiPPv
	_ZN23QAccessibleBridgePluginC1EP7QObject
	_ZN23QAccessibleBridgePluginC2EP7QObject
	_ZN23QAccessibleBridgePluginD0Ev
	_ZN23QAccessibleBridgePluginD1Ev
	_ZN23QAccessibleBridgePluginD2Ev
	_ZN23QImageTextureGlyphCache11fillTextureERKN18QTextureGlyphCache5CoordEj6QFixed
	_ZN23QImageTextureGlyphCache17createTextureDataEii
	_ZN23QImageTextureGlyphCache17resizeTextureDataEii
	_ZN23QOpenGLExtensionMatcherC1Ev
	_ZN23QOpenGLExtensionMatcherC2Ev
	_ZN23QPlatformDragQtResponseC1EbN2Qt10DropActionE5QRect
	_ZN23QPlatformDragQtResponseC2EbN2Qt10DropActionE5QRect
	_ZN23QPlatformDropQtResponseC1EbN2Qt10DropActionE
	_ZN23QPlatformDropQtResponseC2EbN2Qt10DropActionE
	_ZN23QPlatformSessionManager12appSaveStateEv
	_ZN23QPlatformSessionManager13appCommitDataEv
	_ZN23QPlatformSessionManager13requestPhase2Ev
	_ZN23QPlatformSessionManager14setRestartHintEN15QSessionManager11RestartHintE
	_ZN23QPlatformSessionManager17allowsInteractionEv
	_ZN23QPlatformSessionManager17setDiscardCommandERK11QStringList
	_ZN23QPlatformSessionManager17setRestartCommandERK11QStringList
	_ZN23QPlatformSessionManager18setManagerPropertyERK7QStringRK11QStringList
	_ZN23QPlatformSessionManager18setManagerPropertyERK7QStringS2_
	_ZN23QPlatformSessionManager22allowsErrorInteractionEv
	_ZN23QPlatformSessionManager6cancelEv
	_ZN23QPlatformSessionManager7releaseEv
	_ZN23QPlatformSessionManagerC1ERK7QStringS2_
	_ZN23QPlatformSessionManagerC2ERK7QStringS2_
	_ZN23QPlatformSessionManagerD0Ev
	_ZN23QPlatformSessionManagerD1Ev
	_ZN23QPlatformSessionManagerD2Ev
	_ZN23QPlatformSystemTrayIcon11qt_metacallEN11QMetaObject4CallEiPPv
	_ZN23QPlatformSystemTrayIcon11qt_metacastEPKc
	_ZN23QPlatformSystemTrayIcon14messageClickedEv
	_ZN23QPlatformSystemTrayIcon16staticMetaObjectE
	_ZN23QPlatformSystemTrayIcon18qt_static_metacallEP7QObjectN11QMetaObject4CallEiPPv
	_ZN23QPlatformSystemTrayIcon9activatedENS_16ActivationReasonE
	_ZN23QPlatformSystemTrayIconC1Ev
	_ZN23QPlatformSystemTrayIconC2Ev
	_ZN23QPlatformSystemTrayIconD0Ev
	_ZN23QPlatformSystemTrayIconD1Ev
	_ZN23QPlatformSystemTrayIconD2Ev
	_ZN23QWindowStateChangeEventC1E6QFlagsIN2Qt11WindowStateEEb
	_ZN23QWindowStateChangeEventC2E6QFlagsIN2Qt11WindowStateEEb
	_ZN23QWindowStateChangeEventD0Ev
	_ZN23QWindowStateChangeEventD1Ev
	_ZN23QWindowStateChangeEventD2Ev
	_ZN24QAbstractLayoutStyleInfo10invalidateEv
	_ZN24QAbstractLayoutStyleInfoD0Ev
	_ZN24QAbstractLayoutStyleInfoD1Ev
	_ZN24QAccessibleTextInterfaceD0Ev
	_ZN24QAccessibleTextInterfaceD1Ev
	_ZN24QBlittablePlatformPixmap12setBlittableEP10QBlittable
	_ZN24QBlittablePlatformPixmap19setDevicePixelRatioEd
	_ZN24QBlittablePlatformPixmap4fillERK6QColor
	_ZN24QBlittablePlatformPixmap6bufferEv
	_ZN24QBlittablePlatformPixmap6resizeEii
	_ZN24QBlittablePlatformPixmap9fromImageERK6QImage6QFlagsIN2Qt19ImageConversionFlagEE
	_ZN24QBlittablePlatformPixmapC1Ev
	_ZN24QBlittablePlatformPixmapC2Ev
	_ZN24QBlittablePlatformPixmapD0Ev
	_ZN24QBlittablePlatformPixmapD1Ev
	_ZN24QBlittablePlatformPixmapD2Ev
	_ZN24QImagePixmapCleanupHooks12addImageHookEPFvxE
	_ZN24QImagePixmapCleanupHooks13isImageCachedERK6QImage
	_ZN24QImagePixmapCleanupHooks14isPixmapCachedERK7QPixmap
	_ZN24QImagePixmapCleanupHooks15removeImageHookEPFvxE
	_ZN24QImagePixmapCleanupHooks17executeImageHooksEx
	_ZN24QImagePixmapCleanupHooks18enableCleanupHooksEP15QPlatformPixmap
	_ZN24QImagePixmapCleanupHooks18enableCleanupHooksERK6QImage
	_ZN24QImagePixmapCleanupHooks18enableCleanupHooksERK7QPixmap
	_ZN24QImagePixmapCleanupHooks32addPlatformPixmapDestructionHookEPFvP15QPlatformPixmapE
	_ZN24QImagePixmapCleanupHooks33addPlatformPixmapModificationHookEPFvP15QPlatformPixmapE
	_ZN24QImagePixmapCleanupHooks35removePlatformPixmapDestructionHookEPFvP15QPlatformPixmapE
	_ZN24QImagePixmapCleanupHooks36removePlatformPixmapModificationHookEPFvP15QPlatformPixmapE
	_ZN24QImagePixmapCleanupHooks37executePlatformPixmapDestructionHooksEP15QPlatformPixmap
	_ZN24QImagePixmapCleanupHooks38executePlatformPixmapModificationHooksEP15QPlatformPixmap
	_ZN24QImagePixmapCleanupHooks8instanceEv
	_ZN24QOffscreenSurfacePrivateD0Ev
	_ZN24QOffscreenSurfacePrivateD1Ev
	_ZN24QOpenGLCustomShaderStage11setInactiveEv
	_ZN24QOpenGLCustomShaderStage11setUniformsEP20QOpenGLShaderProgram
	_ZN24QOpenGLCustomShaderStage12setOnPainterEP8QPainter
	_ZN24QOpenGLCustomShaderStage16setUniformsDirtyEv
	_ZN24QOpenGLCustomShaderStage17removeFromPainterEP8QPainter
	_ZN24QOpenGLCustomShaderStage9setSourceERK10QByteArray
	_ZN24QOpenGLCustomShaderStageC1Ev
	_ZN24QOpenGLCustomShaderStageC2Ev
	_ZN24QOpenGLCustomShaderStageD0Ev
	_ZN24QOpenGLCustomShaderStageD1Ev
	_ZN24QOpenGLCustomShaderStageD2Ev
	_ZN24QOpenGLFramebufferObject11bindDefaultEv
	_ZN24QOpenGLFramebufferObject11takeTextureEv
	_ZN24QOpenGLFramebufferObject13setAttachmentENS_10AttachmentE
	_ZN24QOpenGLFramebufferObject15blitFramebufferEPS_RK5QRectS0_S3_jj
	_ZN24QOpenGLFramebufferObject15blitFramebufferEPS_S0_jj
	_ZN24QOpenGLFramebufferObject24hasOpenGLFramebufferBlitEv
	_ZN24QOpenGLFramebufferObject27hasOpenGLFramebufferObjectsEv
	_ZN24QOpenGLFramebufferObject4bindEv
	_ZN24QOpenGLFramebufferObject7releaseEv
	_ZN24QOpenGLFramebufferObjectC1ERK5QSizeNS_10AttachmentEjj
	_ZN24QOpenGLFramebufferObjectC1ERK5QSizeRK30QOpenGLFramebufferObjectFormat
	_ZN24QOpenGLFramebufferObjectC1ERK5QSizej
	_ZN24QOpenGLFramebufferObjectC1EiiNS_10AttachmentEjj
	_ZN24QOpenGLFramebufferObjectC1EiiRK30QOpenGLFramebufferObjectFormat
	_ZN24QOpenGLFramebufferObjectC1Eiij
	_ZN24QOpenGLFramebufferObjectC2ERK5QSizeNS_10AttachmentEjj
	_ZN24QOpenGLFramebufferObjectC2ERK5QSizeRK30QOpenGLFramebufferObjectFormat
	_ZN24QOpenGLFramebufferObjectC2ERK5QSizej
	_ZN24QOpenGLFramebufferObjectC2EiiNS_10AttachmentEjj
	_ZN24QOpenGLFramebufferObjectC2EiiRK30QOpenGLFramebufferObjectFormat
	_ZN24QOpenGLFramebufferObjectC2Eiij
	_ZN24QOpenGLFramebufferObjectD0Ev
	_ZN24QOpenGLFramebufferObjectD1Ev
	_ZN24QOpenGLFramebufferObjectD2Ev
	_ZN24QOpenGLTextureGlyphCache11fillTextureERKN18QTextureGlyphCache5CoordEj6QFixed
	_ZN24QOpenGLTextureGlyphCache17createTextureDataEii
	_ZN24QOpenGLTextureGlyphCache17resizeTextureDataEii
	_ZN24QOpenGLTextureGlyphCache18setupVertexAttribsEv
	_ZN24QOpenGLTextureGlyphCache5clearEv
	_ZN24QOpenGLTextureGlyphCacheC1EN11QFontEngine11GlyphFormatERK10QTransform
	_ZN24QOpenGLTextureGlyphCacheC2EN11QFontEngine11GlyphFormatERK10QTransform
	_ZN24QOpenGLTextureGlyphCacheD0Ev
	_ZN24QOpenGLTextureGlyphCacheD1Ev
	_ZN24QOpenGLTextureGlyphCacheD2Ev
	_ZN24QOpenGLVertexArrayObject11qt_metacallEN11QMetaObject4CallEiPPv
	_ZN24QOpenGLVertexArrayObject11qt_metacastEPKc
	_ZN24QOpenGLVertexArrayObject16staticMetaObjectE
	_ZN24QOpenGLVertexArrayObject18qt_static_metacallEP7QObjectN11QMetaObject4CallEiPPv
	_ZN24QOpenGLVertexArrayObject4bindEv
	_ZN24QOpenGLVertexArrayObject6createEv
	_ZN24QOpenGLVertexArrayObject7destroyEv
	_ZN24QOpenGLVertexArrayObject7releaseEv
	_ZN24QOpenGLVertexArrayObjectC1EP7QObject
	_ZN24QOpenGLVertexArrayObjectC1ER31QOpenGLVertexArrayObjectPrivate
	_ZN24QOpenGLVertexArrayObjectC2EP7QObject
	_ZN24QOpenGLVertexArrayObjectC2ER31QOpenGLVertexArrayObjectPrivate
	_ZN24QOpenGLVertexArrayObjectD0Ev
	_ZN24QOpenGLVertexArrayObjectD1Ev
	_ZN24QOpenGLVertexArrayObjectD2Ev
	_ZN24QPagedPaintDevicePrivate11setPageSizeERK9QPageSize
	_ZN24QPagedPaintDevicePrivate13setPageLayoutERK11QPageLayout
	_ZN24QPagedPaintDevicePrivate14setPageMarginsERK9QMarginsF
	_ZN24QPagedPaintDevicePrivate14setPageMarginsERK9QMarginsFN11QPageLayout4UnitE
	_ZN24QPagedPaintDevicePrivate18setPageOrientationEN11QPageLayout11OrientationE
	_ZN24QPagedPaintDevicePrivateD0Ev
	_ZN24QPagedPaintDevicePrivateD1Ev
	_ZN24QPlatformNativeInterface11qt_metacallEN11QMetaObject4CallEiPPv
	_ZN24QPlatformNativeInterface11qt_metacastEPKc
	_ZN24QPlatformNativeInterface16staticMetaObjectE
	_ZN24QPlatformNativeInterface17setWindowPropertyEP15QPlatformWindowRK7QStringRK8QVariant
	_ZN24QPlatformNativeInterface18qt_static_metacallEP7QObjectN11QMetaObject4CallEiPPv
	_ZN24QPlatformNativeInterface21windowPropertyChangedEP15QPlatformWindowRK7QString
	_ZN24QPlatformNativeInterface23nativeResourceForScreenERK10QByteArrayP7QScreen
	_ZN24QPlatformNativeInterface23nativeResourceForWindowERK10QByteArrayP7QWindow
	_ZN24QPlatformNativeInterface24nativeResourceForContextERK10QByteArrayP14QOpenGLContext
	_ZN24QPlatformNativeInterface28nativeResourceForIntegrationERK10QByteArray
	_ZN24QPlatformNativeInterface29nativeResourceForBackingStoreERK10QByteArrayP13QBackingStore
	_ZN24QPlatformNativeInterface31nativeResourceFunctionForScreenERK10QByteArray
	_ZN24QPlatformNativeInterface31nativeResourceFunctionForWindowERK10QByteArray
	_ZN24QPlatformNativeInterface32nativeResourceFunctionForContextERK10QByteArray
	_ZN24QPlatformNativeInterface36nativeResourceFunctionForIntegrationERK10QByteArray
	_ZN24QPlatformNativeInterface37nativeResourceFunctionForBackingStoreERK10QByteArray
	_ZN24QSupportedWritingSystems12setSupportedEN13QFontDatabase13WritingSystemEb
	_ZN24QSupportedWritingSystems6detachEv
	_ZN24QSupportedWritingSystemsC1ERKS_
	_ZN24QSupportedWritingSystemsC1Ev
	_ZN24QSupportedWritingSystemsC2ERKS_
	_ZN24QSupportedWritingSystemsC2Ev
	_ZN24QSupportedWritingSystemsD1Ev
	_ZN24QSupportedWritingSystemsD2Ev
	_ZN24QSupportedWritingSystemsaSERKS_
	_ZN25QAccessibleImageInterfaceD0Ev
	_ZN25QAccessibleImageInterfaceD1Ev
	_ZN25QAccessibleTableInterfaceD0Ev
	_ZN25QAccessibleTableInterfaceD1Ev
	_ZN25QAccessibleValueInterfaceD0Ev
	_ZN25QAccessibleValueInterfaceD1Ev
	_ZN25QOpenGLFunctions_3_2_Core14versionProfileEv
	_ZN25QOpenGLFunctions_3_2_Core19isContextCompatibleEP14QOpenGLContext
	_ZN25QOpenGLFunctions_3_2_Core25initializeOpenGLFunctionsEv
	_ZN25QOpenGLFunctions_3_2_CoreC1Ev
	_ZN25QOpenGLFunctions_3_2_CoreC2Ev
	_ZN25QOpenGLFunctions_3_2_CoreD0Ev
	_ZN25QOpenGLFunctions_3_2_CoreD1Ev
	_ZN25QOpenGLFunctions_3_2_CoreD2Ev
	_ZN25QOpenGLFunctions_3_3_Core14versionProfileEv
	_ZN25QOpenGLFunctions_3_3_Core19isContextCompatibleEP14QOpenGLContext
	_ZN25QOpenGLFunctions_3_3_Core25initializeOpenGLFunctionsEv
	_ZN25QOpenGLFunctions_3_3_CoreC1Ev
	_ZN25QOpenGLFunctions_3_3_CoreC2Ev
	_ZN25QOpenGLFunctions_3_3_CoreD0Ev
	_ZN25QOpenGLFunctions_3_3_CoreD1Ev
	_ZN25QOpenGLFunctions_3_3_CoreD2Ev
	_ZN25QOpenGLFunctions_4_0_Core14versionProfileEv
	_ZN25QOpenGLFunctions_4_0_Core19isContextCompatibleEP14QOpenGLContext
	_ZN25QOpenGLFunctions_4_0_Core25initializeOpenGLFunctionsEv
	_ZN25QOpenGLFunctions_4_0_CoreC1Ev
	_ZN25QOpenGLFunctions_4_0_CoreC2Ev
	_ZN25QOpenGLFunctions_4_0_CoreD0Ev
	_ZN25QOpenGLFunctions_4_0_CoreD1Ev
	_ZN25QOpenGLFunctions_4_0_CoreD2Ev
	_ZN25QOpenGLFunctions_4_1_Core14versionProfileEv
	_ZN25QOpenGLFunctions_4_1_Core19isContextCompatibleEP14QOpenGLContext
	_ZN25QOpenGLFunctions_4_1_Core25initializeOpenGLFunctionsEv
	_ZN25QOpenGLFunctions_4_1_CoreC1Ev
	_ZN25QOpenGLFunctions_4_1_CoreC2Ev
	_ZN25QOpenGLFunctions_4_1_CoreD0Ev
	_ZN25QOpenGLFunctions_4_1_CoreD1Ev
	_ZN25QOpenGLFunctions_4_1_CoreD2Ev
	_ZN25QOpenGLFunctions_4_2_Core14versionProfileEv
	_ZN25QOpenGLFunctions_4_2_Core19isContextCompatibleEP14QOpenGLContext
	_ZN25QOpenGLFunctions_4_2_Core25initializeOpenGLFunctionsEv
	_ZN25QOpenGLFunctions_4_2_CoreC1Ev
	_ZN25QOpenGLFunctions_4_2_CoreC2Ev
	_ZN25QOpenGLFunctions_4_2_CoreD0Ev
	_ZN25QOpenGLFunctions_4_2_CoreD1Ev
	_ZN25QOpenGLFunctions_4_2_CoreD2Ev
	_ZN25QOpenGLFunctions_4_3_Core14versionProfileEv
	_ZN25QOpenGLFunctions_4_3_Core19isContextCompatibleEP14QOpenGLContext
	_ZN25QOpenGLFunctions_4_3_Core25initializeOpenGLFunctionsEv
	_ZN25QOpenGLFunctions_4_3_CoreC1Ev
	_ZN25QOpenGLFunctions_4_3_CoreC2Ev
	_ZN25QOpenGLFunctions_4_3_CoreD0Ev
	_ZN25QOpenGLFunctions_4_3_CoreD1Ev
	_ZN25QOpenGLFunctions_4_3_CoreD2Ev
	_ZN25QPlatformFileDialogHelper10setOptionsERK14QSharedPointerI18QFileDialogOptionsE
	_ZN25QPlatformFileDialogHelper11qt_metacallEN11QMetaObject4CallEiPPv
	_ZN25QPlatformFileDialogHelper11qt_metacastEPKc
	_ZN25QPlatformFileDialogHelper12fileSelectedERK4QUrl
	_ZN25QPlatformFileDialogHelper12filterRegExpE
	_ZN25QPlatformFileDialogHelper13filesSelectedERK5QListI4QUrlE
	_ZN25QPlatformFileDialogHelper14currentChangedERK4QUrl
	_ZN25QPlatformFileDialogHelper14filterSelectedERK7QString
	_ZN25QPlatformFileDialogHelper15cleanFilterListERK7QString
	_ZN25QPlatformFileDialogHelper16directoryEnteredERK4QUrl
	_ZN25QPlatformFileDialogHelper16staticMetaObjectE
	_ZN25QPlatformFileDialogHelper18qt_static_metacallEP7QObjectN11QMetaObject4CallEiPPv
	_ZN25QPlatformFontDialogHelper10setOptionsERK14QSharedPointerI18QFontDialogOptionsE
	_ZN25QPlatformFontDialogHelper11qt_metacallEN11QMetaObject4CallEiPPv
	_ZN25QPlatformFontDialogHelper11qt_metacastEPKc
	_ZN25QPlatformFontDialogHelper12fontSelectedERK5QFont
	_ZN25QPlatformFontDialogHelper16staticMetaObjectE
	_ZN25QPlatformFontDialogHelper18currentFontChangedERK5QFont
	_ZN25QPlatformFontDialogHelper18qt_static_metacallEP7QObjectN11QMetaObject4CallEiPPv
	_ZN25QPlatformOffscreenSurfaceC1EP17QOffscreenSurface
	_ZN25QPlatformOffscreenSurfaceC2EP17QOffscreenSurface
	_ZN25QPlatformOffscreenSurfaceD0Ev
	_ZN25QPlatformOffscreenSurfaceD1Ev
	_ZN25QPlatformOffscreenSurfaceD2Ev
	_ZN26QAccessibleActionInterface11pressActionEv
	_ZN26QAccessibleActionInterface12toggleActionEv
	_ZN26QAccessibleActionInterface14decreaseActionEv
	_ZN26QAccessibleActionInterface14increaseActionEv
	_ZN26QAccessibleActionInterface14setFocusActionEv
	_ZN26QAccessibleActionInterface14showMenuActionEv
	_ZN26QAccessibleActionInterfaceD0Ev
	_ZN26QAccessibleActionInterfaceD1Ev
	_ZN26QOpenGLContextGroupPrivate10addContextEP14QOpenGLContext
	_ZN26QOpenGLContextGroupPrivate13removeContextEP14QOpenGLContext
	_ZN26QOpenGLContextGroupPrivate22deletePendingResourcesEP14QOpenGLContext
	_ZN26QOpenGLContextGroupPrivate7cleanupEv
	_ZN26QOpenGLEngineShaderManager11blitProgramEv
	_ZN26QOpenGLEngineShaderManager11qt_metacallEN11QMetaObject4CallEiPPv
	_ZN26QOpenGLEngineShaderManager11qt_metacastEPKc
	_ZN26QOpenGLEngineShaderManager11setMaskTypeENS_8MaskTypeE
	_ZN26QOpenGLEngineShaderManager13simpleProgramEv
	_ZN26QOpenGLEngineShaderManager14currentProgramEv
	_ZN26QOpenGLEngineShaderManager14setCustomStageEP24QOpenGLCustomShaderStage
	_ZN26QOpenGLEngineShaderManager14setOpacityModeENS_11OpacityModeE
	_ZN26QOpenGLEngineShaderManager14useBlitProgramEv
	_ZN26QOpenGLEngineShaderManager15setSrcPixelTypeEN2Qt10BrushStyleE
	_ZN26QOpenGLEngineShaderManager15setSrcPixelTypeENS_12PixelSrcTypeE
	_ZN26QOpenGLEngineShaderManager16staticMetaObjectE
	_ZN26QOpenGLEngineShaderManager16useSimpleProgramEv
	_ZN26QOpenGLEngineShaderManager17removeCustomStageEv
	_ZN26QOpenGLEngineShaderManager18getUniformLocationENS_7UniformE
	_ZN26QOpenGLEngineShaderManager18qt_static_metacallEP7QObjectN11QMetaObject4CallEiPPv
	_ZN26QOpenGLEngineShaderManager18setCompositionModeEN8QPainter15CompositionModeE
	_ZN26QOpenGLEngineShaderManager20useCorrectShaderProgEv
	_ZN26QOpenGLEngineShaderManager25optimiseForBrushTransformEN10QTransform18TransformationTypeE
	_ZN26QOpenGLEngineShaderManager8setDirtyEv
	_ZN26QOpenGLEngineShaderManagerC1EP14QOpenGLContext
	_ZN26QOpenGLEngineShaderManagerC2EP14QOpenGLContext
	_ZN26QOpenGLEngineShaderManagerD0Ev
	_ZN26QOpenGLEngineShaderManagerD1Ev
	_ZN26QOpenGLEngineShaderManagerD2Ev
	_ZN26QOpenGLEngineSharedShaders15qShaderSnippetsE
	_ZN26QOpenGLEngineSharedShaders16staticMetaObjectE
	_ZN26QOpenGLEngineSharedShaders17shadersForContextEP14QOpenGLContext
	_ZN26QOpenGLEngineSharedShaders18cleanupCustomStageEP24QOpenGLCustomShaderStage
	_ZN26QOpenGLEngineSharedShaders18findProgramInCacheERK23QOpenGLEngineShaderProg
	_ZN26QOpenGLEngineSharedShadersC1EP14QOpenGLContext
	_ZN26QOpenGLEngineSharedShadersC2EP14QOpenGLContext
	_ZN26QOpenGLEngineSharedShadersD1Ev
	_ZN26QOpenGLEngineSharedShadersD2Ev
	_ZN26QOpenGLSharedResourceGuard12freeResourceEP14QOpenGLContext
	_ZN26QOpenGLSharedResourceGuard18invalidateResourceEv
	_ZN26QPlatformColorDialogHelper10setOptionsERK14QSharedPointerI19QColorDialogOptionsE
	_ZN26QPlatformColorDialogHelper11qt_metacallEN11QMetaObject4CallEiPPv
	_ZN26QPlatformColorDialogHelper11qt_metacastEPKc
	_ZN26QPlatformColorDialogHelper13colorSelectedERK6QColor
	_ZN26QPlatformColorDialogHelper16staticMetaObjectE
	_ZN26QPlatformColorDialogHelper18qt_static_metacallEP7QObjectN11QMetaObject4CallEiPPv
	_ZN26QPlatformColorDialogHelper19currentColorChangedERK6QColor
	_ZN26QPlatformIntegrationPlugin11qt_metacallEN11QMetaObject4CallEiPPv
	_ZN26QPlatformIntegrationPlugin11qt_metacastEPKc
	_ZN26QPlatformIntegrationPlugin16staticMetaObjectE
	_ZN26QPlatformIntegrationPlugin18qt_static_metacallEP7QObjectN11QMetaObject4CallEiPPv
	_ZN26QPlatformIntegrationPlugin6createERK7QStringRK11QStringList
	_ZN26QPlatformIntegrationPlugin6createERK7QStringRK11QStringListRiPPc
	_ZN26QPlatformIntegrationPluginC1EP7QObject
	_ZN26QPlatformIntegrationPluginC2EP7QObject
	_ZN26QPlatformIntegrationPluginD0Ev
	_ZN26QPlatformIntegrationPluginD1Ev
	_ZN26QPlatformIntegrationPluginD2Ev
	_ZN26QPlatformScreenPageFlipper11qt_metacallEN11QMetaObject4CallEiPPv
	_ZN26QPlatformScreenPageFlipper11qt_metacastEPKc
	_ZN26QPlatformScreenPageFlipper14bufferReleasedEP21QPlatformScreenBuffer
	_ZN26QPlatformScreenPageFlipper15bufferDisplayedEP21QPlatformScreenBuffer
	_ZN26QPlatformScreenPageFlipper16staticMetaObjectE
	_ZN26QPlatformScreenPageFlipper18qt_static_metacallEP7QObjectN11QMetaObject4CallEiPPv
	_ZN26QPlatformScreenPageFlipperC1EP7QObject
	_ZN26QPlatformScreenPageFlipperC2EP7QObject
	_ZN27QAbstractTextDocumentLayout11formatIndexEi
	_ZN27QAbstractTextDocumentLayout11qt_metacallEN11QMetaObject4CallEiPPv
	_ZN27QAbstractTextDocumentLayout11qt_metacastEPKc
	_ZN27QAbstractTextDocumentLayout11updateBlockERK10QTextBlock
	_ZN27QAbstractTextDocumentLayout14setPaintDeviceEP12QPaintDevice
	_ZN27QAbstractTextDocumentLayout15registerHandlerEiP7QObject
	_ZN27QAbstractTextDocumentLayout16drawInlineObjectEP8QPainterRK6QRectF17QTextInlineObjectiRK11QTextFormat
	_ZN27QAbstractTextDocumentLayout16pageCountChangedEi
	_ZN27QAbstractTextDocumentLayout16staticMetaObjectE
	_ZN27QAbstractTextDocumentLayout17unregisterHandlerEiP7QObject
	_ZN27QAbstractTextDocumentLayout18qt_static_metacallEP7QObjectN11QMetaObject4CallEiPPv
	_ZN27QAbstractTextDocumentLayout18resizeInlineObjectE17QTextInlineObjectiRK11QTextFormat
	_ZN27QAbstractTextDocumentLayout19documentSizeChangedERK6QSizeF
	_ZN27QAbstractTextDocumentLayout20positionInlineObjectE17QTextInlineObjectiRK11QTextFormat
	_ZN27QAbstractTextDocumentLayout6formatEi
	_ZN27QAbstractTextDocumentLayout6updateERK6QRectF
	_ZN27QAbstractTextDocumentLayoutC1EP13QTextDocument
	_ZN27QAbstractTextDocumentLayoutC1ER34QAbstractTextDocumentLayoutPrivateP13QTextDocument
	_ZN27QAbstractTextDocumentLayoutC2EP13QTextDocument
	_ZN27QAbstractTextDocumentLayoutC2ER34QAbstractTextDocumentLayoutPrivateP13QTextDocument
	_ZN27QAbstractTextDocumentLayoutD0Ev
	_ZN27QAbstractTextDocumentLayoutD1Ev
	_ZN27QAbstractTextDocumentLayoutD2Ev
	_ZN27QOpenGLPixelTransferOptions11setSkipRowsEi
	_ZN27QOpenGLPixelTransferOptions12setAlignmentEi
	_ZN27QOpenGLPixelTransferOptions12setRowLengthEi
	_ZN27QOpenGLPixelTransferOptions13setSkipImagesEi
	_ZN27QOpenGLPixelTransferOptions13setSkipPixelsEi
	_ZN27QOpenGLPixelTransferOptions14setImageHeightEi
	_ZN27QOpenGLPixelTransferOptions19setSwapBytesEnabledEb
	_ZN27QOpenGLPixelTransferOptions28setLeastSignificantByteFirstEb
	_ZN27QOpenGLPixelTransferOptionsC1ERKS_
	_ZN27QOpenGLPixelTransferOptionsC1Ev
	_ZN27QOpenGLPixelTransferOptionsC2ERKS_
	_ZN27QOpenGLPixelTransferOptionsC2Ev
	_ZN27QOpenGLPixelTransferOptionsD1Ev
	_ZN27QOpenGLPixelTransferOptionsD2Ev
	_ZN27QOpenGLPixelTransferOptionsaSERKS_
	_ZN27QPlatformInputContextPlugin11qt_metacallEN11QMetaObject4CallEiPPv
	_ZN27QPlatformInputContextPlugin11qt_metacastEPKc
	_ZN27QPlatformInputContextPlugin16staticMetaObjectE
	_ZN27QPlatformInputContextPlugin18qt_static_metacallEP7QObjectN11QMetaObject4CallEiPPv
	_ZN27QPlatformInputContextPluginC1EP7QObject
	_ZN27QPlatformInputContextPluginC2EP7QObject
	_ZN27QPlatformInputContextPluginD0Ev
	_ZN27QPlatformInputContextPluginD1Ev
	_ZN27QPlatformInputContextPluginD2Ev
	_ZN27QPlatformIntegrationFactory4keysERK7QString
	_ZN27QPlatformIntegrationFactory6createERK7QStringRK11QStringListRiPPcS2_
	_ZN27QRegularExpressionValidator11qt_metacallEN11QMetaObject4CallEiPPv
	_ZN27QRegularExpressionValidator11qt_metacastEPKc
	_ZN27QRegularExpressionValidator16staticMetaObjectE
	_ZN27QRegularExpressionValidator18qt_static_metacallEP7QObjectN11QMetaObject4CallEiPPv
	_ZN27QRegularExpressionValidator20setRegularExpressionERK18QRegularExpression
	_ZN27QRegularExpressionValidator24regularExpressionChangedERK18QRegularExpression
	_ZN27QRegularExpressionValidatorC1EP7QObject
	_ZN27QRegularExpressionValidatorC1ERK18QRegularExpressionP7QObject
	_ZN27QRegularExpressionValidatorC2EP7QObject
	_ZN27QRegularExpressionValidatorC2ERK18QRegularExpressionP7QObject
	_ZN27QRegularExpressionValidatorD0Ev
	_ZN27QRegularExpressionValidatorD1Ev
	_ZN27QRegularExpressionValidatorD2Ev
	_ZN28QApplicationStateChangeEventC1EN2Qt16ApplicationStateE
	_ZN28QApplicationStateChangeEventC2EN2Qt16ApplicationStateE
	_ZN28QPlatformInputContextFactory4keysEv
	_ZN28QPlatformInputContextFactory6createERK7QString
	_ZN28QPlatformInputContextFactory6createEv
	_ZN28QPlatformMessageDialogHelper10setOptionsERK14QSharedPointerI21QMessageDialogOptionsE
	_ZN28QPlatformMessageDialogHelper11qt_metacallEN11QMetaObject4CallEiPPv
	_ZN28QPlatformMessageDialogHelper11qt_metacastEPKc
	_ZN28QPlatformMessageDialogHelper16staticMetaObjectE
	_ZN28QPlatformMessageDialogHelper18qt_static_metacallEP7QObjectN11QMetaObject4CallEiPPv
	_ZN28QPlatformMessageDialogHelper7clickedEN21QPlatformDialogHelper14StandardButtonENS0_10ButtonRoleE
	_ZN28QPlatformSharedGraphicsCache11qt_metacallEN11QMetaObject4CallEiPPv
	_ZN28QPlatformSharedGraphicsCache11qt_metacastEPKc
	_ZN28QPlatformSharedGraphicsCache12itemsMissingERK10QByteArrayRK7QVectorIjE
	_ZN28QPlatformSharedGraphicsCache12itemsUpdatedERK10QByteArrayPvRK7QVectorIjERKS4_I6QPointE
	_ZN28QPlatformSharedGraphicsCache14itemsAvailableERK10QByteArrayPvRK7QVectorIjERKS4_I6QPointE
	_ZN28QPlatformSharedGraphicsCache16itemsInvalidatedERK10QByteArrayRK7QVectorIjE
	_ZN28QPlatformSharedGraphicsCache16staticMetaObjectE
	_ZN28QPlatformSharedGraphicsCache18qt_static_metacallEP7QObjectN11QMetaObject4CallEiPPv
	_ZN29QAccessibleTableCellInterfaceD0Ev
	_ZN29QAccessibleTableCellInterfaceD1Ev
	_ZN29QScreenOrientationChangeEventC1EP7QScreenN2Qt17ScreenOrientationE
	_ZN29QScreenOrientationChangeEventC2EP7QScreenN2Qt17ScreenOrientationE
	_ZN29QScreenOrientationChangeEventD0Ev
	_ZN29QScreenOrientationChangeEventD1Ev
	_ZN29QScreenOrientationChangeEventD2Ev
	_ZN29QWindowSystemInterfacePrivate13eventsFlushedE
	_ZN29QWindowSystemInterfacePrivate15flushEventMutexE
	_ZN29QWindowSystemInterfacePrivate18convertTouchPointsERK5QListIN22QWindowSystemInterface10TouchPointEEPN6QEvent4TypeE
	_ZN29QWindowSystemInterfacePrivate20getWindowSystemEventEv
	_ZN29QWindowSystemInterfacePrivate21peekWindowSystemEventENS_9EventTypeE
	_ZN29QWindowSystemInterfacePrivate22windowSystemEventQueueE
	_ZN29QWindowSystemInterfacePrivate23handleWindowSystemEventEPNS_17WindowSystemEventE
	_ZN29QWindowSystemInterfacePrivate23removeWindowSystemEventEPNS_17WindowSystemEventE
	_ZN29QWindowSystemInterfacePrivate24windowSystemEventsQueuedEv
	_ZN29QWindowSystemInterfacePrivate30synchronousWindowsSystemEventsE
	_ZN29QWindowSystemInterfacePrivate32getNonUserInputWindowSystemEventEv
	_ZN29QWindowSystemInterfacePrivate9eventTimeE
	_ZN2Qt12codecForHtmlERK10QByteArray
	_ZN2Qt15mightBeRichTextERK7QString
	_ZN2Qt20convertFromPlainTextERK7QStringNS_14WhiteSpaceModeE
	_ZN30QOpenGLFramebufferObjectFormat10setSamplesEi
	_ZN30QOpenGLFramebufferObjectFormat13setAttachmentEN24QOpenGLFramebufferObject10AttachmentE
	_ZN30QOpenGLFramebufferObjectFormat16setTextureTargetEj
	_ZN30QOpenGLFramebufferObjectFormat24setInternalTextureFormatEj
	_ZN30QOpenGLFramebufferObjectFormat6detachEv
	_ZN30QOpenGLFramebufferObjectFormat9setMipmapEb
	_ZN30QOpenGLFramebufferObjectFormatC1ERKS_
	_ZN30QOpenGLFramebufferObjectFormatC1Ev
	_ZN30QOpenGLFramebufferObjectFormatC2ERKS_
	_ZN30QOpenGLFramebufferObjectFormatC2Ev
	_ZN30QOpenGLFramebufferObjectFormatD1Ev
	_ZN30QOpenGLFramebufferObjectFormatD2Ev
	_ZN30QOpenGLFramebufferObjectFormataSERKS_
	_ZN31QOpenGLMultiGroupSharedResource5valueEP14QOpenGLContext
	_ZN31QOpenGLMultiGroupSharedResource6insertEP14QOpenGLContextP21QOpenGLSharedResource
	_ZN31QOpenGLMultiGroupSharedResource7cleanupEP19QOpenGLContextGroupP21QOpenGLSharedResource
	_ZN31QOpenGLMultiGroupSharedResourceC1Ev
	_ZN31QOpenGLMultiGroupSharedResourceC2Ev
	_ZN31QOpenGLMultiGroupSharedResourceD1Ev
	_ZN31QOpenGLMultiGroupSharedResourceD2Ev
	_ZN32QAccessibleEditableTextInterfaceD0Ev
	_ZN32QAccessibleEditableTextInterfaceD1Ev
	_ZN34QOpenGLFunctions_3_2_Compatibility14versionProfileEv
	_ZN34QOpenGLFunctions_3_2_Compatibility19isContextCompatibleEP14QOpenGLContext
	_ZN34QOpenGLFunctions_3_2_Compatibility25initializeOpenGLFunctionsEv
	_ZN34QOpenGLFunctions_3_2_CompatibilityC1Ev
	_ZN34QOpenGLFunctions_3_2_CompatibilityC2Ev
	_ZN34QOpenGLFunctions_3_2_CompatibilityD0Ev
	_ZN34QOpenGLFunctions_3_2_CompatibilityD1Ev
	_ZN34QOpenGLFunctions_3_2_CompatibilityD2Ev
	_ZN34QOpenGLFunctions_3_3_Compatibility14versionProfileEv
	_ZN34QOpenGLFunctions_3_3_Compatibility19isContextCompatibleEP14QOpenGLContext
	_ZN34QOpenGLFunctions_3_3_Compatibility25initializeOpenGLFunctionsEv
	_ZN34QOpenGLFunctions_3_3_CompatibilityC1Ev
	_ZN34QOpenGLFunctions_3_3_CompatibilityC2Ev
	_ZN34QOpenGLFunctions_3_3_CompatibilityD0Ev
	_ZN34QOpenGLFunctions_3_3_CompatibilityD1Ev
	_ZN34QOpenGLFunctions_3_3_CompatibilityD2Ev
	_ZN34QOpenGLFunctions_4_0_Compatibility14versionProfileEv
	_ZN34QOpenGLFunctions_4_0_Compatibility19isContextCompatibleEP14QOpenGLContext
	_ZN34QOpenGLFunctions_4_0_Compatibility25initializeOpenGLFunctionsEv
	_ZN34QOpenGLFunctions_4_0_CompatibilityC1Ev
	_ZN34QOpenGLFunctions_4_0_CompatibilityC2Ev
	_ZN34QOpenGLFunctions_4_0_CompatibilityD0Ev
	_ZN34QOpenGLFunctions_4_0_CompatibilityD1Ev
	_ZN34QOpenGLFunctions_4_0_CompatibilityD2Ev
	_ZN34QOpenGLFunctions_4_1_Compatibility14versionProfileEv
	_ZN34QOpenGLFunctions_4_1_Compatibility19isContextCompatibleEP14QOpenGLContext
	_ZN34QOpenGLFunctions_4_1_Compatibility25initializeOpenGLFunctionsEv
	_ZN34QOpenGLFunctions_4_1_CompatibilityC1Ev
	_ZN34QOpenGLFunctions_4_1_CompatibilityC2Ev
	_ZN34QOpenGLFunctions_4_1_CompatibilityD0Ev
	_ZN34QOpenGLFunctions_4_1_CompatibilityD1Ev
	_ZN34QOpenGLFunctions_4_1_CompatibilityD2Ev
	_ZN34QOpenGLFunctions_4_2_Compatibility14versionProfileEv
	_ZN34QOpenGLFunctions_4_2_Compatibility19isContextCompatibleEP14QOpenGLContext
	_ZN34QOpenGLFunctions_4_2_Compatibility25initializeOpenGLFunctionsEv
	_ZN34QOpenGLFunctions_4_2_CompatibilityC1Ev
	_ZN34QOpenGLFunctions_4_2_CompatibilityC2Ev
	_ZN34QOpenGLFunctions_4_2_CompatibilityD0Ev
	_ZN34QOpenGLFunctions_4_2_CompatibilityD1Ev
	_ZN34QOpenGLFunctions_4_2_CompatibilityD2Ev
	_ZN34QOpenGLFunctions_4_3_Compatibility14versionProfileEv
	_ZN34QOpenGLFunctions_4_3_Compatibility19isContextCompatibleEP14QOpenGLContext
	_ZN34QOpenGLFunctions_4_3_Compatibility25initializeOpenGLFunctionsEv
	_ZN34QOpenGLFunctions_4_3_CompatibilityC1Ev
	_ZN34QOpenGLFunctions_4_3_CompatibilityC2Ev
	_ZN34QOpenGLFunctions_4_3_CompatibilityD0Ev
	_ZN34QOpenGLFunctions_4_3_CompatibilityD1Ev
	_ZN34QOpenGLFunctions_4_3_CompatibilityD2Ev
	_ZN4QCss10StyleSheet12buildIndexesEN2Qt15CaseSensitivityE
	_ZN4QCss13StyleSelector15selectorMatchesERKNS_8SelectorENS0_7NodePtrE
	_ZN4QCss13StyleSelector17styleRulesForNodeENS0_7NodePtrE
	_ZN4QCss13StyleSelector19declarationsForNodeENS0_7NodePtrEPKc
	_ZN4QCss13StyleSelector20basicSelectorMatchesERKNS_13BasicSelectorENS0_7NodePtrE
	_ZN4QCss13StyleSelector9matchRuleENS0_7NodePtrERKNS_9StyleRuleENS_16StyleSheetOriginEiP4QMapIjS2_E
	_ZN4QCss13StyleSelectorD0Ev
	_ZN4QCss13StyleSelectorD1Ev
	_ZN4QCss13StyleSelectorD2Ev
	_ZN4QCss14ValueExtractor10extractBoxEPiS1_S1_
	_ZN4QCss14ValueExtractor10sizeValuesERKNS_11DeclarationEP5QSize
	_ZN4QCss14ValueExtractor11borderValueERKNS_11DeclarationEPiPNS_11BorderStyleEP6QBrush
	_ZN4QCss14ValueExtractor11extractFontEP5QFontPi
	_ZN4QCss14ValueExtractor11extractFontEv
	_ZN4QCss14ValueExtractor11lengthValueERKNS_11DeclarationE
	_ZN4QCss14ValueExtractor11lengthValueERKNS_5ValueE
	_ZN4QCss14ValueExtractor12extractImageEP5QIconP6QFlagsIN2Qt13AlignmentFlagEEP5QSize
	_ZN4QCss14ValueExtractor12lengthValuesERKNS_11DeclarationEPi
	_ZN4QCss14ValueExtractor13extractBorderEPiP6QBrushPNS_11BorderStyleEP5QSize
	_ZN4QCss14ValueExtractor14extractOutlineEPiP6QBrushPNS_11BorderStyleEP5QSizeS1_
	_ZN4QCss14ValueExtractor14extractPaletteEP6QBrushS2_S2_S2_
	_ZN4QCss14ValueExtractor15extractGeometryEPiS1_S1_S1_S1_S1_
	_ZN4QCss14ValueExtractor15extractPositionEPiS1_S1_S1_PNS_6OriginEP6QFlagsIN2Qt13AlignmentFlagEEPNS_12PositionModeES8_
	_ZN4QCss14ValueExtractor17extractBackgroundEP6QBrushP7QStringPNS_6RepeatEP6QFlagsIN2Qt13AlignmentFlagEEPNS_6OriginEPNS_10AttachmentESD_
	_ZN4QCss14ValueExtractor20extractStyleFeaturesEv
	_ZN4QCss14ValueExtractor9sizeValueERKNS_11DeclarationE
	_ZN4QCss14ValueExtractorC1ERK7QVectorINS_11DeclarationEERK8QPalette
	_ZN4QCss14ValueExtractorC2ERK7QVectorINS_11DeclarationEERK8QPalette
	_ZN4QCss6Parser10lexemUntilENS_9TokenTypeE
	_ZN4QCss6Parser10parseClassEP7QString
	_ZN4QCss6Parser10parseMediaEPNS_9MediaRuleE
	_ZN4QCss6Parser11errorSymbolEv
	_ZN4QCss6Parser11parseAttribEPNS_17AttributeSelectorE
	_ZN4QCss6Parser11parseImportEPNS_10ImportRuleE
	_ZN4QCss6Parser11parseMediumEP11QStringList
	_ZN4QCss6Parser11parsePseudoEPNS_6PseudoE
	_ZN4QCss6Parser12parseRulesetEPNS_9StyleRuleE
	_ZN4QCss6Parser13parseFunctionEP7QStringS2_
	_ZN4QCss6Parser13parseHexColorEP6QColor
	_ZN4QCss6Parser13parsePropertyEPNS_11DeclarationE
	_ZN4QCss6Parser13parseSelectorEPNS_8SelectorE
	_ZN4QCss6Parser15parseCombinatorEPNS_13BasicSelector8RelationE
	_ZN4QCss6Parser15parsePseudoPageEP7QString
	_ZN4QCss6Parser15testAndParseUriEP7QString
	_ZN4QCss6Parser16parseElementNameEP7QString
	_ZN4QCss6Parser17parseNextOperatorEPNS_5ValueE
	_ZN4QCss6Parser18testSimpleSelectorEv
	_ZN4QCss6Parser19parseSimpleSelectorEPNS_13BasicSelectorE
	_ZN4QCss6Parser20parseNextDeclarationEPNS_11DeclarationE
	_ZN4QCss6Parser20testTokenAndEndsWithENS_9TokenTypeE13QLatin1String
	_ZN4QCss6Parser4initERK7QStringb
	_ZN4QCss6Parser4nextENS_9TokenTypeE
	_ZN4QCss6Parser4testENS_9TokenTypeE
	_ZN4QCss6Parser5parseEPNS_10StyleSheetEN2Qt15CaseSensitivityE
	_ZN4QCss6Parser5untilENS_9TokenTypeES1_
	_ZN4QCss6Parser8testPrioEv
	_ZN4QCss6Parser8testTermEv
	_ZN4QCss6Parser9parseExprEP7QVectorINS_5ValueEE
	_ZN4QCss6Parser9parsePageEPNS_8PageRuleE
	_ZN4QCss6Parser9parsePrioEPNS_11DeclarationE
	_ZN4QCss6Parser9parseTermEPNS_5ValueE
	_ZN4QCss6Parser9skipSpaceEv
	_ZN4QCss6ParserC1ERK7QStringb
	_ZN4QCss6ParserC1Ev
	_ZN4QCss6ParserC2ERK7QStringb
	_ZN4QCss6ParserC2Ev
	_ZN4QCss7Scanner10preprocessERK7QStringPb
	_ZN4QCss7Scanner4scanERK7QStringP7QVectorINS_6SymbolEE
	_ZN4QPen10isDetachedEv
	_ZN4QPen11setCapStyleEN2Qt11PenCapStyleE
	_ZN4QPen11setCosmeticEb
	_ZN4QPen12setJoinStyleEN2Qt12PenJoinStyleE
	_ZN4QPen13setDashOffsetEd
	_ZN4QPen13setMiterLimitEd
	_ZN4QPen14setDashPatternERK7QVectorIdE
	_ZN4QPen6detachEv
	_ZN4QPen8setBrushERK6QBrush
	_ZN4QPen8setColorERK6QColor
	_ZN4QPen8setStyleEN2Qt8PenStyleE
	_ZN4QPen8setWidthEi
	_ZN4QPen9setWidthFEd
	_ZN4QPenC1EN2Qt8PenStyleE
	_ZN4QPenC1ERK6QBrushdN2Qt8PenStyleENS3_11PenCapStyleENS3_12PenJoinStyleE
	_ZN4QPenC1ERK6QColor
	_ZN4QPenC1ERKS_
	_ZN4QPenC1Ev
	_ZN4QPenC2EN2Qt8PenStyleE
	_ZN4QPenC2ERK6QBrushdN2Qt8PenStyleENS3_11PenCapStyleENS3_12PenJoinStyleE
	_ZN4QPenC2ERK6QColor
	_ZN4QPenC2ERKS_
	_ZN4QPenC2Ev
	_ZN4QPenD1Ev
	_ZN4QPenD2Ev
	_ZN4QPenaSERKS_
	_ZN5QDrag10setHotSpotERK6QPoint
	_ZN5QDrag11qt_metacallEN11QMetaObject4CallEiPPv
	_ZN5QDrag11qt_metacastEPKc
	_ZN5QDrag11setMimeDataEP9QMimeData
	_ZN5QDrag13actionChangedEN2Qt10DropActionE
	_ZN5QDrag13setDragCursorERK7QPixmapN2Qt10DropActionE
	_ZN5QDrag13targetChangedEP7QObject
	_ZN5QDrag16staticMetaObjectE
	_ZN5QDrag18qt_static_metacallEP7QObjectN11QMetaObject4CallEiPPv
	_ZN5QDrag4execE6QFlagsIN2Qt10DropActionEE
	_ZN5QDrag4execE6QFlagsIN2Qt10DropActionEES2_
	_ZN5QDrag5startE6QFlagsIN2Qt10DropActionEE
	_ZN5QDrag9setPixmapERK7QPixmap
	_ZN5QDragC1EP7QObject
	_ZN5QDragC2EP7QObject
	_ZN5QDragD0Ev
	_ZN5QDragD1Ev
	_ZN5QDragD2Ev
	_ZN5QFont10fromStringERK7QString
	_ZN5QFont10initializeEv
	_ZN5QFont10setKerningEb
	_ZN5QFont10setRawModeEb
	_ZN5QFont10setRawNameERK7QString
	_ZN5QFont10setStretchEi
	_ZN5QFont10substituteERK7QString
	_ZN5QFont11setOverlineEb
	_ZN5QFont11substitutesERK7QString
	_ZN5QFont12setPixelSizeEi
	_ZN5QFont12setPointSizeEi
	_ZN5QFont12setStrikeOutEb
	_ZN5QFont12setStyleHintENS_9StyleHintENS_13StyleStrategyE
	_ZN5QFont12setStyleNameERK7QString
	_ZN5QFont12setUnderlineEb
	_ZN5QFont13setFixedPitchEb
	_ZN5QFont13setPointSizeFEd
	_ZN5QFont13substitutionsEv
	_ZN5QFont14setWordSpacingEd
	_ZN5QFont15cacheStatisticsEv
	_ZN5QFont16setLetterSpacingENS_11SpacingTypeEd
	_ZN5QFont16setStyleStrategyENS_13StyleStrategyE
	_ZN5QFont16staticMetaObjectE
	_ZN5QFont17setCapitalizationENS_14CapitalizationE
	_ZN5QFont18insertSubstitutionERK7QStringS2_
	_ZN5QFont19insertSubstitutionsERK7QStringRK11QStringList
	_ZN5QFont19removeSubstitutionsERK7QString
	_ZN5QFont20setHintingPreferenceENS_17HintingPreferenceE
	_ZN5QFont6detachEv
	_ZN5QFont7cleanupEv
	_ZN5QFont8setStyleENS_5StyleE
	_ZN5QFont9setFamilyERK7QString
	_ZN5QFont9setWeightEi
	_ZN5QFontC1EP12QFontPrivate
	_ZN5QFontC1ERK7QStringiib
	_ZN5QFontC1ERKS_
	_ZN5QFontC1ERKS_P12QPaintDevice
	_ZN5QFontC1Ev
	_ZN5QFontC2EP12QFontPrivate
	_ZN5QFontC2ERK7QStringiib
	_ZN5QFontC2ERKS_
	_ZN5QFontC2ERKS_P12QPaintDevice
	_ZN5QFontC2Ev
	_ZN5QFontD1Ev
	_ZN5QFontD2Ev
	_ZN5QFontaSERKS_
	_ZN5QIcon12hasThemeIconERK7QString
	_ZN5QIcon12setThemeNameERK7QString
	_ZN5QIcon16themeSearchPathsEv
	_ZN5QIcon19setThemeSearchPathsERK11QStringList
	_ZN5QIcon6detachEv
	_ZN5QIcon7addFileERK7QStringRK5QSizeNS_4ModeENS_5StateE
	_ZN5QIcon9addPixmapERK7QPixmapNS_4ModeENS_5StateE
	_ZN5QIcon9fromThemeERK7QStringRKS_
	_ZN5QIcon9themeNameEv
	_ZN5QIconC1EP11QIconEngine
	_ZN5QIconC1ERK7QPixmap
	_ZN5QIconC1ERK7QString
	_ZN5QIconC1ERKS_
	_ZN5QIconC1Ev
	_ZN5QIconC2EP11QIconEngine
	_ZN5QIconC2ERK7QPixmap
	_ZN5QIconC2ERK7QString
	_ZN5QIconC2ERKS_
	_ZN5QIconC2Ev
	_ZN5QIconD1Ev
	_ZN5QIconD2Ev
	_ZN5QIconaSERKS_
	_ZN6QBrush10setTextureERK7QPixmap
	_ZN6QBrush12setTransformERK10QTransform
	_ZN6QBrush15setTextureImageERK6QImage
	_ZN6QBrush4initERK6QColorN2Qt10BrushStyleE
	_ZN6QBrush6detachEN2Qt10BrushStyleE
	_ZN6QBrush7cleanUpEP10QBrushData
	_ZN6QBrush8setColorERK6QColor
	_ZN6QBrush8setStyleEN2Qt10BrushStyleE
	_ZN6QBrush9setMatrixERK7QMatrix
	_ZN6QBrushC1EN2Qt10BrushStyleE
	_ZN6QBrushC1EN2Qt11GlobalColorENS0_10BrushStyleE
	_ZN6QBrushC1EN2Qt11GlobalColorERK7QPixmap
	_ZN6QBrushC1ERK6QColorN2Qt10BrushStyleE
	_ZN6QBrushC1ERK6QColorRK7QPixmap
	_ZN6QBrushC1ERK6QImage
	_ZN6QBrushC1ERK7QPixmap
	_ZN6QBrushC1ERK9QGradient
	_ZN6QBrushC1ERKS_
	_ZN6QBrushC1Ev
	_ZN6QBrushC2EN2Qt10BrushStyleE
	_ZN6QBrushC2EN2Qt11GlobalColorENS0_10BrushStyleE
	_ZN6QBrushC2EN2Qt11GlobalColorERK7QPixmap
	_ZN6QBrushC2ERK6QColorN2Qt10BrushStyleE
	_ZN6QBrushC2ERK6QColorRK7QPixmap
	_ZN6QBrushC2ERK6QImage
	_ZN6QBrushC2ERK7QPixmap
	_ZN6QBrushC2ERK9QGradient
	_ZN6QBrushC2ERKS_
	_ZN6QBrushC2Ev
	_ZN6QBrushD1Ev
	_ZN6QBrushD2Ev
	_ZN6QBrushaSERKS_
	_ZN6QColor10colorNamesEv
	_ZN6QColor10invalidateEv
	_ZN6QColor12isValidColorERK7QString
	_ZN6QColor13setNamedColorERK7QString
	_ZN6QColor18setColorFromStringERK7QString
	_ZN6QColor6setHslEiiii
	_ZN6QColor6setHsvEiiii
	_ZN6QColor6setRedEi
	_ZN6QColor6setRgbEiiii
	_ZN6QColor6setRgbEj
	_ZN6QColor7fromHslEiiii
	_ZN6QColor7fromHsvEiiii
	_ZN6QColor7fromRgbEiiii
	_ZN6QColor7fromRgbEj
	_ZN6QColor7getCmykEPiS0_S0_S0_S0_
	_ZN6QColor7setBlueEi
	_ZN6QColor7setCmykEiiiii
	_ZN6QColor7setHslFEdddd
	_ZN6QColor7setHsvFEdddd
	_ZN6QColor7setRedFEd
	_ZN6QColor7setRgbFEdddd
	_ZN6QColor7setRgbaEj
	_ZN6QColor8fromCmykEiiiii
	_ZN6QColor8fromHslFEdddd
	_ZN6QColor8fromHsvFEdddd
	_ZN6QColor8fromRgbFEdddd
	_ZN6QColor8fromRgbaEj
	_ZN6QColor8getCmykFEPdS0_S0_S0_S0_
	_ZN6QColor8setAlphaEi
	_ZN6QColor8setBlueFEd
	_ZN6QColor8setCmykFEddddd
	_ZN6QColor8setGreenEi
	_ZN6QColor9fromCmykFEddddd
	_ZN6QColor9setAlphaFEd
	_ZN6QColor9setGreenFEd
	_ZN6QColorC1EN2Qt11GlobalColorE
	_ZN6QColorC1ENS_4SpecE
	_ZN6QColorC1Ej
	_ZN6QColorC2EN2Qt11GlobalColorE
	_ZN6QColorC2ENS_4SpecE
	_ZN6QColorC2Ej
	_ZN6QColoraSEN2Qt11GlobalColorE
	_ZN6QColoraSERKS_
	_ZN6QImage10trueMatrixERK10QTransformii
	_ZN6QImage10trueMatrixERK7QMatrixii
	_ZN6QImage12invertPixelsENS_10InvertModeE
	_ZN6QImage12loadFromDataEPKhiPKc
	_ZN6QImage13setColorCountEi
	_ZN6QImage13setColorTableE7QVectorIjE
	_ZN6QImage15setAlphaChannelERKS_
	_ZN6QImage16mirrored_inplaceEbb
	_ZN6QImage16setDotsPerMeterXEi
	_ZN6QImage16setDotsPerMeterYEi
	_ZN6QImage18rgbSwapped_inplaceEv
	_ZN6QImage19setDevicePixelRatioEd
	_ZN6QImage23convertToFormat_inplaceENS_6FormatE6QFlagsIN2Qt19ImageConversionFlagEE
	_ZN6QImage4bitsEv
	_ZN6QImage4fillEN2Qt11GlobalColorE
	_ZN6QImage4fillERK6QColor
	_ZN6QImage4fillEj
	_ZN6QImage4loadEP9QIODevicePKc
	_ZN6QImage4loadERK7QStringPKc
	_ZN6QImage6detachEv
	_ZN6QImage7setTextERK7QStringS2_
	_ZN6QImage8fromDataEPKhiPKc
	_ZN6QImage8scanLineEi
	_ZN6QImage8setColorEij
	_ZN6QImage8setPixelEiij
	_ZN6QImage9setOffsetERK6QPoint
	_ZN6QImageC1EPKPKc
	_ZN6QImageC1EPKhiiNS_6FormatEPFvPvES3_
	_ZN6QImageC1EPKhiiiNS_6FormatEPFvPvES3_
	_ZN6QImageC1EPhiiNS_6FormatEPFvPvES2_
	_ZN6QImageC1EPhiiiNS_6FormatEPFvPvES2_
	_ZN6QImageC1ERK5QSizeNS_6FormatE
	_ZN6QImageC1ERK7QStringPKc
	_ZN6QImageC1ERKS_
	_ZN6QImageC1EiiNS_6FormatE
	_ZN6QImageC1Ev
	_ZN6QImageC2EPKPKc
	_ZN6QImageC2EPKhiiNS_6FormatEPFvPvES3_
	_ZN6QImageC2EPKhiiiNS_6FormatEPFvPvES3_
	_ZN6QImageC2EPhiiNS_6FormatEPFvPvES2_
	_ZN6QImageC2EPhiiiNS_6FormatEPFvPvES2_
	_ZN6QImageC2ERK5QSizeNS_6FormatE
	_ZN6QImageC2ERK7QStringPKc
	_ZN6QImageC2ERKS_
	_ZN6QImageC2EiiNS_6FormatE
	_ZN6QImageC2Ev
	_ZN6QImageD0Ev
	_ZN6QImageD1Ev
	_ZN6QImageD2Ev
	_ZN6QImageaSERKS_
	_ZN6QMovie10scaledSizeEv
	_ZN6QMovie11jumpToFrameEi
	_ZN6QMovie11qt_metacallEN11QMetaObject4CallEiPPv
	_ZN6QMovie11qt_metacastEPKc
	_ZN6QMovie11setFileNameERK7QString
	_ZN6QMovie12frameChangedEi
	_ZN6QMovie12setCacheModeENS_9CacheModeE
	_ZN6QMovie12stateChangedENS_10MovieStateE
	_ZN6QMovie13setScaledSizeERK5QSize
	_ZN6QMovie15jumpToNextFrameEv
	_ZN6QMovie16staticMetaObjectE
	_ZN6QMovie16supportedFormatsEv
	_ZN6QMovie18qt_static_metacallEP7QObjectN11QMetaObject4CallEiPPv
	_ZN6QMovie18setBackgroundColorERK6QColor
	_ZN6QMovie4stopEv
	_ZN6QMovie5errorEN12QImageReader16ImageReaderErrorE
	_ZN6QMovie5startEv
	_ZN6QMovie7resizedERK5QSize
	_ZN6QMovie7startedEv
	_ZN6QMovie7updatedERK5QRect
	_ZN6QMovie8finishedEv
	_ZN6QMovie8setSpeedEi
	_ZN6QMovie9setDeviceEP9QIODevice
	_ZN6QMovie9setFormatERK10QByteArray
	_ZN6QMovie9setPausedEb
	_ZN6QMovieC1EP7QObject
	_ZN6QMovieC1EP9QIODeviceRK10QByteArrayP7QObject
	_ZN6QMovieC1ERK7QStringRK10QByteArrayP7QObject
	_ZN6QMovieC2EP7QObject
	_ZN6QMovieC2EP9QIODeviceRK10QByteArrayP7QObject
	_ZN6QMovieC2ERK7QStringRK10QByteArrayP7QObject
	_ZN6QMovieD0Ev
	_ZN6QMovieD1Ev
	_ZN6QMovieD2Ev
	_ZN7QBezier10fromPointsERK7QPointFS2_S2_S2_
	_ZN7QBitmap8fromDataERK5QSizePKhN6QImage6FormatE
	_ZN7QBitmap9fromImageERK6QImage6QFlagsIN2Qt19ImageConversionFlagEE
	_ZN7QBitmapC1ERK5QSize
	_ZN7QBitmapC1ERK7QPixmap
	_ZN7QBitmapC1ERK7QStringPKc
	_ZN7QBitmapC1Eii
	_ZN7QBitmapC1Ev
	_ZN7QBitmapC2ERK5QSize
	_ZN7QBitmapC2ERK7QPixmap
	_ZN7QBitmapC2ERK7QStringPKc
	_ZN7QBitmapC2Eii
	_ZN7QBitmapC2Ev
	_ZN7QBitmapD0Ev
	_ZN7QBitmapD1Ev
	_ZN7QBitmapD2Ev
	_ZN7QBitmapaSERK7QPixmap
	_ZN7QCursor3posEPK7QScreen
	_ZN7QCursor3posEv
	_ZN7QCursor6setPosEP7QScreenii
	_ZN7QCursor6setPosEii
	_ZN7QCursor8setShapeEN2Qt11CursorShapeE
	_ZN7QCursorC1EN2Qt11CursorShapeE
	_ZN7QCursorC1ERK7QBitmapS2_ii
	_ZN7QCursorC1ERK7QPixmapii
	_ZN7QCursorC1ERKS_
	_ZN7QCursorC1Ev
	_ZN7QCursorC2EN2Qt11CursorShapeE
	_ZN7QCursorC2ERK7QBitmapS2_ii
	_ZN7QCursorC2ERK7QPixmapii
	_ZN7QCursorC2ERKS_
	_ZN7QCursorC2Ev
	_ZN7QCursorD1Ev
	_ZN7QCursorD2Ev
	_ZN7QCursoraSERKS_
	_ZN7QMatrix5resetEv
	_ZN7QMatrix5scaleEdd
	_ZN7QMatrix5shearEdd
	_ZN7QMatrix6rotateEd
	_ZN7QMatrix9setMatrixEdddddd
	_ZN7QMatrix9translateEdd
	_ZN7QMatrixC1ERKS_
	_ZN7QMatrixC1Edddddd
	_ZN7QMatrixC1Ev
	_ZN7QMatrixC2ERKS_
	_ZN7QMatrixC2Edddddd
	_ZN7QMatrixC2Ev
	_ZN7QMatrixaSERKS_
	_ZN7QMatrixmLERKS_
	_ZN7QPixmap10grabWidgetEP7QObjectRK5QRect
	_ZN7QPixmap10grabWindowEyiiii
	_ZN7QPixmap10trueMatrixERK10QTransformii
	_ZN7QPixmap10trueMatrixERK7QMatrixii
	_ZN7QPixmap12defaultDepthEv
	_ZN7QPixmap12loadFromDataEPKhjPKc6QFlagsIN2Qt19ImageConversionFlagEE
	_ZN7QPixmap15fromImageReaderEP12QImageReader6QFlagsIN2Qt19ImageConversionFlagEE
	_ZN7QPixmap16convertFromImageERK6QImage6QFlagsIN2Qt19ImageConversionFlagEE
	_ZN7QPixmap16fromImageInPlaceER6QImage6QFlagsIN2Qt19ImageConversionFlagEE
	_ZN7QPixmap19setDevicePixelRatioEd
	_ZN7QPixmap4fillEPK12QPaintDeviceRK6QPoint
	_ZN7QPixmap4fillERK6QColor
	_ZN7QPixmap4loadERK7QStringPKc6QFlagsIN2Qt19ImageConversionFlagEE
	_ZN7QPixmap6detachEv
	_ZN7QPixmap6doInitEiii
	_ZN7QPixmap6scrollEiiRK5QRectP7QRegion
	_ZN7QPixmap7setMaskERK7QBitmap
	_ZN7QPixmap9fromImageERK6QImage6QFlagsIN2Qt19ImageConversionFlagEE
	_ZN7QPixmapC1EP15QPlatformPixmap
	_ZN7QPixmapC1EPKPKc
	_ZN7QPixmapC1ERK5QSize
	_ZN7QPixmapC1ERK5QSizei
	_ZN7QPixmapC1ERK7QStringPKc6QFlagsIN2Qt19ImageConversionFlagEE
	_ZN7QPixmapC1ERKS_
	_ZN7QPixmapC1Eii
	_ZN7QPixmapC1Ev
	_ZN7QPixmapC2EP15QPlatformPixmap
	_ZN7QPixmapC2EPKPKc
	_ZN7QPixmapC2ERK5QSize
	_ZN7QPixmapC2ERK5QSizei
	_ZN7QPixmapC2ERK7QStringPKc6QFlagsIN2Qt19ImageConversionFlagEE
	_ZN7QPixmapC2ERKS_
	_ZN7QPixmapC2Eii
	_ZN7QPixmapC2Ev
	_ZN7QPixmapD0Ev
	_ZN7QPixmapD1Ev
	_ZN7QPixmapD2Ev
	_ZN7QPixmapaSERKS_
	_ZN7QRegion12shared_emptyE
	_ZN7QRegion4execERK10QByteArrayiN11QDataStream9ByteOrderE
	_ZN7QRegion6detachEv
	_ZN7QRegion7cleanUpEPNS_11QRegionDataE
	_ZN7QRegion8setRectsEPK5QRecti
	_ZN7QRegion9translateEii
	_ZN7QRegionC1ERK5QRectNS_10RegionTypeE
	_ZN7QRegionC1ERK7QBitmap
	_ZN7QRegionC1ERK8QPolygonN2Qt8FillRuleE
	_ZN7QRegionC1ERKS_
	_ZN7QRegionC1EiiiiNS_10RegionTypeE
	_ZN7QRegionC1Ev
	_ZN7QRegionC2ERK5QRectNS_10RegionTypeE
	_ZN7QRegionC2ERK7QBitmap
	_ZN7QRegionC2ERK8QPolygonN2Qt8FillRuleE
	_ZN7QRegionC2ERKS_
	_ZN7QRegionC2EiiiiNS_10RegionTypeE
	_ZN7QRegionC2Ev
	_ZN7QRegionD1Ev
	_ZN7QRegionD2Ev
	_ZN7QRegionaNERK5QRect
	_ZN7QRegionaNERKS_
	_ZN7QRegionaSERKS_
	_ZN7QRegioneOERKS_
	_ZN7QRegionmIERKS_
	_ZN7QRegionoRERKS_
	_ZN7QRegionpLERK5QRect
	_ZN7QRegionpLERKS_
	_ZN7QScreen10grabWindowEyiiii
	_ZN7QScreen11qt_metacallEN11QMetaObject4CallEiPPv
	_ZN7QScreen11qt_metacastEPKc
	_ZN7QScreen15geometryChangedERK5QRect
	_ZN7QScreen16staticMetaObjectE
	_ZN7QScreen18orientationChangedEN2Qt17ScreenOrientationE
	_ZN7QScreen18qt_static_metacallEP7QObjectN11QMetaObject4CallEiPPv
	_ZN7QScreen18refreshRateChangedEd
	_ZN7QScreen19physicalSizeChangedERK6QSizeF
	_ZN7QScreen22virtualGeometryChangedERK5QRect
	_ZN7QScreen24setOrientationUpdateMaskE6QFlagsIN2Qt17ScreenOrientationEE
	_ZN7QScreen25logicalDotsPerInchChangedEd
	_ZN7QScreen25primaryOrientationChangedEN2Qt17ScreenOrientationE
	_ZN7QScreen26physicalDotsPerInchChangedEd
	_ZN7QScreenC1EP15QPlatformScreen
	_ZN7QScreenC2EP15QPlatformScreen
	_ZN7QWindow10setOpacityEd
	_ZN7QWindow10setVisibleEb
	_ZN7QWindow10showNormalEv
	_ZN7QWindow10touchEventEP11QTouchEvent
	_ZN7QWindow10wheelEventEP11QWheelEvent
	_ZN7QWindow11exposeEventEP12QExposeEvent
	_ZN7QWindow11nativeEventERK10QByteArrayPvPl
	_ZN7QWindow11qt_metacallEN11QMetaObject4CallEiPPv
	_ZN7QWindow11qt_metacastEPKc
	_ZN7QWindow11resizeEventEP12QResizeEvent
	_ZN7QWindow11setBaseSizeERK5QSize
	_ZN7QWindow11setFilePathERK7QString
	_ZN7QWindow11setGeometryERK5QRect
	_ZN7QWindow11setGeometryEiiii
	_ZN7QWindow11setModalityEN2Qt14WindowModalityE
	_ZN7QWindow11setPositionERK6QPoint
	_ZN7QWindow11setPositionEii
	_ZN7QWindow11tabletEventEP12QTabletEvent
	_ZN7QWindow11unsetCursorEv
	_ZN7QWindow12focusInEventEP11QFocusEvent
	_ZN7QWindow12widthChangedEi
	_ZN7QWindow13activeChangedEv
	_ZN7QWindow13focusOutEventEP11QFocusEvent
	_ZN7QWindow13heightChangedEi
	_ZN7QWindow13keyPressEventEP9QKeyEvent
	_ZN7QWindow13screenChangedEP7QScreen
	_ZN7QWindow13setVisibilityENS_10VisibilityE
	_ZN7QWindow13showMaximizedEv
	_ZN7QWindow13showMinimizedEv
	_ZN7QWindow14mouseMoveEventEP11QMouseEvent
	_ZN7QWindow14opacityChangedEd
	_ZN7QWindow14setMaximumSizeERK5QSize
	_ZN7QWindow14setMinimumSizeERK5QSize
	_ZN7QWindow14setSurfaceTypeEN8QSurface11SurfaceTypeE
	_ZN7QWindow14setWindowStateEN2Qt11WindowStateE
	_ZN7QWindow14showFullScreenEv
	_ZN7QWindow14visibleChangedEb
	_ZN7QWindow15keyReleaseEventEP9QKeyEvent
	_ZN7QWindow15modalityChangedEN2Qt14WindowModalityE
	_ZN7QWindow15mousePressEventEP11QMouseEvent
	_ZN7QWindow15requestActivateEv
	_ZN7QWindow15screenDestroyedEP7QObject
	_ZN7QWindow15setMaximumWidthEi
	_ZN7QWindow15setMinimumWidthEi
	_ZN7QWindow16setFramePositionERK6QPoint
	_ZN7QWindow16setMaximumHeightEi
	_ZN7QWindow16setMinimumHeightEi
	_ZN7QWindow16setSizeIncrementERK5QSize
	_ZN7QWindow16staticMetaObjectE
	_ZN7QWindow17mouseReleaseEventEP11QMouseEvent
	_ZN7QWindow17visibilityChangedENS_10VisibilityE
	_ZN7QWindow18focusObjectChangedEP7QObject
	_ZN7QWindow18qt_static_metacallEP7QObjectN11QMetaObject4CallEiPPv
	_ZN7QWindow18setTransientParentEPS_
	_ZN7QWindow18windowStateChangedEN2Qt11WindowStateE
	_ZN7QWindow18windowTitleChangedERK7QString
	_ZN7QWindow19maximumWidthChangedEi
	_ZN7QWindow19minimumWidthChangedEi
	_ZN7QWindow19setMouseGrabEnabledEb
	_ZN7QWindow20maximumHeightChangedEi
	_ZN7QWindow20minimumHeightChangedEi
	_ZN7QWindow21mouseDoubleClickEventEP11QMouseEvent
	_ZN7QWindow22setKeyboardGrabEnabledEb
	_ZN7QWindow25contentOrientationChangedEN2Qt17ScreenOrientationE
	_ZN7QWindow30reportContentOrientationChangeEN2Qt17ScreenOrientationE
	_ZN7QWindow4hideEv
	_ZN7QWindow4setXEi
	_ZN7QWindow4setYEi
	_ZN7QWindow4showEv
	_ZN7QWindow5alertEi
	_ZN7QWindow5closeEv
	_ZN7QWindow5eventEP6QEvent
	_ZN7QWindow5lowerEv
	_ZN7QWindow5raiseEv
	_ZN7QWindow6createEv
	_ZN7QWindow6resizeERK5QSize
	_ZN7QWindow6resizeEii
	_ZN7QWindow7destroyEv
	_ZN7QWindow7setIconERK5QIcon
	_ZN7QWindow7setMaskERK7QRegion
	_ZN7QWindow8setFlagsE6QFlagsIN2Qt10WindowTypeEE
	_ZN7QWindow8setTitleERK7QString
	_ZN7QWindow8setWidthEi
	_ZN7QWindow8xChangedEi
	_ZN7QWindow8yChangedEi
	_ZN7QWindow9fromWinIdEy
	_ZN7QWindow9hideEventEP10QHideEvent
	_ZN7QWindow9moveEventEP10QMoveEvent
	_ZN7QWindow9setCursorERK7QCursor
	_ZN7QWindow9setFormatERK14QSurfaceFormat
	_ZN7QWindow9setHeightEi
	_ZN7QWindow9setParentEPS_
	_ZN7QWindow9setScreenEP7QScreen
	_ZN7QWindow9showEventEP10QShowEvent
	_ZN7QWindowC1EP7QScreen
	_ZN7QWindowC1EPS_
	_ZN7QWindowC1ER14QWindowPrivatePS_
	_ZN7QWindowC2EP7QScreen
	_ZN7QWindowC2EPS_
	_ZN7QWindowC2ER14QWindowPrivatePS_
	_ZN7QWindowD0Ev
	_ZN7QWindowD1Ev
	_ZN7QWindowD2Ev
	_ZN8QPainter10drawPixmapERK6QRectFRK7QPixmapS2_
	_ZN8QPainter10drawPixmapERK7QPointFRK7QPixmap
	_ZN8QPainter10drawPointsEPK6QPointi
	_ZN8QPainter10drawPointsEPK7QPointFi
	_ZN8QPainter10redirectedEPK12QPaintDeviceP6QPoint
	_ZN8QPainter10setOpacityEd
	_ZN8QPainter10strokePathERK12QPainterPathRK4QPen
	_ZN8QPainter11drawEllipseERK5QRect
	_ZN8QPainter11drawEllipseERK6QRectF
	_ZN8QPainter11drawPictureERK7QPointFRK8QPicture
	_ZN8QPainter11drawPolygonEPK6QPointiN2Qt8FillRuleE
	_ZN8QPainter11drawPolygonEPK7QPointFiN2Qt8FillRuleE
	_ZN8QPainter11resetMatrixEv
	_ZN8QPainter11setClipPathERK12QPainterPathN2Qt13ClipOperationE
	_ZN8QPainter11setClipRectERK5QRectN2Qt13ClipOperationE
	_ZN8QPainter11setClipRectERK6QRectFN2Qt13ClipOperationE
	_ZN8QPainter11setClippingEb
	_ZN8QPainter11setViewportERK5QRect
	_ZN8QPainter12boundingRectERK5QRectiRK7QString
	_ZN8QPainter12boundingRectERK6QRectFRK7QStringRK11QTextOption
	_ZN8QPainter12boundingRectERK6QRectFiRK7QString
	_ZN8QPainter12drawGlyphRunERK7QPointFRK9QGlyphRun
	_ZN8QPainter12drawPolylineEPK6QPointi
	_ZN8QPainter12drawPolylineEPK7QPointFi
	_ZN8QPainter12drawTextItemERK7QPointFRK9QTextItem
	_ZN8QPainter12setTransformERK10QTransformb
	_ZN8QPainter13drawRoundRectERK6QRectFii
	_ZN8QPainter13setBackgroundERK6QBrush
	_ZN8QPainter13setClipRegionERK7QRegionN2Qt13ClipOperationE
	_ZN8QPainter13setRedirectedEPK12QPaintDevicePS0_RK6QPoint
	_ZN8QPainter13setRenderHintENS_10RenderHintEb
	_ZN8QPainter14PixmapFragment6createERK7QPointFRK6QRectFdddd
	_ZN8QPainter14drawStaticTextERK7QPointFRK11QStaticText
	_ZN8QPainter14resetTransformEv
	_ZN8QPainter14setBrushOriginERK7QPointF
	_ZN8QPainter14setRenderHintsE6QFlagsINS_10RenderHintEEb
	_ZN8QPainter14setWorldMatrixERK7QMatrixb
	_ZN8QPainter15drawRoundedRectERK6QRectFddN2Qt8SizeModeE
	_ZN8QPainter15drawTiledPixmapERK6QRectFRK7QPixmapRK7QPointF
	_ZN8QPainter16setMatrixEnabledEb
	_ZN8QPainter16staticMetaObjectE
	_ZN8QPainter17drawConvexPolygonEPK6QPointi
	_ZN8QPainter17drawConvexPolygonEPK7QPointFi
	_ZN8QPainter17endNativePaintingEv
	_ZN8QPainter17restoreRedirectedEPK12QPaintDevice
	_ZN8QPainter17setBackgroundModeEN2Qt6BGModeE
	_ZN8QPainter17setWorldTransformERK10QTransformb
	_ZN8QPainter18setCompositionModeENS_15CompositionModeE
	_ZN8QPainter18setLayoutDirectionEN2Qt15LayoutDirectionE
	_ZN8QPainter19beginNativePaintingEv
	_ZN8QPainter19drawPixmapFragmentsEPKNS_14PixmapFragmentEiRK7QPixmap6QFlagsINS_18PixmapFragmentHintEE
	_ZN8QPainter21setWorldMatrixEnabledEb
	_ZN8QPainter23setViewTransformEnabledEb
	_ZN8QPainter3endEv
	_ZN8QPainter4saveEv
	_ZN8QPainter5beginEP12QPaintDevice
	_ZN8QPainter5scaleEdd
	_ZN8QPainter5shearEdd
	_ZN8QPainter6rotateEd
	_ZN8QPainter6setPenEN2Qt8PenStyleE
	_ZN8QPainter6setPenERK4QPen
	_ZN8QPainter6setPenERK6QColor
	_ZN8QPainter7drawArcERK6QRectFii
	_ZN8QPainter7drawPieERK6QRectFii
	_ZN8QPainter7restoreEv
	_ZN8QPainter7setFontERK5QFont
	_ZN8QPainter8drawPathERK12QPainterPath
	_ZN8QPainter8drawTextERK5QRectiRK7QStringPS0_
	_ZN8QPainter8drawTextERK6QRectFRK7QStringRK11QTextOption
	_ZN8QPainter8drawTextERK6QRectFiRK7QStringPS0_
	_ZN8QPainter8drawTextERK7QPointFRK7QString
	_ZN8QPainter8drawTextERK7QPointFRK7QStringii
	_ZN8QPainter8fillPathERK12QPainterPathRK6QBrush
	_ZN8QPainter8fillRectERK5QRectRK6QBrush
	_ZN8QPainter8fillRectERK5QRectRK6QColor
	_ZN8QPainter8fillRectERK6QRectFRK6QBrush
	_ZN8QPainter8fillRectERK6QRectFRK6QColor
	_ZN8QPainter8initFromEPK12QPaintDevice
	_ZN8QPainter8setBrushEN2Qt10BrushStyleE
	_ZN8QPainter8setBrushERK6QBrush
	_ZN8QPainter9drawChordERK6QRectFii
	_ZN8QPainter9drawImageERK6QRectFRK6QImageS2_6QFlagsIN2Qt19ImageConversionFlagEE
	_ZN8QPainter9drawImageERK7QPointFRK6QImage
	_ZN8QPainter9drawLinesEPK5QLinei
	_ZN8QPainter9drawLinesEPK6QLineFi
	_ZN8QPainter9drawLinesEPK6QPointi
	_ZN8QPainter9drawLinesEPK7QPointFi
	_ZN8QPainter9drawRectsEPK5QRecti
	_ZN8QPainter9drawRectsEPK6QRectFi
	_ZN8QPainter9eraseRectERK6QRectF
	_ZN8QPainter9setMatrixERK7QMatrixb
	_ZN8QPainter9setWindowERK5QRect
	_ZN8QPainter9translateERK7QPointF
	_ZN8QPainterC1EP12QPaintDevice
	_ZN8QPainterC1Ev
	_ZN8QPainterC2EP12QPaintDevice
	_ZN8QPainterC2Ev
	_ZN8QPainterD1Ev
	_ZN8QPainterD2Ev
	_ZN8QPalette13setColorGroupENS_10ColorGroupERK6QBrushS3_S3_S3_S3_S3_S3_S3_S3_
	_ZN8QPalette13setColorGroupENS_10ColorGroupERK6QBrushS3_S3_S3_S3_S3_S3_S3_S3_S3_S3_S3_S3_S3_S3_S3_S3_
	_ZN8QPalette13setColorGroupENS_10ColorGroupERK6QBrushS3_S3_S3_S3_S3_S3_S3_S3_S3_S3_S3_S3_S3_S3_S3_S3_S3_S3_
	_ZN8QPalette16staticMetaObjectE
	_ZN8QPalette4initEv
	_ZN8QPalette6detachEv
	_ZN8QPalette8setBrushENS_10ColorGroupENS_9ColorRoleERK6QBrush
	_ZN8QPaletteC1EN2Qt11GlobalColorE
	_ZN8QPaletteC1ERK6QBrushS2_S2_S2_S2_S2_S2_S2_S2_
	_ZN8QPaletteC1ERK6QColor
	_ZN8QPaletteC1ERK6QColorS2_
	_ZN8QPaletteC1ERK6QColorS2_S2_S2_S2_S2_S2_
	_ZN8QPaletteC1ERKS_
	_ZN8QPaletteC1Ev
	_ZN8QPaletteC2EN2Qt11GlobalColorE
	_ZN8QPaletteC2ERK6QBrushS2_S2_S2_S2_S2_S2_S2_S2_
	_ZN8QPaletteC2ERK6QColor
	_ZN8QPaletteC2ERK6QColorS2_
	_ZN8QPaletteC2ERK6QColorS2_S2_S2_S2_S2_S2_
	_ZN8QPaletteC2ERKS_
	_ZN8QPaletteC2Ev
	_ZN8QPaletteD1Ev
	_ZN8QPaletteD2Ev
	_ZN8QPaletteaSERKS_
	_ZN8QPicture12inputFormatsEv
	_ZN8QPicture13outputFormatsEv
	_ZN8QPicture13pictureFormatERK7QString
	_ZN8QPicture15inputFormatListEv
	_ZN8QPicture15setBoundingRectERK5QRect
	_ZN8QPicture16outputFormatListEv
	_ZN8QPicture4execEP8QPainterR11QDataStreami
	_ZN8QPicture4loadEP9QIODevicePKc
	_ZN8QPicture4loadERK7QStringPKc
	_ZN8QPicture4playEP8QPainter
	_ZN8QPicture4saveEP9QIODevicePKc
	_ZN8QPicture4saveERK7QStringPKc
	_ZN8QPicture6detachEv
	_ZN8QPicture7setDataEPKcj
	_ZN8QPictureC1ER15QPicturePrivate
	_ZN8QPictureC1ERKS_
	_ZN8QPictureC1Ei
	_ZN8QPictureC2ER15QPicturePrivate
	_ZN8QPictureC2ERKS_
	_ZN8QPictureC2Ei
	_ZN8QPictureD0Ev
	_ZN8QPictureD1Ev
	_ZN8QPictureD2Ev
	_ZN8QPictureaSERKS_
	_ZN8QPolygon9putPointsEiiPKi
	_ZN8QPolygon9putPointsEiiRKS_i
	_ZN8QPolygon9putPointsEiiiiz
	_ZN8QPolygon9setPointsEiPKi
	_ZN8QPolygon9setPointsEiiiz
	_ZN8QPolygon9translateEii
	_ZN8QPolygonC1ERK5QRectb
	_ZN8QPolygonC1EiPKi
	_ZN8QPolygonC2ERK5QRectb
	_ZN8QPolygonC2EiPKi
	_ZN8QRawFont12loadFromDataERK10QByteArraydN5QFont17HintingPreferenceE
	_ZN8QRawFont12loadFromFileERK7QStringdN5QFont17HintingPreferenceE
	_ZN8QRawFont12setPixelSizeEd
	_ZN8QRawFont8fromFontERK5QFontN13QFontDatabase13WritingSystemE
	_ZN8QRawFontC1ERK10QByteArraydN5QFont17HintingPreferenceE
	_ZN8QRawFontC1ERK7QStringdN5QFont17HintingPreferenceE
	_ZN8QRawFontC1ERKS_
	_ZN8QRawFontC1Ev
	_ZN8QRawFontC2ERK10QByteArraydN5QFont17HintingPreferenceE
	_ZN8QRawFontC2ERK7QStringdN5QFont17HintingPreferenceE
	_ZN8QRawFontC2ERKS_
	_ZN8QRawFontC2Ev
	_ZN8QRawFontD1Ev
	_ZN8QRawFontD2Ev
	_ZN8QRawFontaSERKS_
	_ZN8QStroker10joinPointsEddRK6QLineFNS_12LineJoinModeE
	_ZN8QStroker14capForJoinModeENS_12LineJoinModeE
	_ZN8QStroker14joinModeForCapEN2Qt11PenCapStyleE
	_ZN8QStroker15joinForJoinModeENS_12LineJoinModeE
	_ZN8QStroker15joinModeForJoinEN2Qt12PenJoinStyleE
	_ZN8QStroker21processCurrentSubpathEv
	_ZN8QStrokerC1Ev
	_ZN8QStrokerC2Ev
	_ZN8QStrokerD0Ev
	_ZN8QStrokerD1Ev
	_ZN8QStrokerD2Ev
	_ZN8QSurfaceC1ENS_12SurfaceClassE
	_ZN8QSurfaceC2ENS_12SurfaceClassE
	_ZN8QSurfaceD0Ev
	_ZN8QSurfaceD1Ev
	_ZN8QSurfaceD2Ev
	_ZN9QFontInfoC1ERK5QFont
	_ZN9QFontInfoC1ERKS_
	_ZN9QFontInfoC2ERK5QFont
	_ZN9QFontInfoC2ERKS_
	_ZN9QFontInfoD1Ev
	_ZN9QFontInfoD2Ev
	_ZN9QFontInfoaSERKS_
	_ZN9QGlyphRun10setRawDataEPKjPK7QPointFi
	_ZN9QGlyphRun10setRawFontERK8QRawFont
	_ZN9QGlyphRun11setOverlineEb
	_ZN9QGlyphRun12setPositionsERK7QVectorI7QPointFE
	_ZN9QGlyphRun12setStrikeOutEb
	_ZN9QGlyphRun12setUnderlineEb
	_ZN9QGlyphRun14setRightToLeftEb
	_ZN9QGlyphRun15setBoundingRectERK6QRectF
	_ZN9QGlyphRun15setGlyphIndexesERK7QVectorIjE
	_ZN9QGlyphRun5clearEv
	_ZN9QGlyphRun6detachEv
	_ZN9QGlyphRun7setFlagENS_12GlyphRunFlagEb
	_ZN9QGlyphRun8setFlagsE6QFlagsINS_12GlyphRunFlagEE
	_ZN9QGlyphRunC1ERKS_
	_ZN9QGlyphRunC1Ev
	_ZN9QGlyphRunC2ERKS_
	_ZN9QGlyphRunC2Ev
	_ZN9QGlyphRunD1Ev
	_ZN9QGlyphRunD2Ev
	_ZN9QGlyphRunaSERKS_
	_ZN9QGradient10setColorAtEdRK6QColor
	_ZN9QGradient16staticMetaObjectE
	_ZN9QGradient17setCoordinateModeENS_14CoordinateModeE
	_ZN9QGradient20setInterpolationModeENS_17InterpolationModeE
	_ZN9QGradient8setStopsERK7QVectorI5QPairId6QColorEE
	_ZN9QGradientC1Ev
	_ZN9QGradientC2Ev
	_ZN9QKeyEventC1EN6QEvent4TypeEi6QFlagsIN2Qt16KeyboardModifierEERK7QStringbt
	_ZN9QKeyEventC1EN6QEvent4TypeEi6QFlagsIN2Qt16KeyboardModifierEEjjjRK7QStringbt
	_ZN9QKeyEventC2EN6QEvent4TypeEi6QFlagsIN2Qt16KeyboardModifierEERK7QStringbt
	_ZN9QKeyEventC2EN6QEvent4TypeEi6QFlagsIN2Qt16KeyboardModifierEEjjjRK7QStringbt
	_ZN9QKeyEventD0Ev
	_ZN9QKeyEventD1Ev
	_ZN9QKeyEventD2Ev
	_ZN9QPageSize10sizePixelsENS_10PageSizeIdEi
	_ZN9QPageSize10sizePointsENS_10PageSizeIdE
	_ZN9QPageSize14definitionSizeENS_10PageSizeIdE
	_ZN9QPageSize15definitionUnitsENS_10PageSizeIdE
	_ZN9QPageSize2idERK5QSizeNS_15SizeMatchPolicyE
	_ZN9QPageSize2idERK6QSizeFNS_4UnitENS_15SizeMatchPolicyE
	_ZN9QPageSize2idEi
	_ZN9QPageSize3keyENS_10PageSizeIdE
	_ZN9QPageSize4nameENS_10PageSizeIdE
	_ZN9QPageSize4sizeENS_10PageSizeIdENS_4UnitE
	_ZN9QPageSize9windowsIdENS_10PageSizeIdE
	_ZN9QPageSizeC1ENS_10PageSizeIdE
	_ZN9QPageSizeC1ER16QPageSizePrivate
	_ZN9QPageSizeC1ERK5QSizeRK7QStringNS_15SizeMatchPolicyE
	_ZN9QPageSizeC1ERK6QSizeFNS_4UnitERK7QStringNS_15SizeMatchPolicyE
	_ZN9QPageSizeC1ERK7QStringRK5QSizeS2_
	_ZN9QPageSizeC1ERKS_
	_ZN9QPageSizeC1EiRK5QSizeRK7QString
	_ZN9QPageSizeC1Ev
	_ZN9QPageSizeC2ENS_10PageSizeIdE
	_ZN9QPageSizeC2ER16QPageSizePrivate
	_ZN9QPageSizeC2ERK5QSizeRK7QStringNS_15SizeMatchPolicyE
	_ZN9QPageSizeC2ERK6QSizeFNS_4UnitERK7QStringNS_15SizeMatchPolicyE
	_ZN9QPageSizeC2ERK7QStringRK5QSizeS2_
	_ZN9QPageSizeC2ERKS_
	_ZN9QPageSizeC2EiRK5QSizeRK7QString
	_ZN9QPageSizeC2Ev
	_ZN9QPageSizeD1Ev
	_ZN9QPageSizeD2Ev
	_ZN9QPageSizeaSERKS_
	_ZN9QPolygonF9translateERK7QPointF
	_ZN9QPolygonFC1ERK6QRectF
	_ZN9QPolygonFC1ERK8QPolygon
	_ZN9QPolygonFC2ERK6QRectF
	_ZN9QPolygonFC2ERK8QPolygon
	_ZN9QTextLine11setPositionERK7QPointF
	_ZN9QTextLine12setLineWidthEd
	_ZN9QTextLine13layout_helperEi
	_ZN9QTextLine13setNumColumnsEi
	_ZN9QTextLine13setNumColumnsEid
	_ZN9QTextLine18setLeadingIncludedEb
	_ZN9QTextList10removeItemEi
	_ZN9QTextList11qt_metacallEN11QMetaObject4CallEiPPv
	_ZN9QTextList11qt_metacastEPKc
	_ZN9QTextList16staticMetaObjectE
	_ZN9QTextList18qt_static_metacallEP7QObjectN11QMetaObject4CallEiPPv
	_ZN9QTextList3addERK10QTextBlock
	_ZN9QTextList6removeERK10QTextBlock
	_ZN9QTextListC1EP13QTextDocument
	_ZN9QTextListC2EP13QTextDocument
	_ZN9QTextListD0Ev
	_ZN9QTextListD1Ev
	_ZN9QTextListD2Ev
	_ZN9QVector2D10dotProductERKS_S1_
	_ZN9QVector2D9normalizeEv
	_ZN9QVector2DC1ERK9QVector3D
	_ZN9QVector2DC1ERK9QVector4D
	_ZN9QVector2DC2ERK9QVector3D
	_ZN9QVector2DC2ERK9QVector4D
	_ZN9QVector3D10dotProductERKS_S1_
	_ZN9QVector3D12crossProductERKS_S1_
	_ZN9QVector3D6normalERKS_S1_
	_ZN9QVector3D6normalERKS_S1_S1_
	_ZN9QVector3D9normalizeEv
	_ZN9QVector3DC1ERK9QVector2D
	_ZN9QVector3DC1ERK9QVector2Df
	_ZN9QVector3DC1ERK9QVector4D
	_ZN9QVector3DC2ERK9QVector2D
	_ZN9QVector3DC2ERK9QVector2Df
	_ZN9QVector3DC2ERK9QVector4D
	_ZN9QVector4D10dotProductERKS_S1_
	_ZN9QVector4D9normalizeEv
	_ZN9QVector4DC1ERK9QVector2D
	_ZN9QVector4DC1ERK9QVector2Dff
	_ZN9QVector4DC1ERK9QVector3D
	_ZN9QVector4DC1ERK9QVector3Df
	_ZN9QVector4DC2ERK9QVector2D
	_ZN9QVector4DC2ERK9QVector2Dff
	_ZN9QVector4DC2ERK9QVector3D
	_ZN9QVector4DC2ERK9QVector3Df
	_ZNK10QBlittable12capabilitiesEv
	_ZNK10QBlittable4sizeEv
	_ZNK10QBlittable8isLockedEv
	_ZNK10QClipboard10metaObjectEv
	_ZNK10QClipboard12supportsModeENS_4ModeE
	_ZNK10QClipboard13ownsClipboardEv
	_ZNK10QClipboard13ownsSelectionEv
	_ZNK10QClipboard14ownsFindBufferEv
	_ZNK10QClipboard17supportsSelectionEv
	_ZNK10QClipboard18supportsFindBufferEv
	_ZNK10QClipboard4textENS_4ModeE
	_ZNK10QClipboard4textER7QStringNS_4ModeE
	_ZNK10QClipboard5imageENS_4ModeE
	_ZNK10QClipboard6pixmapENS_4ModeE
	_ZNK10QClipboard8mimeDataENS_4ModeE
	_ZNK10QClipboard8ownsModeENS_4ModeE
	_ZNK10QDropEvent6sourceEv
	_ZNK10QImageData19checkForAlphaPixelsEv
	_ZNK10QImageData9doImageIOEPK6QImageP12QImageWriteri
	_ZNK10QKeyMapper10metaObjectEv
	_ZNK10QMatrix4x410copyDataToEPf
	_ZNK10QMatrix4x410transposedEv
	_ZNK10QMatrix4x411determinantEv
	_ZNK10QMatrix4x411toTransformEf
	_ZNK10QMatrix4x411toTransformEv
	_ZNK10QMatrix4x412normalMatrixEv
	_ZNK10QMatrix4x418orthonormalInverseEv
	_ZNK10QMatrix4x47mapRectERK5QRect
	_ZNK10QMatrix4x47mapRectERK6QRectF
	_ZNK10QMatrix4x48invertedEPb
	_ZNK10QMatrix4x48toAffineEv
	_ZNK10QMatrix4x4cv8QVariantEv
	_ZNK10QPdfEngine10pageLayoutEv
	_ZNK10QPdfEngine10resolutionEv
	_ZNK10QPdfEngine4typeEv
	_ZNK10QPdfEngine6metricEN12QPaintDevice17PaintDeviceMetricE
	_ZNK10QPdfWriter10metaObjectEv
	_ZNK10QPdfWriter10resolutionEv
	_ZNK10QPdfWriter11paintEngineEv
	_ZNK10QPdfWriter5titleEv
	_ZNK10QPdfWriter6metricEN12QPaintDevice17PaintDeviceMetricE
	_ZNK10QPdfWriter7creatorEv
	_ZNK10QPictureIO10parametersEv
	_ZNK10QPictureIO11descriptionEv
	_ZNK10QPictureIO5gammaEv
	_ZNK10QPictureIO6formatEv
	_ZNK10QPictureIO6statusEv
	_ZNK10QPictureIO7pictureEv
	_ZNK10QPictureIO7qualityEv
	_ZNK10QPictureIO8fileNameEv
	_ZNK10QPictureIO8ioDeviceEv
	_ZNK10QTextBlock10charFormatEv
	_ZNK10QTextBlock11blockFormatEv
	_ZNK10QTextBlock11blockNumberEv
	_ZNK10QTextBlock11textFormatsEv
	_ZNK10QTextBlock13textDirectionEv
	_ZNK10QTextBlock15charFormatIndexEv
	_ZNK10QTextBlock15firstLineNumberEv
	_ZNK10QTextBlock16blockFormatIndexEv
	_ZNK10QTextBlock3endEv
	_ZNK10QTextBlock4nextEv
	_ZNK10QTextBlock4textEv
	_ZNK10QTextBlock5beginEv
	_ZNK10QTextBlock6layoutEv
	_ZNK10QTextBlock6lengthEv
	_ZNK10QTextBlock7isValidEv
	_ZNK10QTextBlock8containsEi
	_ZNK10QTextBlock8documentEv
	_ZNK10QTextBlock8iterator8fragmentEv
	_ZNK10QTextBlock8positionEv
	_ZNK10QTextBlock8previousEv
	_ZNK10QTextBlock8revisionEv
	_ZNK10QTextBlock8textListEv
	_ZNK10QTextBlock8userDataEv
	_ZNK10QTextBlock9isVisibleEv
	_ZNK10QTextBlock9lineCountEv
	_ZNK10QTextBlock9userStateEv
	_ZNK10QTextFrame10layoutDataEv
	_ZNK10QTextFrame10metaObjectEv
	_ZNK10QTextFrame11childFramesEv
	_ZNK10QTextFrame11parentFrameEv
	_ZNK10QTextFrame12lastPositionEv
	_ZNK10QTextFrame13firstPositionEv
	_ZNK10QTextFrame18lastCursorPositionEv
	_ZNK10QTextFrame19firstCursorPositionEv
	_ZNK10QTextFrame3endEv
	_ZNK10QTextFrame5beginEv
	_ZNK10QTextFrame8iterator12currentBlockEv
	_ZNK10QTextFrame8iterator12currentFrameEv
	_ZNK10QTextTable10metaObjectEv
	_ZNK10QTextTable4rowsEv
	_ZNK10QTextTable6cellAtERK11QTextCursor
	_ZNK10QTextTable6cellAtEi
	_ZNK10QTextTable6cellAtEii
	_ZNK10QTextTable6formatEv
	_ZNK10QTextTable6rowEndERK11QTextCursor
	_ZNK10QTextTable7columnsEv
	_ZNK10QTextTable8rowStartERK11QTextCursor
	_ZNK10QTransform10transposedEv
	_ZNK10QTransform12mapToPolygonERK5QRect
	_ZNK10QTransform3mapERK12QPainterPath
	_ZNK10QTransform3mapERK5QLine
	_ZNK10QTransform3mapERK6QLineF
	_ZNK10QTransform3mapERK6QPoint
	_ZNK10QTransform3mapERK7QPointF
	_ZNK10QTransform3mapERK7QRegion
	_ZNK10QTransform3mapERK8QPolygon
	_ZNK10QTransform3mapERK9QPolygonF
	_ZNK10QTransform3mapEddPdS0_
	_ZNK10QTransform3mapEiiPiS0_
	_ZNK10QTransform4typeEv
	_ZNK10QTransform7adjointEv
	_ZNK10QTransform7mapRectERK5QRect
	_ZNK10QTransform7mapRectERK6QRectF
	_ZNK10QTransform8invertedEPb
	_ZNK10QTransform8toAffineEv
	_ZNK10QTransformcv8QVariantEv
	_ZNK10QTransformeqERKS_
	_ZNK10QTransformmlERKS_
	_ZNK10QTransformneERKS_
	_ZNK10QValidator10metaObjectEv
	_ZNK10QValidator5fixupER7QString
	_ZNK10QValidator6localeEv
	_ZNK10QZipReader10extractAllERK7QString
	_ZNK10QZipReader10isReadableEv
	_ZNK10QZipReader11entryInfoAtEi
	_ZNK10QZipReader12fileInfoListEv
	_ZNK10QZipReader5countEv
	_ZNK10QZipReader6deviceEv
	_ZNK10QZipReader6existsEv
	_ZNK10QZipReader6statusEv
	_ZNK10QZipReader8FileInfo7isValidEv
	_ZNK10QZipReader8fileDataERK7QString
	_ZNK10QZipWriter10isWritableEv
	_ZNK10QZipWriter17compressionPolicyEv
	_ZNK10QZipWriter19creationPermissionsEv
	_ZNK10QZipWriter6deviceEv
	_ZNK10QZipWriter6existsEv
	_ZNK10QZipWriter6statusEv
	_ZNK11QFocusEvent6reasonEv
	_ZNK11QFontEngine10glyphCacheEPKvNS_11GlyphFormatERK10QTransform
	_ZNK11QFontEngine10glyphCountEv
	_ZNK11QFontEngine10propertiesEv
	_ZNK11QFontEngine11synthesizedEv
	_ZNK11QFontEngine12emSquareSizeEv
	_ZNK11QFontEngine12getSfntTableEj
	_ZNK11QFontEngine12harfbuzzFaceEv
	_ZNK11QFontEngine12harfbuzzFontEv
	_ZNK11QFontEngine13cloneWithSizeEd
	_ZNK11QFontEngine13lineThicknessEv
	_ZNK11QFontEngine14minLeftBearingEv
	_ZNK11QFontEngine14recalcAdvancesEP12QGlyphLayout6QFlagsINS_10ShaperFlagEE
	_ZNK11QFontEngine14supportsScriptEN5QChar6ScriptE
	_ZNK11QFontEngine15minRightBearingEv
	_ZNK11QFontEngine16averageCharWidthEv
	_ZNK11QFontEngine16getSfntTableDataEjPhPj
	_ZNK11QFontEngine17underlinePositionEv
	_ZNK11QFontEngine18hasInternalCachingEv
	_ZNK11QFontEngine20subPixelPositionForXE6QFixed
	_ZNK11QFontEngine22supportsTransformationERK10QTransform
	_ZNK11QFontEngine25hasUnreliableGlyphOutlineEv
	_ZNK11QFontEngine25supportsSubPixelPositionsEv
	_ZNK11QFontEngine6faceIdEv
	_ZNK11QFontEngine7xHeightEv
	_ZNK11QFontEngine9canRenderEPK5QChari
	_ZNK11QFontEngine9doKerningEP12QGlyphLayout6QFlagsINS_10ShaperFlagEE
	_ZNK11QIconEngine14availableSizesEN5QIcon4ModeENS0_5StateE
	_ZNK11QIconEngine3keyEv
	_ZNK11QIconEngine5writeER11QDataStream
	_ZNK11QIconEngine8iconNameEv
	_ZNK11QIconLoader14findIconHelperERK7QStringS2_R11QStringList
	_ZNK11QIconLoader16themeSearchPathsEv
	_ZNK11QIconLoader8loadIconERK7QString
	_ZNK11QMouseEvent5flagsEv
	_ZNK11QMouseEvent6sourceEv
	_ZNK11QPageLayout11orientationEv
	_ZNK11QPageLayout13marginsPixelsEi
	_ZNK11QPageLayout13marginsPointsEv
	_ZNK11QPageLayout14fullRectPixelsEi
	_ZNK11QPageLayout14fullRectPointsEv
	_ZNK11QPageLayout14isEquivalentToERKS_
	_ZNK11QPageLayout14maximumMarginsEv
	_ZNK11QPageLayout14minimumMarginsEv
	_ZNK11QPageLayout15paintRectPixelsEi
	_ZNK11QPageLayout15paintRectPointsEv
	_ZNK11QPageLayout4modeEv
	_ZNK11QPageLayout5unitsEv
	_ZNK11QPageLayout7isValidEv
	_ZNK11QPageLayout7marginsENS_4UnitE
	_ZNK11QPageLayout7marginsEv
	_ZNK11QPageLayout8fullRectENS_4UnitE
	_ZNK11QPageLayout8fullRectEv
	_ZNK11QPageLayout8pageSizeEv
	_ZNK11QPageLayout9paintRectENS_4UnitE
	_ZNK11QPageLayout9paintRectEv
	_ZNK11QQuaternion10normalizedEv
	_ZNK11QQuaternion13lengthSquaredEv
	_ZNK11QQuaternion13rotatedVectorERK9QVector3D
	_ZNK11QQuaternion6lengthEv
	_ZNK11QQuaternioncv8QVariantEv
	_ZNK11QStaticText10textFormatEv
	_ZNK11QStaticText10textOptionEv
	_ZNK11QStaticText15performanceHintEv
	_ZNK11QStaticText4sizeEv
	_ZNK11QStaticText4textEv
	_ZNK11QStaticText9textWidthEv
	_ZNK11QStaticTexteqERKS_
	_ZNK11QStaticTextneERKS_
	_ZNK11QStyleHints10metaObjectEv
	_ZNK11QStyleHints13startDragTimeEv
	_ZNK11QStyleHints15cursorFlashTimeEv
	_ZNK11QStyleHints16showIsFullScreenEv
	_ZNK11QStyleHints16useRtlExtensionsEv
	_ZNK11QStyleHints17passwordMaskDelayEv
	_ZNK11QStyleHints17startDragDistanceEv
	_ZNK11QStyleHints17startDragVelocityEv
	_ZNK11QStyleHints18fontSmoothingGammaEv
	_ZNK11QStyleHints21keyboardInputIntervalEv
	_ZNK11QStyleHints21passwordMaskCharacterEv
	_ZNK11QStyleHints22keyboardAutoRepeatRateEv
	_ZNK11QStyleHints22setFocusOnTouchReleaseEv
	_ZNK11QStyleHints24mouseDoubleClickIntervalEv
	_ZNK11QStyleHints25mousePressAndHoldIntervalEv
	_ZNK11QTextCursor10atBlockEndEv
	_ZNK11QTextCursor10charFormatEv
	_ZNK11QTextCursor11blockFormatEv
	_ZNK11QTextCursor11blockNumberEv
	_ZNK11QTextCursor11currentListEv
	_ZNK11QTextCursor12atBlockStartEv
	_ZNK11QTextCursor12columnNumberEv
	_ZNK11QTextCursor12currentFrameEv
	_ZNK11QTextCursor12currentTableEv
	_ZNK11QTextCursor12hasSelectionEv
	_ZNK11QTextCursor12selectedTextEv
	_ZNK11QTextCursor12selectionEndEv
	_ZNK11QTextCursor14selectionStartEv
	_ZNK11QTextCursor15blockCharFormatEv
	_ZNK11QTextCursor15positionInBlockEv
	_ZNK11QTextCursor16visualNavigationEv
	_ZNK11QTextCursor17verticalMovementXEv
	_ZNK11QTextCursor18selectedTableCellsEPiS0_S0_S0_
	_ZNK11QTextCursor19hasComplexSelectionEv
	_ZNK11QTextCursor20keepPositionOnInsertEv
	_ZNK11QTextCursor5atEndEv
	_ZNK11QTextCursor5blockEv
	_ZNK11QTextCursor6anchorEv
	_ZNK11QTextCursor6isNullEv
	_ZNK11QTextCursor7atStartEv
	_ZNK11QTextCursor8documentEv
	_ZNK11QTextCursor8isCopyOfERKS_
	_ZNK11QTextCursor8positionEv
	_ZNK11QTextCursor9selectionEv
	_ZNK11QTextCursoreqERKS_
	_ZNK11QTextCursorgeERKS_
	_ZNK11QTextCursorgtERKS_
	_ZNK11QTextCursorleERKS_
	_ZNK11QTextCursorltERKS_
	_ZNK11QTextCursorneERKS_
	_ZNK11QTextEngine10attributesEv
	_ZNK11QTextEngine10elidedTextEN2Qt13TextElideModeERK6QFixediii
	_ZNK11QTextEngine10fontEngineERK11QScriptItemP6QFixedS4_S4_
	_ZNK11QTextEngine11boundingBoxEii
	_ZNK11QTextEngine11formatIndexEPK11QScriptItem
	_ZNK11QTextEngine11setBoundaryEi
	_ZNK11QTextEngine13isRightToLeftEv
	_ZNK11QTextEngine15atWordSeparatorEi
	_ZNK11QTextEngine16tightBoundingBoxEii
	_ZNK11QTextEngine17calculateTabWidthEi6QFixed
	_ZNK11QTextEngine19nextLogicalPositionEi
	_ZNK11QTextEngine21addRequiredBoundariesEv
	_ZNK11QTextEngine21shapeTextWithHarfbuzzERK11QScriptItemPKtiP11QFontEngineRK7QVectorIjEb
	_ZNK11QTextEngine23previousLogicalPositionEi
	_ZNK11QTextEngine23shapeTextWithHarfbuzzNGERK11QScriptItemPKtiP11QFontEngineRK7QVectorIjEb
	_ZNK11QTextEngine24resolveAdditionalFormatsEv
	_ZNK11QTextEngine4fontERK11QScriptItem
	_ZNK11QTextEngine5shapeEi
	_ZNK11QTextEngine5widthEii
	_ZNK11QTextEngine6formatEPK11QScriptItem
	_ZNK11QTextEngine7atSpaceEi
	_ZNK11QTextEngine7itemizeEv
	_ZNK11QTextEngine8findItemEi
	_ZNK11QTextEngine8validateEv
	_ZNK11QTextEngine9shapeTextEi
	_ZNK11QTextEngine9splitItemEii
	_ZNK11QTextFormat10propertiesEv
	_ZNK11QTextFormat11hasPropertyEi
	_ZNK11QTextFormat11intPropertyEi
	_ZNK11QTextFormat11objectIndexEv
	_ZNK11QTextFormat11penPropertyEi
	_ZNK11QTextFormat12boolPropertyEi
	_ZNK11QTextFormat12toCharFormatEv
	_ZNK11QTextFormat12toListFormatEv
	_ZNK11QTextFormat13brushPropertyEi
	_ZNK11QTextFormat13colorPropertyEi
	_ZNK11QTextFormat13propertyCountEv
	_ZNK11QTextFormat13toBlockFormatEv
	_ZNK11QTextFormat13toFrameFormatEv
	_ZNK11QTextFormat13toImageFormatEv
	_ZNK11QTextFormat13toTableFormatEv
	_ZNK11QTextFormat14doublePropertyEi
	_ZNK11QTextFormat14lengthPropertyEi
	_ZNK11QTextFormat14stringPropertyEi
	_ZNK11QTextFormat17toTableCellFormatEv
	_ZNK11QTextFormat20lengthVectorPropertyEi
	_ZNK11QTextFormat4typeEv
	_ZNK11QTextFormat8propertyEi
	_ZNK11QTextFormatcv8QVariantEv
	_ZNK11QTextFormateqERKS_
	_ZNK11QTextLayout10drawCursorEP8QPainterRK7QPointFi
	_ZNK11QTextLayout10drawCursorEP8QPainterRK7QPointFii
	_ZNK11QTextLayout10textOptionEv
	_ZNK11QTextLayout12boundingRectEv
	_ZNK11QTextLayout12cacheEnabledEv
	_ZNK11QTextLayout12maximumWidthEv
	_ZNK11QTextLayout12minimumWidthEv
	_ZNK11QTextLayout15cursorMoveStyleEv
	_ZNK11QTextLayout15preeditAreaTextEv
	_ZNK11QTextLayout17additionalFormatsEv
	_ZNK11QTextLayout18leftCursorPositionEi
	_ZNK11QTextLayout18nextCursorPositionEiNS_10CursorModeE
	_ZNK11QTextLayout19lineForTextPositionEi
	_ZNK11QTextLayout19preeditAreaPositionEv
	_ZNK11QTextLayout19rightCursorPositionEi
	_ZNK11QTextLayout21isValidCursorPositionEi
	_ZNK11QTextLayout22previousCursorPositionEiNS_10CursorModeE
	_ZNK11QTextLayout4drawEP8QPainterRK7QPointFRK7QVectorINS_11FormatRangeEERK6QRectF
	_ZNK11QTextLayout4fontEv
	_ZNK11QTextLayout4textEv
	_ZNK11QTextLayout6lineAtEi
	_ZNK11QTextLayout8positionEv
	_ZNK11QTextLayout9glyphRunsEii
	_ZNK11QTextLayout9lineCountEv
	_ZNK11QTextLengthcv8QVariantEv
	_ZNK11QTextObject10metaObjectEv
	_ZNK11QTextObject11formatIndexEv
	_ZNK11QTextObject11objectIndexEv
	_ZNK11QTextObject6formatEv
	_ZNK11QTextObject8documentEv
	_ZNK11QTextObject9docHandleEv
	_ZNK11QTextOption4tabsEv
	_ZNK11QTextOption8tabArrayEv
	_ZNK11QTouchEvent10TouchPoint10screenRectEv
	_ZNK11QTouchEvent10TouchPoint12lastScenePosEv
	_ZNK11QTouchEvent10TouchPoint13lastScreenPosEv
	_ZNK11QTouchEvent10TouchPoint13normalizedPosEv
	_ZNK11QTouchEvent10TouchPoint13startScenePosEv
	_ZNK11QTouchEvent10TouchPoint14startScreenPosEv
	_ZNK11QTouchEvent10TouchPoint17lastNormalizedPosEv
	_ZNK11QTouchEvent10TouchPoint18rawScreenPositionsEv
	_ZNK11QTouchEvent10TouchPoint18startNormalizedPosEv
	_ZNK11QTouchEvent10TouchPoint2idEv
	_ZNK11QTouchEvent10TouchPoint3posEv
	_ZNK11QTouchEvent10TouchPoint4rectEv
	_ZNK11QTouchEvent10TouchPoint5flagsEv
	_ZNK11QTouchEvent10TouchPoint5stateEv
	_ZNK11QTouchEvent10TouchPoint7lastPosEv
	_ZNK11QTouchEvent10TouchPoint8pressureEv
	_ZNK11QTouchEvent10TouchPoint8scenePosEv
	_ZNK11QTouchEvent10TouchPoint8startPosEv
	_ZNK11QTouchEvent10TouchPoint8velocityEv
	_ZNK11QTouchEvent10TouchPoint9sceneRectEv
	_ZNK11QTouchEvent10TouchPoint9screenPosEv
	_ZNK11QVectorPath12addCacheDataEP14QPaintEngineExPvPFvS1_S2_E
	_ZNK11QVectorPath16controlPointRectEv
	_ZNK11QVectorPath20convertToPainterPathEv
	_ZNK12QDragManager10metaObjectEv
	_ZNK12QDragManager13currentTargetEv
	_ZNK12QDragManager6sourceEv
	_ZNK12QFontMetrics10elidedTextERK7QStringN2Qt13TextElideModeEii
	_ZNK12QFontMetrics10inFontUcs4Ej
	_ZNK12QFontMetrics11leftBearingE5QChar
	_ZNK12QFontMetrics11lineSpacingEv
	_ZNK12QFontMetrics11overlinePosEv
	_ZNK12QFontMetrics12boundingRectE5QChar
	_ZNK12QFontMetrics12boundingRectERK5QRectiRK7QStringiPi
	_ZNK12QFontMetrics12boundingRectERK7QString
	_ZNK12QFontMetrics12rightBearingE5QChar
	_ZNK12QFontMetrics12strikeOutPosEv
	_ZNK12QFontMetrics12underlinePosEv
	_ZNK12QFontMetrics14minLeftBearingEv
	_ZNK12QFontMetrics15minRightBearingEv
	_ZNK12QFontMetrics16averageCharWidthEv
	_ZNK12QFontMetrics17tightBoundingRectERK7QString
	_ZNK12QFontMetrics4sizeEiRK7QStringiPi
	_ZNK12QFontMetrics5widthE5QChar
	_ZNK12QFontMetrics5widthERK7QStringi
	_ZNK12QFontMetrics5widthERK7QStringii
	_ZNK12QFontMetrics6ascentEv
	_ZNK12QFontMetrics6heightEv
	_ZNK12QFontMetrics6inFontE5QChar
	_ZNK12QFontMetrics7descentEv
	_ZNK12QFontMetrics7leadingEv
	_ZNK12QFontMetrics7xHeightEv
	_ZNK12QFontMetrics8maxWidthEv
	_ZNK12QFontMetrics9charWidthERK7QStringi
	_ZNK12QFontMetrics9lineWidthEv
	_ZNK12QFontMetricseqERKS_
	_ZNK12QFontPrivate15engineForScriptEi
	_ZNK12QFontPrivate20smallCapsFontPrivateEv
	_ZNK12QFontPrivate26alterCharForCapitalizationER5QChar
	_ZNK12QImageReader10imageCountEv
	_ZNK12QImageReader10scaledSizeEv
	_ZNK12QImageReader11errorStringEv
	_ZNK12QImageReader11imageFormatEv
	_ZNK12QImageReader14nextImageDelayEv
	_ZNK12QImageReader14scaledClipRectEv
	_ZNK12QImageReader14supportsOptionEN15QImageIOHandler11ImageOptionE
	_ZNK12QImageReader15backgroundColorEv
	_ZNK12QImageReader16currentImageRectEv
	_ZNK12QImageReader17supportsAnimationEv
	_ZNK12QImageReader18currentImageNumberEv
	_ZNK12QImageReader21autoDetectImageFormatEv
	_ZNK12QImageReader23decideFormatFromContentEv
	_ZNK12QImageReader4sizeEv
	_ZNK12QImageReader4textERK7QString
	_ZNK12QImageReader5errorEv
	_ZNK12QImageReader6deviceEv
	_ZNK12QImageReader6formatEv
	_ZNK12QImageReader7canReadEv
	_ZNK12QImageReader7qualityEv
	_ZNK12QImageReader8clipRectEv
	_ZNK12QImageReader8fileNameEv
	_ZNK12QImageReader8textKeysEv
	_ZNK12QImageReader9loopCountEv
	_ZNK12QImageWriter11compressionEv
	_ZNK12QImageWriter11descriptionEv
	_ZNK12QImageWriter11errorStringEv
	_ZNK12QImageWriter14supportsOptionEN15QImageIOHandler11ImageOptionE
	_ZNK12QImageWriter5errorEv
	_ZNK12QImageWriter5gammaEv
	_ZNK12QImageWriter6deviceEv
	_ZNK12QImageWriter6formatEv
	_ZNK12QImageWriter7qualityEv
	_ZNK12QImageWriter8canWriteEv
	_ZNK12QImageWriter8fileNameEv
	_ZNK12QInputMethod10metaObjectEv
	_ZNK12QInputMethod11isAnimatingEv
	_ZNK12QInputMethod14inputDirectionEv
	_ZNK12QInputMethod15cursorRectangleEv
	_ZNK12QInputMethod17keyboardRectangleEv
	_ZNK12QInputMethod18inputItemRectangleEv
	_ZNK12QInputMethod18inputItemTransformEv
	_ZNK12QInputMethod6localeEv
	_ZNK12QInputMethod9isVisibleEv
	_ZNK12QKeySequence10isDetachedEv
	_ZNK12QKeySequence5countEv
	_ZNK12QKeySequence7isEmptyEv
	_ZNK12QKeySequence7matchesERKS_
	_ZNK12QKeySequence8toStringENS_14SequenceFormatE
	_ZNK12QKeySequencecv8QVariantEv
	_ZNK12QKeySequenceeqERKS_
	_ZNK12QKeySequenceixEj
	_ZNK12QKeySequenceltERKS_
	_ZNK12QPaintBuffer11paintEngineEv
	_ZNK12QPaintBuffer12boundingRectEv
	_ZNK12QPaintBuffer13frameEndIndexEi
	_ZNK12QPaintBuffer15frameStartIndexEi
	_ZNK12QPaintBuffer15processCommandsEP8QPainterii
	_ZNK12QPaintBuffer18commandDescriptionEi
	_ZNK12QPaintBuffer4drawEP8QPainteri
	_ZNK12QPaintBuffer6metricEN12QPaintDevice17PaintDeviceMetricE
	_ZNK12QPaintBuffer7devTypeEv
	_ZNK12QPaintBuffer7isEmptyEv
	_ZNK12QPaintBuffer9numFramesEv
	_ZNK12QPaintDevice10redirectedEP6QPoint
	_ZNK12QPaintDevice11initPainterEP8QPainter
	_ZNK12QPaintDevice13sharedPainterEv
	_ZNK12QPaintDevice6metricENS_17PaintDeviceMetricE
	_ZNK12QPaintDevice7devTypeEv
	_ZNK12QPaintEngine10systemClipEv
	_ZNK12QPaintEngine10systemRectEv
	_ZNK12QPaintEngine11paintDeviceEv
	_ZNK12QPaintEngine16coordinateOffsetEv
	_ZNK12QPaintEngine7painterEv
	_ZNK12QPainterPath10intersectsERK6QRectF
	_ZNK12QPainterPath10intersectsERKS_
	_ZNK12QPainterPath10simplifiedEv
	_ZNK12QPainterPath10subtractedERKS_
	_ZNK12QPainterPath10toReversedEv
	_ZNK12QPainterPath10translatedEdd
	_ZNK12QPainterPath11intersectedERKS_
	_ZNK12QPainterPath12boundingRectEv
	_ZNK12QPainterPath12elementCountEv
	_ZNK12QPainterPath13toFillPolygonERK10QTransform
	_ZNK12QPainterPath13toFillPolygonERK7QMatrix
	_ZNK12QPainterPath14angleAtPercentEd
	_ZNK12QPainterPath14pointAtPercentEd
	_ZNK12QPainterPath14slopeAtPercentEd
	_ZNK12QPainterPath14toFillPolygonsERK10QTransform
	_ZNK12QPainterPath14toFillPolygonsERK7QMatrix
	_ZNK12QPainterPath15currentPositionEv
	_ZNK12QPainterPath15percentAtLengthEd
	_ZNK12QPainterPath16controlPointRectEv
	_ZNK12QPainterPath17toSubpathPolygonsERK10QTransform
	_ZNK12QPainterPath17toSubpathPolygonsERK7QMatrix
	_ZNK12QPainterPath18subtractedInvertedERKS_
	_ZNK12QPainterPath19computeBoundingRectEv
	_ZNK12QPainterPath23computeControlPointRectEv
	_ZNK12QPainterPath6lengthEv
	_ZNK12QPainterPath6unitedERKS_
	_ZNK12QPainterPath7isEmptyEv
	_ZNK12QPainterPath8containsERK6QRectF
	_ZNK12QPainterPath8containsERK7QPointF
	_ZNK12QPainterPath8containsERKS_
	_ZNK12QPainterPath8fillRuleEv
	_ZNK12QPainterPath9elementAtEi
	_ZNK12QPainterPathanERKS_
	_ZNK12QPainterPatheqERKS_
	_ZNK12QPainterPathmiERKS_
	_ZNK12QPainterPathneERKS_
	_ZNK12QPainterPathorERKS_
	_ZNK12QPainterPathplERKS_
	_ZNK12QPixmapCache3KeyeqERKS0_
	_ZNK12QScrollEvent10contentPosEv
	_ZNK12QScrollEvent11scrollStateEv
	_ZNK12QScrollEvent17overshootDistanceEv
	_ZNK12QShortcutMap25hasShortcutForKeySequenceERK12QKeySequence
	_ZNK12QShortcutMap7matchesERK12QKeySequenceS2_
	_ZNK12QShortcutMap7matchesEv
	_ZNK12QTouchDevice12capabilitiesEv
	_ZNK12QTouchDevice18maximumTouchPointsEv
	_ZNK12QTouchDevice4nameEv
	_ZNK12QTouchDevice4typeEv
	_ZNK13QBackingStore14staticContentsEv
	_ZNK13QBackingStore17hasStaticContentsEv
	_ZNK13QBackingStore4sizeEv
	_ZNK13QBackingStore6handleEv
	_ZNK13QBackingStore6windowEv
	_ZNK13QFontDatabase10isScalableERK7QStringS2_
	_ZNK13QFontDatabase12isFixedPitchERK7QStringS2_
	_ZNK13QFontDatabase14writingSystemsERK7QString
	_ZNK13QFontDatabase14writingSystemsEv
	_ZNK13QFontDatabase16isBitmapScalableERK7QStringS2_
	_ZNK13QFontDatabase18isSmoothlyScalableERK7QStringS2_
	_ZNK13QFontDatabase4boldERK7QStringS2_
	_ZNK13QFontDatabase4fontERK7QStringS2_i
	_ZNK13QFontDatabase6italicERK7QStringS2_
	_ZNK13QFontDatabase6stylesERK7QString
	_ZNK13QFontDatabase6weightERK7QStringS2_
	_ZNK13QFontDatabase8familiesENS_13WritingSystemE
	_ZNK13QFontDatabase9hasFamilyERK7QString
	_ZNK13QFontMetricsF10elidedTextERK7QStringN2Qt13TextElideModeEdi
	_ZNK13QFontMetricsF10inFontUcs4Ej
	_ZNK13QFontMetricsF11leftBearingE5QChar
	_ZNK13QFontMetricsF11lineSpacingEv
	_ZNK13QFontMetricsF11overlinePosEv
	_ZNK13QFontMetricsF12boundingRectE5QChar
	_ZNK13QFontMetricsF12boundingRectERK6QRectFiRK7QStringiPi
	_ZNK13QFontMetricsF12boundingRectERK7QString
	_ZNK13QFontMetricsF12rightBearingE5QChar
	_ZNK13QFontMetricsF12strikeOutPosEv
	_ZNK13QFontMetricsF12underlinePosEv
	_ZNK13QFontMetricsF14minLeftBearingEv
	_ZNK13QFontMetricsF15minRightBearingEv
	_ZNK13QFontMetricsF16averageCharWidthEv
	_ZNK13QFontMetricsF17tightBoundingRectERK7QString
	_ZNK13QFontMetricsF4sizeEiRK7QStringiPi
	_ZNK13QFontMetricsF5widthE5QChar
	_ZNK13QFontMetricsF5widthERK7QString
	_ZNK13QFontMetricsF6ascentEv
	_ZNK13QFontMetricsF6heightEv
	_ZNK13QFontMetricsF6inFontE5QChar
	_ZNK13QFontMetricsF7descentEv
	_ZNK13QFontMetricsF7leadingEv
	_ZNK13QFontMetricsF7xHeightEv
	_ZNK13QFontMetricsF8maxWidthEv
	_ZNK13QFontMetricsF9lineWidthEv
	_ZNK13QFontMetricsFeqERKS_
	_ZNK13QIntValidator10metaObjectEv
	_ZNK13QIntValidator5fixupER7QString
	_ZNK13QIntValidator8validateER7QStringRi
	_ZNK13QLayoutPolicy11controlTypeEv
	_ZNK13QOpenGLBuffer12usagePatternEv
	_ZNK13QOpenGLBuffer4sizeEv
	_ZNK13QOpenGLBuffer4typeEv
	_ZNK13QOpenGLBuffer8bufferIdEv
	_ZNK13QOpenGLBuffer9isCreatedEv
	_ZNK13QOpenGLShader10isCompiledEv
	_ZNK13QOpenGLShader10metaObjectEv
	_ZNK13QOpenGLShader10shaderTypeEv
	_ZNK13QOpenGLShader10sourceCodeEv
	_ZNK13QOpenGLShader3logEv
	_ZNK13QOpenGLShader8shaderIdEv
	_ZNK13QPlatformDrag11currentDragEv
	_ZNK13QPlatformDrag13defaultActionE6QFlagsIN2Qt10DropActionEES0_INS1_16KeyboardModifierEE
	_ZNK13QPlatformMenu10metaObjectEv
	_ZNK13QPlatformMenu14createMenuItemEv
	_ZNK13QStandardItem11columnCountEv
	_ZNK13QStandardItem11hasChildrenEv
	_ZNK13QStandardItem3rowEv
	_ZNK13QStandardItem4dataEi
	_ZNK13QStandardItem4typeEv
	_ZNK13QStandardItem5childEii
	_ZNK13QStandardItem5cloneEv
	_ZNK13QStandardItem5flagsEv
	_ZNK13QStandardItem5indexEv
	_ZNK13QStandardItem5modelEv
	_ZNK13QStandardItem5writeER11QDataStream
	_ZNK13QStandardItem6columnEv
	_ZNK13QStandardItem6parentEv
	_ZNK13QStandardItem8rowCountEv
	_ZNK13QStandardItemltERKS_
	_ZNK13QTextDocument10allFormatsEv
	_ZNK13QTextDocument10blockCountEv
	_ZNK13QTextDocument10firstBlockEv
	_ZNK13QTextDocument10idealWidthEv
	_ZNK13QTextDocument10isModifiedEv
	_ZNK13QTextDocument10metaObjectEv
	_ZNK13QTextDocument11characterAtEi
	_ZNK13QTextDocument11defaultFontEv
	_ZNK13QTextDocument11indentWidthEv
	_ZNK13QTextDocument11toPlainTextEv
	_ZNK13QTextDocument14characterCountEv
	_ZNK13QTextDocument14documentLayoutEv
	_ZNK13QTextDocument14documentMarginEv
	_ZNK13QTextDocument15isRedoAvailableEv
	_ZNK13QTextDocument15isUndoAvailableEv
	_ZNK13QTextDocument15metaInformationENS_15MetaInformationE
	_ZNK13QTextDocument15objectForFormatERK11QTextFormat
	_ZNK13QTextDocument16useDesignMetricsEv
	_ZNK13QTextDocument17defaultStyleSheetEv
	_ZNK13QTextDocument17defaultTextOptionEv
	_ZNK13QTextDocument17findBlockByNumberEi
	_ZNK13QTextDocument17isUndoRedoEnabledEv
	_ZNK13QTextDocument17maximumBlockCountEv
	_ZNK13QTextDocument18availableRedoStepsEv
	_ZNK13QTextDocument18availableUndoStepsEv
	_ZNK13QTextDocument21findBlockByLineNumberEi
	_ZNK13QTextDocument22defaultCursorMoveStyleEv
	_ZNK13QTextDocument3endEv
	_ZNK13QTextDocument4findERK7QRegExpRK11QTextCursor6QFlagsINS_8FindFlagEE
	_ZNK13QTextDocument4findERK7QRegExpi6QFlagsINS_8FindFlagEE
	_ZNK13QTextDocument4findERK7QStringRK11QTextCursor6QFlagsINS_8FindFlagEE
	_ZNK13QTextDocument4findERK7QStringi6QFlagsINS_8FindFlagEE
	_ZNK13QTextDocument4sizeEv
	_ZNK13QTextDocument5beginEv
	_ZNK13QTextDocument5cloneEP7QObject
	_ZNK13QTextDocument5printEP17QPagedPaintDevice
	_ZNK13QTextDocument6objectEi
	_ZNK13QTextDocument6toHtmlERK10QByteArray
	_ZNK13QTextDocument7baseUrlEv
	_ZNK13QTextDocument7frameAtEi
	_ZNK13QTextDocument7isEmptyEv
	_ZNK13QTextDocument8pageSizeEv
	_ZNK13QTextDocument8resourceEiRK4QUrl
	_ZNK13QTextDocument8revisionEv
	_ZNK13QTextDocument9docHandleEv
	_ZNK13QTextDocument9findBlockEi
	_ZNK13QTextDocument9lastBlockEv
	_ZNK13QTextDocument9lineCountEv
	_ZNK13QTextDocument9pageCountEv
	_ZNK13QTextDocument9rootFrameEv
	_ZNK13QTextDocument9textWidthEv
	_ZNK13QTextFragment10charFormatEv
	_ZNK13QTextFragment15charFormatIndexEv
	_ZNK13QTextFragment4textEv
	_ZNK13QTextFragment6lengthEv
	_ZNK13QTextFragment8containsEi
	_ZNK13QTextFragment8positionEv
	_ZNK13QTextFragment9glyphRunsEii
	_ZNK14QDistanceField13constScanLineEi
	_ZNK14QDistanceField4bitsEv
	_ZNK14QDistanceField4copyERK5QRect
	_ZNK14QDistanceField5glyphEv
	_ZNK14QDistanceField5widthEv
	_ZNK14QDistanceField6heightEv
	_ZNK14QDistanceField6isNullEv
	_ZNK14QDistanceField7toImageEN6QImage6FormatE
	_ZNK14QDistanceField8scanLineEi
	_ZNK14QDistanceField9constBitsEv
	_ZNK14QFileOpenEvent8openFileER5QFile6QFlagsIN9QIODevice12OpenModeFlagEE
	_ZNK14QFontEngineQPA10glyphCountEv
	_ZNK14QFontEngineQPA10glyphIndexEj
	_ZNK14QFontEngineQPA12maxCharWidthEv
	_ZNK14QFontEngineQPA12stringToCMapEPK5QChariP12QGlyphLayoutPi6QFlagsIN11QFontEngine10ShaperFlagEE
	_ZNK14QFontEngineQPA13lineThicknessEv
	_ZNK14QFontEngineQPA14minLeftBearingEv
	_ZNK14QFontEngineQPA14recalcAdvancesEP12QGlyphLayout6QFlagsIN11QFontEngine10ShaperFlagEE
	_ZNK14QFontEngineQPA15minRightBearingEv
	_ZNK14QFontEngineQPA16getSfntTableDataEjPhPj
	_ZNK14QFontEngineQPA17underlinePositionEv
	_ZNK14QFontEngineQPA6ascentEv
	_ZNK14QFontEngineQPA6faceIdEv
	_ZNK14QFontEngineQPA7descentEv
	_ZNK14QFontEngineQPA7isValidEv
	_ZNK14QFontEngineQPA7leadingEv
	_ZNK14QFontEngineQPA9findGlyphEj
	_ZNK14QGenericPlugin10metaObjectEv
	_ZNK14QImageIOPlugin10metaObjectEv
	_ZNK14QOpenGLContext10extensionsEv
	_ZNK14QOpenGLContext10isOpenGLESEv
	_ZNK14QOpenGLContext10metaObjectEv
	_ZNK14QOpenGLContext10shareGroupEv
	_ZNK14QOpenGLContext11shareHandleEv
	_ZNK14QOpenGLContext12hasExtensionERK10QByteArray
	_ZNK14QOpenGLContext12shareContextEv
	_ZNK14QOpenGLContext14getProcAddressERK10QByteArray
	_ZNK14QOpenGLContext16functionsBackendERK20QOpenGLVersionStatus
	_ZNK14QOpenGLContext16qGLContextHandleEv
	_ZNK14QOpenGLContext16textureFunctionsEv
	_ZNK14QOpenGLContext16versionFunctionsERK21QOpenGLVersionProfile
	_ZNK14QOpenGLContext24defaultFramebufferObjectEv
	_ZNK14QOpenGLContext6formatEv
	_ZNK14QOpenGLContext6handleEv
	_ZNK14QOpenGLContext6screenEv
	_ZNK14QOpenGLContext7isValidEv
	_ZNK14QOpenGLContext7surfaceEv
	_ZNK14QOpenGLContext9functionsEv
	_ZNK14QOpenGLTexture11borderColorEPf
	_ZNK14QOpenGLTexture11borderColorEPi
	_ZNK14QOpenGLTexture11borderColorEPj
	_ZNK14QOpenGLTexture11borderColorEv
	_ZNK14QOpenGLTexture11mipMaxLevelEv
	_ZNK14QOpenGLTexture11swizzleMaskENS_16SwizzleComponentE
	_ZNK14QOpenGLTexture12mipBaseLevelEv
	_ZNK14QOpenGLTexture13isTextureViewEv
	_ZNK14QOpenGLTexture13minMagFiltersEv
	_ZNK14QOpenGLTexture13mipLevelRangeEv
	_ZNK14QOpenGLTexture16depthStencilModeEv
	_ZNK14QOpenGLTexture16maximumMipLevelsEv
	_ZNK14QOpenGLTexture17createTextureViewENS_6TargetENS_13TextureFormatEiiii
	_ZNK14QOpenGLTexture17levelofDetailBiasEv
	_ZNK14QOpenGLTexture17maximumAnisotropyEv
	_ZNK14QOpenGLTexture18isStorageAllocatedEv
	_ZNK14QOpenGLTexture18levelOfDetailRangeEv
	_ZNK14QOpenGLTexture18minificationFilterEv
	_ZNK14QOpenGLTexture19magnificationFilterEv
	_ZNK14QOpenGLTexture20maximumLevelOfDetailEv
	_ZNK14QOpenGLTexture20minimumLevelOfDetailEv
	_ZNK14QOpenGLTexture29isAutoMipMapGenerationEnabledEv
	_ZNK14QOpenGLTexture5depthEv
	_ZNK14QOpenGLTexture5facesEv
	_ZNK14QOpenGLTexture5widthEv
	_ZNK14QOpenGLTexture6formatEv
	_ZNK14QOpenGLTexture6heightEv
	_ZNK14QOpenGLTexture6layersEv
	_ZNK14QOpenGLTexture7isBoundEv
	_ZNK14QOpenGLTexture8wrapModeENS_19CoordinateDirectionE
	_ZNK14QOpenGLTexture9isCreatedEv
	_ZNK14QOpenGLTexture9mipLevelsEv
	_ZNK14QOpenGLTexture9textureIdEv
	_ZNK14QPaintEngineEx11createStateEP13QPainterState
	_ZNK14QPaintEngineEx22shouldDrawCachedGlyphsEP11QFontEngineRK10QTransform
	_ZNK14QPaintEngineEx36requiresPretransformedGlyphPositionsEP11QFontEngineRK10QTransform
	_ZNK14QPaintEngineEx5flagsEv
	_ZNK14QPlatformTheme11keyBindingsEN12QKeySequence11StandardKeyE
	_ZNK14QPlatformTheme14fileIconPixmapERK9QFileInfoRK6QSizeF6QFlagsINS_10IconOptionEE
	_ZNK14QPlatformTheme14standardPixmapENS_14StandardPixmapERK6QSizeF
	_ZNK14QPlatformTheme16createIconEngineERK7QString
	_ZNK14QPlatformTheme18createPlatformMenuEv
	_ZNK14QPlatformTheme18standardButtonTextEi
	_ZNK14QPlatformTheme21createPlatformMenuBarEv
	_ZNK14QPlatformTheme22createPlatformMenuItemEv
	_ZNK14QPlatformTheme23usePlatformNativeDialogENS_10DialogTypeE
	_ZNK14QPlatformTheme26createPlatformDialogHelperENS_10DialogTypeE
	_ZNK14QPlatformTheme28createPlatformSystemTrayIconEv
	_ZNK14QPlatformTheme4fontENS_4FontE
	_ZNK14QPlatformTheme7paletteENS_7PaletteE
	_ZNK14QPlatformTheme9themeHintENS_9ThemeHintE
	_ZNK14QSurfaceFormat10testOptionE6QFlagsINS_12FormatOptionEE
	_ZNK14QSurfaceFormat10testOptionENS_12FormatOptionE
	_ZNK14QSurfaceFormat12majorVersionEv
	_ZNK14QSurfaceFormat12minorVersionEv
	_ZNK14QSurfaceFormat12swapBehaviorEv
	_ZNK14QSurfaceFormat12swapIntervalEv
	_ZNK14QSurfaceFormat13redBufferSizeEv
	_ZNK14QSurfaceFormat14blueBufferSizeEv
	_ZNK14QSurfaceFormat14renderableTypeEv
	_ZNK14QSurfaceFormat15alphaBufferSizeEv
	_ZNK14QSurfaceFormat15depthBufferSizeEv
	_ZNK14QSurfaceFormat15greenBufferSizeEv
	_ZNK14QSurfaceFormat17stencilBufferSizeEv
	_ZNK14QSurfaceFormat7optionsEv
	_ZNK14QSurfaceFormat7profileEv
	_ZNK14QSurfaceFormat7samplesEv
	_ZNK14QSurfaceFormat7versionEv
	_ZNK14QSurfaceFormat8hasAlphaEv
	_ZNK14QTextTableCell10columnSpanEv
	_ZNK14QTextTableCell12lastPositionEv
	_ZNK14QTextTableCell13firstPositionEv
	_ZNK14QTextTableCell18lastCursorPositionEv
	_ZNK14QTextTableCell19firstCursorPositionEv
	_ZNK14QTextTableCell20tableCellFormatIndexEv
	_ZNK14QTextTableCell3endEv
	_ZNK14QTextTableCell3rowEv
	_ZNK14QTextTableCell5beginEv
	_ZNK14QTextTableCell6columnEv
	_ZNK14QTextTableCell6formatEv
	_ZNK14QTextTableCell7rowSpanEv
	_ZNK14QWindowPrivate14topLevelWindowEv
	_ZNK15QGridLayoutItem10columnSpanEN2Qt11OrientationE
	_ZNK15QGridLayoutItem10lastColumnEN2Qt11OrientationE
	_ZNK15QGridLayoutItem11firstColumnEN2Qt11OrientationE
	_ZNK15QGridLayoutItem12controlTypesE10LayoutSide
	_ZNK15QGridLayoutItem13stretchFactorEN2Qt11OrientationE
	_ZNK15QGridLayoutItem14geometryWithinEddddd6QFlagsIN2Qt13AlignmentFlagEE
	_ZNK15QGridLayoutItem16effectiveMaxSizeERK6QSizeF
	_ZNK15QGridLayoutItem20hasDynamicConstraintEv
	_ZNK15QGridLayoutItem28dynamicConstraintOrientationEv
	_ZNK15QGridLayoutItem3boxEN2Qt11OrientationEd
	_ZNK15QGridLayoutItem7lastRowEN2Qt11OrientationE
	_ZNK15QGridLayoutItem7rowSpanEN2Qt11OrientationE
	_ZNK15QGridLayoutItem8firstRowEN2Qt11OrientationE
	_ZNK15QGuiApplication10metaObjectEv
	_ZNK15QGuiApplication10sessionKeyEv
	_ZNK15QGuiApplication15isSavingSessionEv
	_ZNK15QGuiApplication16devicePixelRatioEv
	_ZNK15QGuiApplication17isSessionRestoredEv
	_ZNK15QGuiApplication9sessionIdEv
	_ZNK15QImageIOHandler10imageCountEv
	_ZNK15QImageIOHandler14nextImageDelayEv
	_ZNK15QImageIOHandler14supportsOptionENS_11ImageOptionE
	_ZNK15QImageIOHandler16currentImageRectEv
	_ZNK15QImageIOHandler18currentImageNumberEv
	_ZNK15QImageIOHandler4nameEv
	_ZNK15QImageIOHandler6deviceEv
	_ZNK15QImageIOHandler6formatEv
	_ZNK15QImageIOHandler6optionENS_11ImageOptionE
	_ZNK15QImageIOHandler9loopCountEv
	_ZNK15QImageIOHandler9setFormatERK10QByteArray
	_ZNK15QLinearGradient5startEv
	_ZNK15QLinearGradient9finalStopEv
	_ZNK15QPlatformCursor3posEv
	_ZNK15QPlatformPixmap11transformedERK10QTransformN2Qt18TransformationModeE
	_ZNK15QPlatformPixmap30createCompatiblePlatformPixmapEv
	_ZNK15QPlatformPixmap7toImageERK5QRect
	_ZNK15QPlatformScreen10grabWindowEyiiii
	_ZNK15QPlatformScreen10logicalDpiEv
	_ZNK15QPlatformScreen10topLevelAtERK6QPoint
	_ZNK15QPlatformScreen11orientationEv
	_ZNK15QPlatformScreen11pageFlipperEv
	_ZNK15QPlatformScreen11refreshRateEv
	_ZNK15QPlatformScreen12physicalSizeEv
	_ZNK15QPlatformScreen15virtualSiblingsEv
	_ZNK15QPlatformScreen16devicePixelRatioEv
	_ZNK15QPlatformScreen17availableGeometryEv
	_ZNK15QPlatformScreen17nativeOrientationEv
	_ZNK15QPlatformScreen4nameEv
	_ZNK15QPlatformScreen6cursorEv
	_ZNK15QPlatformScreen6screenEv
	_ZNK15QPlatformWindow10isEmbeddedEPKS_
	_ZNK15QPlatformWindow11mapToGlobalERK6QPoint
	_ZNK15QPlatformWindow12frameMarginsEv
	_ZNK15QPlatformWindow12isAlertStateEv
	_ZNK15QPlatformWindow13mapFromGlobalERK6QPoint
	_ZNK15QPlatformWindow14normalGeometryEv
	_ZNK15QPlatformWindow16devicePixelRatioEv
	_ZNK15QPlatformWindow23frameStrutEventsEnabledEv
	_ZNK15QPlatformWindow5winIdEv
	_ZNK15QPlatformWindow6formatEv
	_ZNK15QPlatformWindow6parentEv
	_ZNK15QPlatformWindow6screenEv
	_ZNK15QPlatformWindow6windowEv
	_ZNK15QPlatformWindow8geometryEv
	_ZNK15QPlatformWindow8isActiveEv
	_ZNK15QPlatformWindow9isExposedEv
	_ZNK15QRadialGradient10focalPointEv
	_ZNK15QRadialGradient11focalRadiusEv
	_ZNK15QRadialGradient12centerRadiusEv
	_ZNK15QRadialGradient6centerEv
	_ZNK15QRadialGradient6radiusEv
	_ZNK15QSessionManager10metaObjectEv
	_ZNK15QSessionManager10sessionKeyEv
	_ZNK15QSessionManager11restartHintEv
	_ZNK15QSessionManager14discardCommandEv
	_ZNK15QSessionManager14restartCommandEv
	_ZNK15QSessionManager8isPhase2Ev
	_ZNK15QSessionManager9sessionIdEv
	_ZNK15QTextBlockGroup10metaObjectEv
	_ZNK15QTextBlockGroup9blockListEv
	_ZNK15QTextCharFormat10anchorNameEv
	_ZNK15QTextCharFormat11anchorNamesEv
	_ZNK15QTextCharFormat13fontUnderlineEv
	_ZNK15QTextCharFormat4fontEv
	_ZNK15glyph_metrics_t11transformedERK10QTransform
	_ZNK16QAccessibleCache10metaObjectEv
	_ZNK16QAccessibleCache14interfaceForIdEj
	_ZNK16QAccessibleCache6insertEP7QObjectP20QAccessibleInterface
	_ZNK16QAccessibleCache9acquireIdEv
	_ZNK16QAccessibleEvent19accessibleInterfaceEv
	_ZNK16QAccessibleEvent8uniqueIdEv
	_ZNK16QConicalGradient5angleEv
	_ZNK16QConicalGradient6centerEv
	_ZNK16QDoubleValidator10metaObjectEv
	_ZNK16QDoubleValidator8notationEv
	_ZNK16QDoubleValidator8validateER7QStringRi
	_ZNK16QFontEngineMulti10glyphIndexEj
	_ZNK16QFontEngineMulti12maxCharWidthEv
	_ZNK16QFontEngineMulti12stringToCMapEPK5QChariP12QGlyphLayoutPi6QFlagsIN11QFontEngine10ShaperFlagEE
	_ZNK16QFontEngineMulti13lineThicknessEv
	_ZNK16QFontEngineMulti14minLeftBearingEv
	_ZNK16QFontEngineMulti14recalcAdvancesEP12QGlyphLayout6QFlagsIN11QFontEngine10ShaperFlagEE
	_ZNK16QFontEngineMulti15minRightBearingEv
	_ZNK16QFontEngineMulti16averageCharWidthEv
	_ZNK16QFontEngineMulti17underlinePositionEv
	_ZNK16QFontEngineMulti32shouldLoadFontEngineForCharacterEij
	_ZNK16QFontEngineMulti6ascentEv
	_ZNK16QFontEngineMulti7descentEv
	_ZNK16QFontEngineMulti7leadingEv
	_ZNK16QFontEngineMulti7xHeightEv
	_ZNK16QFontEngineMulti9canRenderEPK5QChari
	_ZNK16QFontEngineMulti9doKerningEP12QGlyphLayout6QFlagsIN11QFontEngine10ShaperFlagEE
	_ZNK16QOpenGLFunctions14openGLFeaturesEv
	_ZNK16QOpenGLFunctions16hasOpenGLFeatureENS_13OpenGLFeatureE
	_ZNK16QPlatformMenuBar10metaObjectEv
	_ZNK16QPlatformSurface7surfaceEv
	_ZNK16QRegExpValidator10metaObjectEv
	_ZNK16QRegExpValidator8validateER7QStringRi
	_ZNK16QTextBlockFormat12tabPositionsEv
	_ZNK16QTextFrameFormat10leftMarginEv
	_ZNK16QTextFrameFormat11rightMarginEv
	_ZNK16QTextFrameFormat12bottomMarginEv
	_ZNK16QTextFrameFormat9topMarginEv
	_ZNK17QAccessibleObject4rectEv
	_ZNK17QAccessibleObject6objectEv
	_ZNK17QAccessibleObject7childAtEii
	_ZNK17QAccessibleObject7isValidEv
	_ZNK17QAccessiblePlugin10metaObjectEv
	_ZNK17QGridLayoutEngine10rowSpacingEiN2Qt11OrientationE
	_ZNK17QGridLayoutEngine11columnCountEN2Qt11OrientationE
	_ZNK17QGridLayoutEngine11fillRowDataEP18QGridLayoutRowDataPKdS3_N2Qt11OrientationEPK24QAbstractLayoutStyleInfo
	_ZNK17QGridLayoutEngine11rowSizeHintEN2Qt8SizeHintEiNS0_11OrientationE
	_ZNK17QGridLayoutEngine12controlTypesE10LayoutSide
	_ZNK17QGridLayoutEngine12rowAlignmentEiN2Qt11OrientationE
	_ZNK17QGridLayoutEngine15visualDirectionEv
	_ZNK17QGridLayoutEngine16effectiveLastRowEN2Qt11OrientationE
	_ZNK17QGridLayoutEngine16ensureGeometriesERK6QSizeFPK24QAbstractLayoutStyleInfo
	_ZNK17QGridLayoutEngine16rowStretchFactorEiN2Qt11OrientationE
	_ZNK17QGridLayoutEngine17effectiveFirstRowEN2Qt11OrientationE
	_ZNK17QGridLayoutEngine18effectiveAlignmentEPK15QGridLayoutItem
	_ZNK17QGridLayoutEngine20hasDynamicConstraintEv
	_ZNK17QGridLayoutEngine21constraintOrientationEv
	_ZNK17QGridLayoutEngine22ensureColumnAndRowDataEP18QGridLayoutRowDataP14QGridLayoutBoxPKdS5_N2Qt11OrientationEPK24QAbstractLayoutStyleInfo
	_ZNK17QGridLayoutEngine23ensureDynamicConstraintEv
	_ZNK17QGridLayoutEngine31ensureEffectiveFirstAndLastRowsEv
	_ZNK17QGridLayoutEngine6itemAtEi
	_ZNK17QGridLayoutEngine6itemAtEiiN2Qt11OrientationE
	_ZNK17QGridLayoutEngine7spacingEN2Qt11OrientationEPK24QAbstractLayoutStyleInfo
	_ZNK17QGridLayoutEngine8cellRectERK6QRectFiiiiPK24QAbstractLayoutStyleInfo
	_ZNK17QGridLayoutEngine8rowCountEN2Qt11OrientationE
	_ZNK17QGridLayoutEngine8sizeHintEN2Qt8SizeHintERK6QSizeFPK24QAbstractLayoutStyleInfo
	_ZNK17QGridLayoutEngine9itemCountEv
	_ZNK17QIconEnginePlugin10metaObjectEv
	_ZNK17QInternalMimeData10metaObjectEv
	_ZNK17QInternalMimeData12retrieveDataERK7QStringN8QVariant4TypeE
	_ZNK17QInternalMimeData7formatsEv
	_ZNK17QInternalMimeData9hasFormatERK7QString
	_ZNK17QOffscreenSurface10metaObjectEv
	_ZNK17QOffscreenSurface11surfaceTypeEv
	_ZNK17QOffscreenSurface13surfaceHandleEv
	_ZNK17QOffscreenSurface15requestedFormatEv
	_ZNK17QOffscreenSurface4sizeEv
	_ZNK17QOffscreenSurface6formatEv
	_ZNK17QOffscreenSurface6handleEv
	_ZNK17QOffscreenSurface6screenEv
	_ZNK17QOffscreenSurface7isValidEv
	_ZNK17QOpenGLExtensions18hasOpenGLExtensionENS_15OpenGLExtensionE
	_ZNK17QOpenGLTimerQuery10metaObjectEv
	_ZNK17QOpenGLTimerQuery13waitForResultEv
	_ZNK17QOpenGLTimerQuery16waitForTimestampEv
	_ZNK17QOpenGLTimerQuery17isResultAvailableEv
	_ZNK17QOpenGLTimerQuery8objectIdEv
	_ZNK17QOpenGLTimerQuery9isCreatedEv
	_ZNK17QPagedPaintDevice10pageLayoutEv
	_ZNK17QPagedPaintDevice10pageSizeMMEv
	_ZNK17QPagedPaintDevice16devicePageLayoutEv
	_ZNK17QPagedPaintDevice7marginsEv
	_ZNK17QPagedPaintDevice8pageSizeEv
	_ZNK17QPaintEngineState10clipRegionEv
	_ZNK17QPaintEngineState11brushOriginEv
	_ZNK17QPaintEngineState11renderHintsEv
	_ZNK17QPaintEngineState13clipOperationEv
	_ZNK17QPaintEngineState13isClipEnabledEv
	_ZNK17QPaintEngineState14backgroundModeEv
	_ZNK17QPaintEngineState15backgroundBrushEv
	_ZNK17QPaintEngineState15compositionModeEv
	_ZNK17QPaintEngineState17penNeedsResolvingEv
	_ZNK17QPaintEngineState19brushNeedsResolvingEv
	_ZNK17QPaintEngineState3penEv
	_ZNK17QPaintEngineState4fontEv
	_ZNK17QPaintEngineState5brushEv
	_ZNK17QPaintEngineState6matrixEv
	_ZNK17QPaintEngineState7opacityEv
	_ZNK17QPaintEngineState7painterEv
	_ZNK17QPaintEngineState8clipPathEv
	_ZNK17QPaintEngineState9transformEv
	_ZNK17QPdfEnginePrivate10pageMatrixEv
	_ZNK17QPlatformMenuItem10metaObjectEv
	_ZNK17QPlatformServices18desktopEnvironmentEv
	_ZNK17QTextImageHandler10metaObjectEv
	_ZNK17QTextInlineObject11formatIndexEv
	_ZNK17QTextInlineObject12textPositionEv
	_ZNK17QTextInlineObject13textDirectionEv
	_ZNK17QTextInlineObject4rectEv
	_ZNK17QTextInlineObject5widthEv
	_ZNK17QTextInlineObject6ascentEv
	_ZNK17QTextInlineObject6formatEv
	_ZNK17QTextInlineObject6heightEv
	_ZNK17QTextInlineObject7descentEv
	_ZNK18QFileDialogOptions10acceptModeEv
	_ZNK18QFileDialogOptions10testOptionENS_16FileDialogOptionE
	_ZNK18QFileDialogOptions11nameFiltersEv
	_ZNK18QFileDialogOptions11sidebarUrlsEv
	_ZNK18QFileDialogOptions11windowTitleEv
	_ZNK18QFileDialogOptions13defaultSuffixEv
	_ZNK18QFileDialogOptions15mimeTypeFiltersEv
	_ZNK18QFileDialogOptions16initialDirectoryEv
	_ZNK18QFileDialogOptions22initiallySelectedFilesEv
	_ZNK18QFileDialogOptions27initiallySelectedNameFilterEv
	_ZNK18QFileDialogOptions6filterEv
	_ZNK18QFileDialogOptions7historyEv
	_ZNK18QFileDialogOptions7optionsEv
	_ZNK18QFileDialogOptions8fileModeEv
	_ZNK18QFileDialogOptions8viewModeEv
	_ZNK18QFileDialogOptions9labelTextENS_11DialogLabelE
	_ZNK18QFontDialogOptions10testOptionENS_16FontDialogOptionE
	_ZNK18QFontDialogOptions11windowTitleEv
	_ZNK18QFontDialogOptions7optionsEv
	_ZNK18QOpenGLDebugLogger10metaObjectEv
	_ZNK18QOpenGLDebugLogger11loggingModeEv
	_ZNK18QOpenGLDebugLogger14loggedMessagesEv
	_ZNK18QOpenGLDebugLogger20maximumMessageLengthEv
	_ZNK18QOpenGLDebugLogger9isLoggingEv
	_ZNK18QOpenGLPaintDevice11paintEngineEv
	_ZNK18QOpenGLPaintDevice12paintFlippedEv
	_ZNK18QOpenGLPaintDevice13dotsPerMeterXEv
	_ZNK18QOpenGLPaintDevice13dotsPerMeterYEv
	_ZNK18QOpenGLPaintDevice4sizeEv
	_ZNK18QOpenGLPaintDevice6metricEN12QPaintDevice17PaintDeviceMetricE
	_ZNK18QOpenGLPaintDevice7contextEv
	_ZNK18QOpenGLPaintDevice7devTypeEv
	_ZNK18QOpenGLTimeMonitor10metaObjectEv
	_ZNK18QOpenGLTimeMonitor11sampleCountEv
	_ZNK18QOpenGLTimeMonitor14waitForSamplesEv
	_ZNK18QOpenGLTimeMonitor16waitForIntervalsEv
	_ZNK18QOpenGLTimeMonitor17isResultAvailableEv
	_ZNK18QOpenGLTimeMonitor9isCreatedEv
	_ZNK18QOpenGLTimeMonitor9objectIdsEv
	_ZNK18QPlatformClipboard12supportsModeEN10QClipboard4ModeE
	_ZNK18QPlatformClipboard8ownsModeEN10QClipboard4ModeE
	_ZNK18QRasterPaintEngine11createStateEP13QPainterState
	_ZNK18QRasterPaintEngine16clipBoundingRectEv
	_ZNK18QRasterPaintEngine16coordinateOffsetEv
	_ZNK18QRasterPaintEngine22shouldDrawCachedGlyphsEP11QFontEngineRK10QTransform
	_ZNK18QRasterPaintEngine36requiresPretransformedGlyphPositionsEP11QFontEngineRK10QTransform
	_ZNK18QRasterPaintEngine4sizeEv
	_ZNK18QRasterPaintEngine4typeEv
	_ZNK18QRasterPaintEngine5getDCEv
	_ZNK18QRasterPaintEngine8clipTypeEv
	_ZNK18QRasterPaintEngine9releaseDCEP5HDC__
	_ZNK18QStandardItemModel10headerDataEiN2Qt11OrientationEi
	_ZNK18QStandardItemModel10metaObjectEv
	_ZNK18QStandardItemModel11columnCountERK11QModelIndex
	_ZNK18QStandardItemModel11hasChildrenERK11QModelIndex
	_ZNK18QStandardItemModel13indexFromItemEPK13QStandardItem
	_ZNK18QStandardItemModel13itemFromIndexERK11QModelIndex
	_ZNK18QStandardItemModel13itemPrototypeEv
	_ZNK18QStandardItemModel17invisibleRootItemEv
	_ZNK18QStandardItemModel18verticalHeaderItemEi
	_ZNK18QStandardItemModel20horizontalHeaderItemEi
	_ZNK18QStandardItemModel20supportedDropActionsEv
	_ZNK18QStandardItemModel4dataERK11QModelIndexi
	_ZNK18QStandardItemModel4itemEii
	_ZNK18QStandardItemModel5flagsERK11QModelIndex
	_ZNK18QStandardItemModel5indexEiiRK11QModelIndex
	_ZNK18QStandardItemModel6parentERK11QModelIndex
	_ZNK18QStandardItemModel7siblingEiiRK11QModelIndex
	_ZNK18QStandardItemModel8itemDataERK11QModelIndex
	_ZNK18QStandardItemModel8mimeDataERK5QListI11QModelIndexE
	_ZNK18QStandardItemModel8rowCountERK11QModelIndex
	_ZNK18QStandardItemModel8sortRoleEv
	_ZNK18QStandardItemModel9findItemsERK7QString6QFlagsIN2Qt9MatchFlagEEi
	_ZNK18QStandardItemModel9mimeTypesEv
	_ZNK18QSyntaxHighlighter10metaObjectEv
	_ZNK18QSyntaxHighlighter12currentBlockEv
	_ZNK18QSyntaxHighlighter17currentBlockStateEv
	_ZNK18QSyntaxHighlighter18previousBlockStateEv
	_ZNK18QSyntaxHighlighter20currentBlockUserDataEv
	_ZNK18QSyntaxHighlighter6formatEi
	_ZNK18QSyntaxHighlighter8documentEv
	_ZNK18QTextCursorPrivate11blockLayoutER10QTextBlock
	_ZNK18QTextCursorPrivate18selectedTableCellsEPiS0_S0_S0_
	_ZNK18QTextCursorPrivate21complexSelectionTableEv
	_ZNK18QTextCursorPrivate9canDeleteEi
	_ZNK18QTextureGlyphCache12glyphPaddingEv
	_ZNK18QTextureGlyphCache15maxTextureWidthEv
	_ZNK18QTextureGlyphCache16maxTextureHeightEv
	_ZNK18QTextureGlyphCache18textureMapForGlyphEj6QFixed
	_ZNK18QTextureGlyphCache30calculateSubPixelPositionCountEj
	_ZNK19QBlitterPaintEngine4typeEv
	_ZNK19QColorDialogOptions10testOptionENS_17ColorDialogOptionE
	_ZNK19QColorDialogOptions11windowTitleEv
	_ZNK19QColorDialogOptions7optionsEv
	_ZNK19QOpenGLContextGroup10metaObjectEv
	_ZNK19QOpenGLContextGroup6sharesEv
	_ZNK19QOpenGLDebugMessage2idEv
	_ZNK19QOpenGLDebugMessage4typeEv
	_ZNK19QOpenGLDebugMessage6sourceEv
	_ZNK19QOpenGLDebugMessage7messageEv
	_ZNK19QOpenGLDebugMessage8severityEv
	_ZNK19QOpenGLDebugMessageeqERKS_
	_ZNK19QPainterPathStroker10dashOffsetEv
	_ZNK19QPainterPathStroker10miterLimitEv
	_ZNK19QPainterPathStroker11dashPatternEv
	_ZNK19QPainterPathStroker12createStrokeERK12QPainterPath
	_ZNK19QPainterPathStroker14curveThresholdEv
	_ZNK19QPainterPathStroker5widthEv
	_ZNK19QPainterPathStroker8capStyleEv
	_ZNK19QPainterPathStroker9joinStyleEv
	_ZNK19QScrollPrepareEvent10contentPosEv
	_ZNK19QScrollPrepareEvent12viewportSizeEv
	_ZNK19QScrollPrepareEvent15contentPosRangeEv
	_ZNK19QScrollPrepareEvent8startPosEv
	_ZNK19QTextDocumentLayout10idealWidthEv
	_ZNK19QTextDocumentLayout10metaObjectEv
	_ZNK19QTextDocumentLayout11cursorWidthEv
	_ZNK19QTextDocumentLayout12documentSizeEv
	_ZNK19QTextDocumentLayout12layoutStatusEv
	_ZNK19QTextDocumentLayout16dynamicPageCountEv
	_ZNK19QTextDocumentLayout17blockBoundingRectERK10QTextBlock
	_ZNK19QTextDocumentLayout17frameBoundingRectEP10QTextFrame
	_ZNK19QTextDocumentLayout17tableBoundingRectEP10QTextTable
	_ZNK19QTextDocumentLayout19contentHasAlignmentEv
	_ZNK19QTextDocumentLayout19dynamicDocumentSizeEv
	_ZNK19QTextDocumentLayout21tableCellBoundingRectEP10QTextTableRK14QTextTableCell
	_ZNK19QTextDocumentLayout7hitTestERK7QPointFN2Qt15HitTestAccuracyE
	_ZNK19QTextDocumentLayout9pageCountEv
	_ZNK19QTextDocumentWriter5codecEv
	_ZNK19QTextDocumentWriter6deviceEv
	_ZNK19QTextDocumentWriter6formatEv
	_ZNK19QTextDocumentWriter8fileNameEv
	_ZNK20QAccessibleInterface10focusChildEv
	_ZNK20QAccessibleInterface15backgroundColorEv
	_ZNK20QAccessibleInterface15foregroundColorEv
	_ZNK20QAccessibleInterface6windowEv
	_ZNK20QAccessibleInterface9relationsE6QFlagsIN11QAccessible12RelationFlagEE
	_ZNK20QOpenGLShaderProgram10metaObjectEv
	_ZNK20QOpenGLShaderProgram15uniformLocationEPKc
	_ZNK20QOpenGLShaderProgram15uniformLocationERK10QByteArray
	_ZNK20QOpenGLShaderProgram15uniformLocationERK7QString
	_ZNK20QOpenGLShaderProgram16patchVertexCountEv
	_ZNK20QOpenGLShaderProgram17attributeLocationEPKc
	_ZNK20QOpenGLShaderProgram17attributeLocationERK10QByteArray
	_ZNK20QOpenGLShaderProgram17attributeLocationERK7QString
	_ZNK20QOpenGLShaderProgram25maxGeometryOutputVerticesEv
	_ZNK20QOpenGLShaderProgram30defaultInnerTessellationLevelsEv
	_ZNK20QOpenGLShaderProgram30defaultOuterTessellationLevelsEv
	_ZNK20QOpenGLShaderProgram3logEv
	_ZNK20QOpenGLShaderProgram7shadersEv
	_ZNK20QOpenGLShaderProgram8isLinkedEv
	_ZNK20QOpenGLShaderProgram9programIdEv
	_ZNK20QPictureFormatPlugin10metaObjectEv
	_ZNK20QPlatformIntegration10themeNamesEv
	_ZNK20QPlatformIntegration12fontDatabaseEv
	_ZNK20QPlatformIntegration12inputContextEv
	_ZNK20QPlatformIntegration12possibleKeysEPK9QKeyEvent
	_ZNK20QPlatformIntegration13accessibilityEv
	_ZNK20QPlatformIntegration13hasCapabilityENS_10CapabilityE
	_ZNK20QPlatformIntegration15nativeInterfaceEv
	_ZNK20QPlatformIntegration18defaultWindowStateE6QFlagsIN2Qt10WindowTypeEE
	_ZNK20QPlatformIntegration19createPlatformThemeERK7QString
	_ZNK20QPlatformIntegration20createPlatformPixmapEN15QPlatformPixmap9PixelTypeE
	_ZNK20QPlatformIntegration22createImagePaintEngineEP12QPaintDevice
	_ZNK20QPlatformIntegration22queryKeyboardModifiersEv
	_ZNK20QPlatformIntegration27createPlatformOpenGLContextEP14QOpenGLContext
	_ZNK20QPlatformIntegration28createPlatformSessionManagerERK7QStringS2_
	_ZNK20QPlatformIntegration30createPlatformOffscreenSurfaceEP17QOffscreenSurface
	_ZNK20QPlatformIntegration33createPlatformSharedGraphicsCacheEPKc
	_ZNK20QPlatformIntegration4dragEv
	_ZNK20QPlatformIntegration8servicesEv
	_ZNK20QPlatformIntegration9clipboardEv
	_ZNK20QPlatformIntegration9styleHintENS_9StyleHintE
	_ZNK20QPlatformTextureList10metaObjectEv
	_ZNK20QPlatformTextureList5countEv
	_ZNK20QPlatformTextureList8geometryEi
	_ZNK20QPlatformTextureList8isLockedEv
	_ZNK20QPlatformTextureList9textureIdEi
	_ZNK20QPlatformThemePlugin10metaObjectEv
	_ZNK21QMessageDialogOptions11windowTitleEv
	_ZNK21QMessageDialogOptions12detailedTextEv
	_ZNK21QMessageDialogOptions15informativeTextEv
	_ZNK21QMessageDialogOptions15standardButtonsEv
	_ZNK21QMessageDialogOptions4iconEv
	_ZNK21QMessageDialogOptions4textEv
	_ZNK21QOpenGL2PaintEngineEx11createStateEP13QPainterState
	_ZNK21QOpenGL2PaintEngineEx22isNativePaintingActiveEv
	_ZNK21QOpenGL2PaintEngineEx22shouldDrawCachedGlyphsEP11QFontEngineRK10QTransform
	_ZNK21QOpenGL2PaintEngineEx36requiresPretransformedGlyphPositionsEP11QFontEngineRK10QTransform
	_ZNK21QOpenGL2PaintEngineEx4typeEv
	_ZNK21QOpenGLTextureBlitter9isCreatedEv
	_ZNK21QOpenGLVersionProfile11hasProfilesEv
	_ZNK21QOpenGLVersionProfile15isLegacyVersionEv
	_ZNK21QOpenGLVersionProfile7isValidEv
	_ZNK21QOpenGLVersionProfile7profileEv
	_ZNK21QOpenGLVersionProfile7versionEv
	_ZNK21QPaintEngineExPrivate17hasClipOperationsEv
	_ZNK21QPlatformBackingStore6windowEv
	_ZNK21QPlatformBackingStore7toImageEv
	_ZNK21QPlatformBackingStore9toTextureERK7QRegionP5QSize
	_ZNK21QPlatformDialogHelper10metaObjectEv
	_ZNK21QPlatformDialogHelper9styleHintENS_9StyleHintE
	_ZNK21QPlatformFontDatabase11defaultFontEv
	_ZNK21QPlatformFontDatabase13standardSizesEv
	_ZNK21QPlatformFontDatabase18fallbacksForFamilyERK7QStringN5QFont5StyleENS3_9StyleHintEN5QChar6ScriptE
	_ZNK21QPlatformFontDatabase19fontsAlwaysScalableEv
	_ZNK21QPlatformFontDatabase22resolveFontFamilyAliasERK7QString
	_ZNK21QPlatformFontDatabase7fontDirEv
	_ZNK21QPlatformInputContext10metaObjectEv
	_ZNK21QPlatformInputContext11isAnimatingEv
	_ZNK21QPlatformInputContext12keyboardRectEv
	_ZNK21QPlatformInputContext14inputDirectionEv
	_ZNK21QPlatformInputContext19inputMethodAcceptedEv
	_ZNK21QPlatformInputContext19isInputPanelVisibleEv
	_ZNK21QPlatformInputContext6localeEv
	_ZNK21QPlatformInputContext7isValidEv
	_ZNK21QPlatformScreenBuffer11isDestroyedEv
	_ZNK21QPlatformScreenBuffer7isReadyEv
	_ZNK21QRasterPlatformPixmap11paintEngineEv
	_ZNK21QRasterPlatformPixmap15hasAlphaChannelEv
	_ZNK21QRasterPlatformPixmap16devicePixelRatioEv
	_ZNK21QRasterPlatformPixmap30createCompatiblePlatformPixmapEv
	_ZNK21QRasterPlatformPixmap6metricEN12QPaintDevice17PaintDeviceMetricE
	_ZNK21QRasterPlatformPixmap7toImageERK5QRect
	_ZNK21QRasterPlatformPixmap7toImageEv
	_ZNK21QTextDocumentFragment11toPlainTextEv
	_ZNK21QTextDocumentFragment6toHtmlERK10QByteArray
	_ZNK21QTextDocumentFragment7isEmptyEv
	_ZNK21QTextFormatCollection15hasFormatCachedERK11QTextFormat
	_ZNK21QTextFormatCollection17objectFormatIndexEi
	_ZNK21QTextFormatCollection6formatEi
	_ZNK22QAccessibleApplication10childCountEv
	_ZNK22QAccessibleApplication10focusChildEv
	_ZNK22QAccessibleApplication12indexOfChildEPK20QAccessibleInterface
	_ZNK22QAccessibleApplication4roleEv
	_ZNK22QAccessibleApplication4textEN11QAccessible4TextE
	_ZNK22QAccessibleApplication5childEi
	_ZNK22QAccessibleApplication5stateEv
	_ZNK22QAccessibleApplication6parentEv
	_ZNK22QAccessibleApplication6windowEv
	_ZNK22QGuiApplicationPrivate15isWindowBlockedEP7QWindowPS1_
	_ZNK22QGuiApplicationPrivate21applyQIconStyleHelperEN5QIcon4ModeERK7QPixmap
	_ZNK22QInputMethodQueryEvent5valueEN2Qt16InputMethodQueryE
	_ZNK22QPlatformOpenGLContext24defaultFramebufferObjectEP16QPlatformSurface
	_ZNK22QPlatformOpenGLContext7contextEv
	_ZNK22QPlatformOpenGLContext7isValidEv
	_ZNK22QPlatformOpenGLContext9isSharingEv
	_ZNK23QAccessibleBridgePlugin10metaObjectEv
	_ZNK23QPlatformDragQtResponse10answerRectEv
	_ZNK23QPlatformDropQtResponse10isAcceptedEv
	_ZNK23QPlatformDropQtResponse14acceptedActionEv
	_ZNK23QPlatformSessionManager10sessionKeyEv
	_ZNK23QPlatformSessionManager11restartHintEv
	_ZNK23QPlatformSessionManager14discardCommandEv
	_ZNK23QPlatformSessionManager14restartCommandEv
	_ZNK23QPlatformSessionManager8isPhase2Ev
	_ZNK23QPlatformSessionManager9sessionIdEv
	_ZNK23QPlatformSystemTrayIcon10createMenuEv
	_ZNK23QPlatformSystemTrayIcon10metaObjectEv
	_ZNK23QWindowStateChangeEvent10isOverrideEv
	_ZNK24QAbstractLayoutStyleInfo10hasChangedEv
	_ZNK24QAbstractLayoutStyleInfo14perItemSpacingEN13QLayoutPolicy11ControlTypeES1_N2Qt11OrientationE
	_ZNK24QAbstractLayoutStyleInfo21combinedLayoutSpacingE6QFlagsIN13QLayoutPolicy11ControlTypeEES3_N2Qt11OrientationE
	_ZNK24QAccessibleTextInterface12textAtOffsetEiN11QAccessible16TextBoundaryTypeEPiS2_
	_ZNK24QAccessibleTextInterface15textAfterOffsetEiN11QAccessible16TextBoundaryTypeEPiS2_
	_ZNK24QAccessibleTextInterface16textBeforeOffsetEiN11QAccessible16TextBoundaryTypeEPiS2_
	_ZNK24QBlittablePlatformPixmap11paintEngineEv
	_ZNK24QBlittablePlatformPixmap15hasAlphaChannelEv
	_ZNK24QBlittablePlatformPixmap16devicePixelRatioEv
	_ZNK24QBlittablePlatformPixmap6metricEN12QPaintDevice17PaintDeviceMetricE
	_ZNK24QBlittablePlatformPixmap7toImageEv
	_ZNK24QBlittablePlatformPixmap9blittableEv
	_ZNK24QOpenGLCustomShaderStage6sourceEv
	_ZNK24QOpenGLFramebufferObject10attachmentEv
	_ZNK24QOpenGLFramebufferObject4sizeEv
	_ZNK24QOpenGLFramebufferObject6formatEv
	_ZNK24QOpenGLFramebufferObject6handleEv
	_ZNK24QOpenGLFramebufferObject7isBoundEv
	_ZNK24QOpenGLFramebufferObject7isValidEv
	_ZNK24QOpenGLFramebufferObject7textureEv
	_ZNK24QOpenGLFramebufferObject7toImageEv
	_ZNK24QOpenGLTextureGlyphCache12glyphPaddingEv
	_ZNK24QOpenGLTextureGlyphCache15maxTextureWidthEv
	_ZNK24QOpenGLTextureGlyphCache16maxTextureHeightEv
	_ZNK24QOpenGLVertexArrayObject10metaObjectEv
	_ZNK24QOpenGLVertexArrayObject8objectIdEv
	_ZNK24QOpenGLVertexArrayObject9isCreatedEv
	_ZNK24QPagedPaintDevicePrivate10pageLayoutEv
	_ZNK24QPlatformNativeInterface10metaObjectEv
	_ZNK24QPlatformNativeInterface14windowPropertyEP15QPlatformWindowRK7QString
	_ZNK24QPlatformNativeInterface14windowPropertyEP15QPlatformWindowRK7QStringRK8QVariant
	_ZNK24QPlatformNativeInterface16windowPropertiesEP15QPlatformWindow
	_ZNK24QSupportedWritingSystems9supportedEN13QFontDatabase13WritingSystemE
	_ZNK25QPlatformFileDialogHelper10metaObjectEv
	_ZNK25QPlatformFileDialogHelper14isSupportedUrlERK4QUrl
	_ZNK25QPlatformFileDialogHelper7optionsEv
	_ZNK25QPlatformFontDialogHelper10metaObjectEv
	_ZNK25QPlatformFontDialogHelper7optionsEv
	_ZNK25QPlatformOffscreenSurface16offscreenSurfaceEv
	_ZNK25QPlatformOffscreenSurface6formatEv
	_ZNK25QPlatformOffscreenSurface6screenEv
	_ZNK25QPlatformOffscreenSurface7isValidEv
	_ZNK26QAccessibleActionInterface19localizedActionNameERK7QString
	_ZNK26QAccessibleActionInterface26localizedActionDescriptionERK7QString
	_ZNK26QOpenGLEngineShaderManager10metaObjectEv
	_ZNK26QPlatformColorDialogHelper10metaObjectEv
	_ZNK26QPlatformColorDialogHelper7optionsEv
	_ZNK26QPlatformIntegrationPlugin10metaObjectEv
	_ZNK26QPlatformScreenPageFlipper10metaObjectEv
	_ZNK27QAbstractTextDocumentLayout10metaObjectEv
	_ZNK27QAbstractTextDocumentLayout11paintDeviceEv
	_ZNK27QAbstractTextDocumentLayout16handlerForObjectEi
	_ZNK27QAbstractTextDocumentLayout8anchorAtERK7QPointF
	_ZNK27QAbstractTextDocumentLayout8documentEv
	_ZNK27QOpenGLPixelTransferOptions10skipImagesEv
	_ZNK27QOpenGLPixelTransferOptions10skipPixelsEv
	_ZNK27QOpenGLPixelTransferOptions11imageHeightEv
	_ZNK27QOpenGLPixelTransferOptions18isSwapBytesEnabledEv
	_ZNK27QOpenGLPixelTransferOptions26isLeastSignificantBitFirstEv
	_ZNK27QOpenGLPixelTransferOptions8skipRowsEv
	_ZNK27QOpenGLPixelTransferOptions9alignmentEv
	_ZNK27QOpenGLPixelTransferOptions9rowLengthEv
	_ZNK27QPlatformInputContextPlugin10metaObjectEv
	_ZNK27QRegularExpressionValidator10metaObjectEv
	_ZNK27QRegularExpressionValidator17regularExpressionEv
	_ZNK27QRegularExpressionValidator8validateER7QStringRi
	_ZNK28QApplicationStateChangeEvent16applicationStateEv
	_ZNK28QPlatformMessageDialogHelper10metaObjectEv
	_ZNK28QPlatformMessageDialogHelper7optionsEv
	_ZNK28QPlatformSharedGraphicsCache10metaObjectEv
	_ZNK29QScreenOrientationChangeEvent11orientationEv
	_ZNK29QScreenOrientationChangeEvent6screenEv
	_ZNK30QOpenGLFramebufferObjectFormat10attachmentEv
	_ZNK30QOpenGLFramebufferObjectFormat13textureTargetEv
	_ZNK30QOpenGLFramebufferObjectFormat21internalTextureFormatEv
	_ZNK30QOpenGLFramebufferObjectFormat6mipmapEv
	_ZNK30QOpenGLFramebufferObjectFormat7samplesEv
	_ZNK30QOpenGLFramebufferObjectFormateqERKS_
	_ZNK30QOpenGLFramebufferObjectFormatneERKS_
	_ZNK31QOpenGLMultiGroupSharedResource9resourcesEv
	_ZNK4QCss11Declaration10brushValueERK8QPalette
	_ZNK4QCss11Declaration10colorValueERK8QPalette
	_ZNK4QCss11Declaration10styleValueEv
	_ZNK4QCss11Declaration11brushValuesEP6QBrushRK8QPalette
	_ZNK4QCss11Declaration11colorValuesEP6QColorRK8QPalette
	_ZNK4QCss11Declaration11originValueEv
	_ZNK4QCss11Declaration11repeatValueEv
	_ZNK4QCss11Declaration11styleValuesEPNS_11BorderStyleE
	_ZNK4QCss11Declaration13positionValueEv
	_ZNK4QCss11Declaration14alignmentValueEv
	_ZNK4QCss11Declaration15attachmentValueEv
	_ZNK4QCss11Declaration16borderImageValueEP7QStringPiPNS_8TileModeES5_
	_ZNK4QCss11Declaration18styleFeaturesValueEv
	_ZNK4QCss11Declaration8intValueEPiPKc
	_ZNK4QCss11Declaration8uriValueEv
	_ZNK4QCss11Declaration9iconValueEv
	_ZNK4QCss11Declaration9realValueEPdPKc
	_ZNK4QCss11Declaration9rectValueEv
	_ZNK4QCss11Declaration9sizeValueEv
	_ZNK4QCss13StyleSelector14nodeNameEqualsENS0_7NodePtrERK7QString
	_ZNK4QCss13StyleSelector7nodeIdsENS0_7NodePtrE
	_ZNK4QCss5Value8toStringEv
	_ZNK4QCss6Parser13unquotedLexemEv
	_ZNK4QCss6Symbol5lexemEv
	_ZNK4QCss8Selector11pseudoClassEPy
	_ZNK4QCss8Selector11specificityEv
	_ZNK4QCss8Selector13pseudoElementEv
	_ZNK4QPen10dashOffsetEv
	_ZNK4QPen10isCosmeticEv
	_ZNK4QPen10miterLimitEv
	_ZNK4QPen11dashPatternEv
	_ZNK4QPen5brushEv
	_ZNK4QPen5colorEv
	_ZNK4QPen5styleEv
	_ZNK4QPen5widthEv
	_ZNK4QPen6widthFEv
	_ZNK4QPen7isSolidEv
	_ZNK4QPen8capStyleEv
	_ZNK4QPen9joinStyleEv
	_ZNK4QPencv8QVariantEv
	_ZNK4QPeneqERKS_
	_ZNK5QDrag10dragCursorEN2Qt10DropActionE
	_ZNK5QDrag10metaObjectEv
	_ZNK5QDrag13defaultActionEv
	_ZNK5QDrag16supportedActionsEv
	_ZNK5QDrag6pixmapEv
	_ZNK5QDrag6sourceEv
	_ZNK5QDrag6targetEv
	_ZNK5QDrag7hotSpotEv
	_ZNK5QDrag8mimeDataEv
	_ZNK5QFont10exactMatchEv
	_ZNK5QFont10fixedPitchEv
	_ZNK5QFont10pointSizeFEv
	_ZNK5QFont11wordSpacingEv
	_ZNK5QFont13defaultFamilyEv
	_ZNK5QFont13letterSpacingEv
	_ZNK5QFont13styleStrategyEv
	_ZNK5QFont14capitalizationEv
	_ZNK5QFont14lastResortFontEv
	_ZNK5QFont16lastResortFamilyEv
	_ZNK5QFont17hintingPreferenceEv
	_ZNK5QFont17letterSpacingTypeEv
	_ZNK5QFont3keyEv
	_ZNK5QFont5styleEv
	_ZNK5QFont6familyEv
	_ZNK5QFont6weightEv
	_ZNK5QFont7kerningEv
	_ZNK5QFont7rawModeEv
	_ZNK5QFont7rawNameEv
	_ZNK5QFont7resolveERKS_
	_ZNK5QFont7stretchEv
	_ZNK5QFont8isCopyOfERKS_
	_ZNK5QFont8overlineEv
	_ZNK5QFont8toStringEv
	_ZNK5QFont9pixelSizeEv
	_ZNK5QFont9pointSizeEv
	_ZNK5QFont9strikeOutEv
	_ZNK5QFont9styleHintEv
	_ZNK5QFont9styleNameEv
	_ZNK5QFont9underlineEv
	_ZNK5QFontcv8QVariantEv
	_ZNK5QFonteqERKS_
	_ZNK5QFontltERKS_
	_ZNK5QFontneERKS_
	_ZNK5QIcon10actualSizeEP7QWindowRK5QSizeNS_4ModeENS_5StateE
	_ZNK5QIcon10actualSizeERK5QSizeNS_4ModeENS_5StateE
	_ZNK5QIcon10isDetachedEv
	_ZNK5QIcon14availableSizesENS_4ModeENS_5StateE
	_ZNK5QIcon4nameEv
	_ZNK5QIcon5paintEP8QPainterRK5QRect6QFlagsIN2Qt13AlignmentFlagEENS_4ModeENS_5StateE
	_ZNK5QIcon6isNullEv
	_ZNK5QIcon6pixmapEP7QWindowRK5QSizeNS_4ModeENS_5StateE
	_ZNK5QIcon6pixmapERK5QSizeNS_4ModeENS_5StateE
	_ZNK5QIcon8cacheKeyEv
	_ZNK5QIconcv8QVariantEv
	_ZNK6QBrush12textureImageEv
	_ZNK6QBrush7textureEv
	_ZNK6QBrush8gradientEv
	_ZNK6QBrush8isOpaqueEv
	_ZNK6QBrushcv8QVariantEv
	_ZNK6QBrusheqERKS_
	_ZNK6QColor10lightnessFEv
	_ZNK6QColor10saturationEv
	_ZNK6QColor11saturationFEv
	_ZNK6QColor13hslSaturationEv
	_ZNK6QColor13hsvSaturationEv
	_ZNK6QColor14hslSaturationFEv
	_ZNK6QColor14hsvSaturationFEv
	_ZNK6QColor3hueEv
	_ZNK6QColor3redEv
	_ZNK6QColor3rgbEv
	_ZNK6QColor4blueEv
	_ZNK6QColor4cyanEv
	_ZNK6QColor4darkEi
	_ZNK6QColor4hueFEv
	_ZNK6QColor4nameENS_10NameFormatE
	_ZNK6QColor4nameEv
	_ZNK6QColor4redFEv
	_ZNK6QColor4rgbaEv
	_ZNK6QColor5alphaEv
	_ZNK6QColor5blackEv
	_ZNK6QColor5blueFEv
	_ZNK6QColor5cyanFEv
	_ZNK6QColor5greenEv
	_ZNK6QColor5lightEi
	_ZNK6QColor5toHslEv
	_ZNK6QColor5toHsvEv
	_ZNK6QColor5toRgbEv
	_ZNK6QColor5valueEv
	_ZNK6QColor6alphaFEv
	_ZNK6QColor6blackFEv
	_ZNK6QColor6getHslEPiS0_S0_S0_
	_ZNK6QColor6getHsvEPiS0_S0_S0_
	_ZNK6QColor6getRgbEPiS0_S0_S0_
	_ZNK6QColor6greenFEv
	_ZNK6QColor6hslHueEv
	_ZNK6QColor6hsvHueEv
	_ZNK6QColor6toCmykEv
	_ZNK6QColor6valueFEv
	_ZNK6QColor6yellowEv
	_ZNK6QColor7getHslFEPdS0_S0_S0_
	_ZNK6QColor7getHsvFEPdS0_S0_S0_
	_ZNK6QColor7getRgbFEPdS0_S0_S0_
	_ZNK6QColor7hslHueFEv
	_ZNK6QColor7hsvHueFEv
	_ZNK6QColor7magentaEv
	_ZNK6QColor7yellowFEv
	_ZNK6QColor8magentaFEv
	_ZNK6QColor9convertToENS_4SpecE
	_ZNK6QColor9lightnessEv
	_ZNK6QColorcv8QVariantEv
	_ZNK6QColoreqERKS_
	_ZNK6QColorneERKS_
	_ZNK6QImage10colorCountEv
	_ZNK6QImage10colorTableEv
	_ZNK6QImage10isDetachedEv
	_ZNK6QImage10pixelIndexEii
	_ZNK6QImage10rgbSwappedEv
	_ZNK6QImage11isGrayscaleEv
	_ZNK6QImage11paintEngineEv
	_ZNK6QImage11transformedERK10QTransformN2Qt18TransformationModeE
	_ZNK6QImage11transformedERK7QMatrixN2Qt18TransformationModeE
	_ZNK6QImage12alphaChannelEv
	_ZNK6QImage12bytesPerLineEv
	_ZNK6QImage13bitPlaneCountEv
	_ZNK6QImage13constScanLineEi
	_ZNK6QImage13dotsPerMeterXEv
	_ZNK6QImage13dotsPerMeterYEv
	_ZNK6QImage13scaledToWidthEiN2Qt18TransformationModeE
	_ZNK6QImage14scaledToHeightEiN2Qt18TransformationModeE
	_ZNK6QImage15convertToFormatENS_6FormatE6QFlagsIN2Qt19ImageConversionFlagEE
	_ZNK6QImage15convertToFormatENS_6FormatERK7QVectorIjE6QFlagsIN2Qt19ImageConversionFlagEE
	_ZNK6QImage15createAlphaMaskE6QFlagsIN2Qt19ImageConversionFlagEE
	_ZNK6QImage15hasAlphaChannelEv
	_ZNK6QImage15mirrored_helperEbb
	_ZNK6QImage16devicePixelRatioEv
	_ZNK6QImage17rgbSwapped_helperEv
	_ZNK6QImage19createHeuristicMaskEb
	_ZNK6QImage19createMaskFromColorEjN2Qt8MaskModeE
	_ZNK6QImage22convertToFormat_helperENS_6FormatE6QFlagsIN2Qt19ImageConversionFlagEE
	_ZNK6QImage4bitsEv
	_ZNK6QImage4copyERK5QRect
	_ZNK6QImage4rectEv
	_ZNK6QImage4saveEP9QIODevicePKci
	_ZNK6QImage4saveERK7QStringPKci
	_ZNK6QImage4sizeEv
	_ZNK6QImage4textERK7QString
	_ZNK6QImage5colorEi
	_ZNK6QImage5depthEv
	_ZNK6QImage5pixelEii
	_ZNK6QImage5validEii
	_ZNK6QImage5widthEv
	_ZNK6QImage6formatEv
	_ZNK6QImage6heightEv
	_ZNK6QImage6isNullEv
	_ZNK6QImage6metricEN12QPaintDevice17PaintDeviceMetricE
	_ZNK6QImage6offsetEv
	_ZNK6QImage6scaledERK5QSizeN2Qt15AspectRatioModeENS3_18TransformationModeE
	_ZNK6QImage7allGrayEv
	_ZNK6QImage7devTypeEv
	_ZNK6QImage8cacheKeyEv
	_ZNK6QImage8mirroredEbb
	_ZNK6QImage8scanLineEi
	_ZNK6QImage8textKeysEv
	_ZNK6QImage9byteCountEv
	_ZNK6QImage9constBitsEv
	_ZNK6QImagecv8QVariantEv
	_ZNK6QImageeqERKS_
	_ZNK6QImageneERKS_
	_ZNK6QMovie10frameCountEv
	_ZNK6QMovie10metaObjectEv
	_ZNK6QMovie12currentImageEv
	_ZNK6QMovie13currentPixmapEv
	_ZNK6QMovie14nextFrameDelayEv
	_ZNK6QMovie15backgroundColorEv
	_ZNK6QMovie18currentFrameNumberEv
	_ZNK6QMovie5speedEv
	_ZNK6QMovie5stateEv
	_ZNK6QMovie6deviceEv
	_ZNK6QMovie6formatEv
	_ZNK6QMovie7isValidEv
	_ZNK6QMovie8fileNameEv
	_ZNK6QMovie9cacheModeEv
	_ZNK6QMovie9frameRectEv
	_ZNK6QMovie9loopCountEv
	_ZNK7QBezier10addIfCloseEPdd
	_ZNK7QBezier11getSubRangeEdd
	_ZNK7QBezier12addToPolygonEP9QPolygonFd
	_ZNK7QBezier12addToPolygonER11QDataBufferI7QPointFEd
	_ZNK7QBezier16bezierOnIntervalEdd
	_ZNK7QBezier17stationaryYPointsERdS0_
	_ZNK7QBezier5mapByERK10QTransform
	_ZNK7QBezier5tForYEddd
	_ZNK7QBezier6boundsEv
	_ZNK7QBezier6lengthEd
	_ZNK7QBezier7shiftedEPS_idf
	_ZNK7QBezier9tAtLengthEd
	_ZNK7QBezier9toPolygonEd
	_ZNK7QBitmap11transformedERK10QTransform
	_ZNK7QBitmap11transformedERK7QMatrix
	_ZNK7QBitmapcv8QVariantEv
	_ZNK7QCursor4maskEv
	_ZNK7QCursor5shapeEv
	_ZNK7QCursor6bitmapEv
	_ZNK7QCursor6pixmapEv
	_ZNK7QCursor7hotSpotEv
	_ZNK7QCursorcv8QVariantEv
	_ZNK7QMatrix12mapToPolygonERK5QRect
	_ZNK7QMatrix3mapERK12QPainterPath
	_ZNK7QMatrix3mapERK5QLine
	_ZNK7QMatrix3mapERK6QLineF
	_ZNK7QMatrix3mapERK6QPoint
	_ZNK7QMatrix3mapERK7QPointF
	_ZNK7QMatrix3mapERK7QRegion
	_ZNK7QMatrix3mapERK8QPolygon
	_ZNK7QMatrix3mapERK9QPolygonF
	_ZNK7QMatrix3mapEddPdS0_
	_ZNK7QMatrix3mapEiiPiS0_
	_ZNK7QMatrix7mapRectERK5QRect
	_ZNK7QMatrix7mapRectERK6QRectF
	_ZNK7QMatrix8invertedEPb
	_ZNK7QMatrixcv8QVariantEv
	_ZNK7QMatrixeqERKS_
	_ZNK7QMatrixmlERKS_
	_ZNK7QMatrixneERKS_
	_ZNK7QPixmap10isDetachedEv
	_ZNK7QPixmap11paintEngineEv
	_ZNK7QPixmap11transformedERK10QTransformN2Qt18TransformationModeE
	_ZNK7QPixmap11transformedERK7QMatrixN2Qt18TransformationModeE
	_ZNK7QPixmap13scaledToWidthEiN2Qt18TransformationModeE
	_ZNK7QPixmap14scaledToHeightEiN2Qt18TransformationModeE
	_ZNK7QPixmap15hasAlphaChannelEv
	_ZNK7QPixmap16devicePixelRatioEv
	_ZNK7QPixmap19createHeuristicMaskEb
	_ZNK7QPixmap19createMaskFromColorERK6QColorN2Qt8MaskModeE
	_ZNK7QPixmap4copyERK5QRect
	_ZNK7QPixmap4maskEv
	_ZNK7QPixmap4rectEv
	_ZNK7QPixmap4saveEP9QIODevicePKci
	_ZNK7QPixmap4saveERK7QStringPKci
	_ZNK7QPixmap4sizeEv
	_ZNK7QPixmap5depthEv
	_ZNK7QPixmap5widthEv
	_ZNK7QPixmap6handleEv
	_ZNK7QPixmap6heightEv
	_ZNK7QPixmap6isNullEv
	_ZNK7QPixmap6metricEN12QPaintDevice17PaintDeviceMetricE
	_ZNK7QPixmap6scaledERK5QSizeN2Qt15AspectRatioModeENS3_18TransformationModeE
	_ZNK7QPixmap7devTypeEv
	_ZNK7QPixmap7toImageEv
	_ZNK7QPixmap8cacheKeyEv
	_ZNK7QPixmap8hasAlphaEv
	_ZNK7QPixmap9doImageIOEP12QImageWriteri
	_ZNK7QPixmap9isQBitmapEv
	_ZNK7QPixmapcv8QVariantEv
	_ZNK7QRegion10intersectsERK5QRect
	_ZNK7QRegion10intersectsERKS_
	_ZNK7QRegion10subtractedERKS_
	_ZNK7QRegion10translatedEii
	_ZNK7QRegion11intersectedERK5QRect
	_ZNK7QRegion11intersectedERKS_
	_ZNK7QRegion12boundingRectEv
	_ZNK7QRegion4copyEv
	_ZNK7QRegion5rectsEv
	_ZNK7QRegion5xoredERKS_
	_ZNK7QRegion6isNullEv
	_ZNK7QRegion6unitedERK5QRect
	_ZNK7QRegion6unitedERKS_
	_ZNK7QRegion7isEmptyEv
	_ZNK7QRegion8containsERK5QRect
	_ZNK7QRegion8containsERK6QPoint
	_ZNK7QRegion9rectCountEv
	_ZNK7QRegionanERK5QRect
	_ZNK7QRegionanERKS_
	_ZNK7QRegioncv8QVariantEv
	_ZNK7QRegioneoERKS_
	_ZNK7QRegioneqERKS_
	_ZNK7QRegionmiERKS_
	_ZNK7QRegionorERKS_
	_ZNK7QRegionplERK5QRect
	_ZNK7QRegionplERKS_
	_ZNK7QScreen10isPortraitEN2Qt17ScreenOrientationE
	_ZNK7QScreen10mapBetweenEN2Qt17ScreenOrientationES1_RK5QRect
	_ZNK7QScreen10metaObjectEv
	_ZNK7QScreen11isLandscapeEN2Qt17ScreenOrientationE
	_ZNK7QScreen11orientationEv
	_ZNK7QScreen11refreshRateEv
	_ZNK7QScreen11virtualSizeEv
	_ZNK7QScreen12angleBetweenEN2Qt17ScreenOrientationES1_
	_ZNK7QScreen12physicalSizeEv
	_ZNK7QScreen13availableSizeEv
	_ZNK7QScreen15virtualGeometryEv
	_ZNK7QScreen15virtualSiblingsEv
	_ZNK7QScreen16devicePixelRatioEv
	_ZNK7QScreen16transformBetweenEN2Qt17ScreenOrientationES1_RK5QRect
	_ZNK7QScreen17availableGeometryEv
	_ZNK7QScreen17nativeOrientationEv
	_ZNK7QScreen18logicalDotsPerInchEv
	_ZNK7QScreen18primaryOrientationEv
	_ZNK7QScreen19logicalDotsPerInchXEv
	_ZNK7QScreen19logicalDotsPerInchYEv
	_ZNK7QScreen19physicalDotsPerInchEv
	_ZNK7QScreen20availableVirtualSizeEv
	_ZNK7QScreen20physicalDotsPerInchXEv
	_ZNK7QScreen20physicalDotsPerInchYEv
	_ZNK7QScreen21orientationUpdateMaskEv
	_ZNK7QScreen24availableVirtualGeometryEv
	_ZNK7QScreen4nameEv
	_ZNK7QScreen4sizeEv
	_ZNK7QScreen5depthEv
	_ZNK7QScreen6handleEv
	_ZNK7QScreen8geometryEv
	_ZNK7QWindow10isTopLevelEv
	_ZNK7QWindow10metaObjectEv
	_ZNK7QWindow10visibilityEv
	_ZNK7QWindow11focusObjectEv
	_ZNK7QWindow11mapToGlobalERK6QPoint
	_ZNK7QWindow11maximumSizeEv
	_ZNK7QWindow11minimumSizeEv
	_ZNK7QWindow11surfaceTypeEv
	_ZNK7QWindow11windowStateEv
	_ZNK7QWindow12frameMarginsEv
	_ZNK7QWindow12isAncestorOfEPKS_NS_12AncestorModeE
	_ZNK7QWindow13frameGeometryEv
	_ZNK7QWindow13framePositionEv
	_ZNK7QWindow13mapFromGlobalERK6QPoint
	_ZNK7QWindow13sizeIncrementEv
	_ZNK7QWindow13surfaceHandleEv
	_ZNK7QWindow14accessibleRootEv
	_ZNK7QWindow15requestedFormatEv
	_ZNK7QWindow15transientParentEv
	_ZNK7QWindow16devicePixelRatioEv
	_ZNK7QWindow18contentOrientationEv
	_ZNK7QWindow4iconEv
	_ZNK7QWindow4maskEv
	_ZNK7QWindow4sizeEv
	_ZNK7QWindow4typeEv
	_ZNK7QWindow5flagsEv
	_ZNK7QWindow5titleEv
	_ZNK7QWindow5winIdEv
	_ZNK7QWindow6cursorEv
	_ZNK7QWindow6formatEv
	_ZNK7QWindow6handleEv
	_ZNK7QWindow6parentEv
	_ZNK7QWindow6screenEv
	_ZNK7QWindow7isModalEv
	_ZNK7QWindow7opacityEv
	_ZNK7QWindow8baseSizeEv
	_ZNK7QWindow8filePathEv
	_ZNK7QWindow8geometryEv
	_ZNK7QWindow8isActiveEv
	_ZNK7QWindow8modalityEv
	_ZNK7QWindow9isExposedEv
	_ZNK7QWindow9isVisibleEv
	_ZNK8QPainter10backgroundEv
	_ZNK8QPainter10clipRegionEv
	_ZNK8QPainter11brushOriginEv
	_ZNK8QPainter11fontMetricsEv
	_ZNK8QPainter11hasClippingEv
	_ZNK8QPainter11paintEngineEv
	_ZNK8QPainter11renderHintsEv
	_ZNK8QPainter11worldMatrixEv
	_ZNK8QPainter12deviceMatrixEv
	_ZNK8QPainter13matrixEnabledEv
	_ZNK8QPainter14backgroundModeEv
	_ZNK8QPainter14combinedMatrixEv
	_ZNK8QPainter14worldTransformEv
	_ZNK8QPainter15compositionModeEv
	_ZNK8QPainter15deviceTransformEv
	_ZNK8QPainter15layoutDirectionEv
	_ZNK8QPainter16clipBoundingRectEv
	_ZNK8QPainter17combinedTransformEv
	_ZNK8QPainter18worldMatrixEnabledEv
	_ZNK8QPainter20viewTransformEnabledEv
	_ZNK8QPainter3penEv
	_ZNK8QPainter4fontEv
	_ZNK8QPainter5brushEv
	_ZNK8QPainter6deviceEv
	_ZNK8QPainter6matrixEv
	_ZNK8QPainter6windowEv
	_ZNK8QPainter7opacityEv
	_ZNK8QPainter8clipPathEv
	_ZNK8QPainter8fontInfoEv
	_ZNK8QPainter8isActiveEv
	_ZNK8QPainter8viewportEv
	_ZNK8QPainter9transformEv
	_ZNK8QPalette10isBrushSetENS_10ColorGroupENS_9ColorRoleE
	_ZNK8QPalette5brushENS_10ColorGroupENS_9ColorRoleE
	_ZNK8QPalette7isEqualENS_10ColorGroupES0_
	_ZNK8QPalette7resolveERKS_
	_ZNK8QPalette8cacheKeyEv
	_ZNK8QPalette8isCopyOfERKS_
	_ZNK8QPalettecv8QVariantEv
	_ZNK8QPaletteeqERKS_
	_ZNK8QPicture10isDetachedEv
	_ZNK8QPicture11paintEngineEv
	_ZNK8QPicture12boundingRectEv
	_ZNK8QPicture4dataEv
	_ZNK8QPicture4sizeEv
	_ZNK8QPicture6isNullEv
	_ZNK8QPicture6metricEN12QPaintDevice17PaintDeviceMetricE
	_ZNK8QPicture7devTypeEv
	_ZNK8QPolygon10subtractedERKS_
	_ZNK8QPolygon10translatedEii
	_ZNK8QPolygon11intersectedERKS_
	_ZNK8QPolygon12boundingRectEv
	_ZNK8QPolygon13containsPointERK6QPointN2Qt8FillRuleE
	_ZNK8QPolygon5pointEiPiS0_
	_ZNK8QPolygon6unitedERKS_
	_ZNK8QPolygoncv8QVariantEv
	_ZNK8QRawFont10familyNameEv
	_ZNK8QRawFont10unitsPerEmEv
	_ZNK8QRawFont12boundingRectEj
	_ZNK8QRawFont12maxCharWidthEv
	_ZNK8QRawFont12pathForGlyphEj
	_ZNK8QRawFont13lineThicknessEv
	_ZNK8QRawFont16alphaMapForGlyphEjNS_16AntialiasingTypeERK10QTransform
	_ZNK8QRawFont16averageCharWidthEv
	_ZNK8QRawFont17hintingPreferenceEv
	_ZNK8QRawFont17supportsCharacterE5QChar
	_ZNK8QRawFont17supportsCharacterEj
	_ZNK8QRawFont17underlinePositionEv
	_ZNK8QRawFont20glyphIndexesForCharsEPK5QChariPjPi
	_ZNK8QRawFont21glyphIndexesForStringERK7QString
	_ZNK8QRawFont23advancesForGlyphIndexesEPKjP7QPointFi
	_ZNK8QRawFont23advancesForGlyphIndexesEPKjP7QPointFi6QFlagsINS_10LayoutFlagEE
	_ZNK8QRawFont23supportedWritingSystemsEv
	_ZNK8QRawFont5styleEv
	_ZNK8QRawFont6ascentEv
	_ZNK8QRawFont6weightEv
	_ZNK8QRawFont7descentEv
	_ZNK8QRawFont7isValidEv
	_ZNK8QRawFont7leadingEv
	_ZNK8QRawFont7xHeightEv
	_ZNK8QRawFont9fontTableEPKc
	_ZNK8QRawFont9pixelSizeEv
	_ZNK8QRawFont9styleNameEv
	_ZNK8QRawFonteqERKS_
	_ZNK8QSurface12surfaceClassEv
	_ZNK8QSurface14supportsOpenGLEv
	_ZNK9QFontInfo10exactMatchEv
	_ZNK9QFontInfo10fixedPitchEv
	_ZNK9QFontInfo10pointSizeFEv
	_ZNK9QFontInfo5styleEv
	_ZNK9QFontInfo6familyEv
	_ZNK9QFontInfo6italicEv
	_ZNK9QFontInfo6weightEv
	_ZNK9QFontInfo7rawModeEv
	_ZNK9QFontInfo8overlineEv
	_ZNK9QFontInfo9pixelSizeEv
	_ZNK9QFontInfo9pointSizeEv
	_ZNK9QFontInfo9strikeOutEv
	_ZNK9QFontInfo9styleHintEv
	_ZNK9QFontInfo9styleNameEv
	_ZNK9QFontInfo9underlineEv
	_ZNK9QGlyphRun12boundingRectEv
	_ZNK9QGlyphRun12glyphIndexesEv
	_ZNK9QGlyphRun13isRightToLeftEv
	_ZNK9QGlyphRun5flagsEv
	_ZNK9QGlyphRun7isEmptyEv
	_ZNK9QGlyphRun7rawFontEv
	_ZNK9QGlyphRun8overlineEv
	_ZNK9QGlyphRun9positionsEv
	_ZNK9QGlyphRun9strikeOutEv
	_ZNK9QGlyphRun9underlineEv
	_ZNK9QGlyphRuneqERKS_
	_ZNK9QGradient14coordinateModeEv
	_ZNK9QGradient17interpolationModeEv
	_ZNK9QGradient5stopsEv
	_ZNK9QGradienteqERKS_
	_ZNK9QKeyEvent7matchesEN12QKeySequence11StandardKeyE
	_ZNK9QKeyEvent9modifiersEv
	_ZNK9QPageSize10rectPixelsEi
	_ZNK9QPageSize10rectPointsEv
	_ZNK9QPageSize10sizePixelsEi
	_ZNK9QPageSize10sizePointsEv
	_ZNK9QPageSize14definitionSizeEv
	_ZNK9QPageSize14isEquivalentToERKS_
	_ZNK9QPageSize15definitionUnitsEv
	_ZNK9QPageSize2idEv
	_ZNK9QPageSize3keyEv
	_ZNK9QPageSize4nameEv
	_ZNK9QPageSize4rectENS_4UnitE
	_ZNK9QPageSize4sizeENS_4UnitE
	_ZNK9QPageSize7isValidEv
	_ZNK9QPageSize9windowsIdEv
	_ZNK9QPolygonF10subtractedERKS_
	_ZNK9QPolygonF10translatedERK7QPointF
	_ZNK9QPolygonF11intersectedERKS_
	_ZNK9QPolygonF12boundingRectEv
	_ZNK9QPolygonF13containsPointERK7QPointFN2Qt8FillRuleE
	_ZNK9QPolygonF6unitedERKS_
	_ZNK9QPolygonF9toPolygonEv
	_ZNK9QPolygonFcv8QVariantEv
	_ZNK9QTextItem11renderFlagsEv
	_ZNK9QTextItem4fontEv
	_ZNK9QTextItem4textEv
	_ZNK9QTextItem5widthEv
	_ZNK9QTextItem6ascentEv
	_ZNK9QTextItem7descentEv
	_ZNK9QTextLine10textLengthEv
	_ZNK9QTextLine15leadingIncludedEv
	_ZNK9QTextLine15naturalTextRectEv
	_ZNK9QTextLine16naturalTextWidthEv
	_ZNK9QTextLine17horizontalAdvanceEv
	_ZNK9QTextLine1xEv
	_ZNK9QTextLine1yEv
	_ZNK9QTextLine4drawEP8QPainterRK7QPointFPKN11QTextLayout11FormatRangeE
	_ZNK9QTextLine4rectEv
	_ZNK9QTextLine5widthEv
	_ZNK9QTextLine6ascentEv
	_ZNK9QTextLine6heightEv
	_ZNK9QTextLine7descentEv
	_ZNK9QTextLine7leadingEv
	_ZNK9QTextLine8positionEv
	_ZNK9QTextLine9cursorToXEPiNS_4EdgeE
	_ZNK9QTextLine9glyphRunsEii
	_ZNK9QTextLine9textStartEv
	_ZNK9QTextLine9xToCursorEdNS_14CursorPositionE
	_ZNK9QTextList10itemNumberERK10QTextBlock
	_ZNK9QTextList10metaObjectEv
	_ZNK9QTextList4itemEi
	_ZNK9QTextList5countEv
	_ZNK9QTextList8itemTextERK10QTextBlock
	_ZNK9QVector2D10normalizedEv
	_ZNK9QVector2D10toVector3DEv
	_ZNK9QVector2D10toVector4DEv
	_ZNK9QVector2D13lengthSquaredEv
	_ZNK9QVector2D14distanceToLineERKS_S1_
	_ZNK9QVector2D15distanceToPointERKS_
	_ZNK9QVector2D6lengthEv
	_ZNK9QVector2Dcv8QVariantEv
	_ZNK9QVector3D10normalizedEv
	_ZNK9QVector3D10toVector2DEv
	_ZNK9QVector3D10toVector4DEv
	_ZNK9QVector3D13lengthSquaredEv
	_ZNK9QVector3D14distanceToLineERKS_S1_
	_ZNK9QVector3D15distanceToPlaneERKS_S1_
	_ZNK9QVector3D15distanceToPlaneERKS_S1_S1_
	_ZNK9QVector3D15distanceToPointERKS_
	_ZNK9QVector3D6lengthEv
	_ZNK9QVector3Dcv8QVariantEv
	_ZNK9QVector4D10normalizedEv
	_ZNK9QVector4D10toVector2DEv
	_ZNK9QVector4D10toVector3DEv
	_ZNK9QVector4D13lengthSquaredEv
	_ZNK9QVector4D16toVector2DAffineEv
	_ZNK9QVector4D16toVector3DAffineEv
	_ZNK9QVector4D6lengthEv
	_ZNK9QVector4Dcv8QVariantEv
	_ZTI10QBasicDrag
	_ZTI10QBlittable
	_ZTI10QClipboard
	_ZTI10QDropEvent
	_ZTI10QHelpEvent
	_ZTI10QHideEvent
	_ZTI10QKeyMapper
	_ZTI10QMoveEvent
	_ZTI10QPdfEngine
	_ZTI10QPdfWriter
	_ZTI10QShowEvent
	_ZTI10QTextFrame
	_ZTI10QTextTable
	_ZTI10QValidator
	_ZTI11QCloseEvent
	_ZTI11QEnterEvent
	_ZTI11QFocusEvent
	_ZTI11QFontEngine
	_ZTI11QHoverEvent
	_ZTI11QIconEngine
	_ZTI11QIconLoader
	_ZTI11QInputEvent
	_ZTI11QMouseEvent
	_ZTI11QPaintEvent
	_ZTI11QSimpleDrag
	_ZTI11QStrokerOps
	_ZTI11QStyleHints
	_ZTI11QTextObject
	_ZTI11QTouchEvent
	_ZTI11QWheelEvent
	_ZTI12QActionEvent
	_ZTI12QDashStroker
	_ZTI12QDragManager
	_ZTI12QExposeEvent
	_ZTI12QInputMethod
	_ZTI12QPaintBuffer
	_ZTI12QPaintDevice
	_ZTI12QPaintEngine
	_ZTI12QResizeEvent
	_ZTI12QScrollEvent
	_ZTI12QTabletEvent
	_ZTI13QIntValidator
	_ZTI13QOpenGLShader
	_ZTI13QPainterState
	_ZTI13QPlatformDrag
	_ZTI13QPlatformMenu
	_ZTI13QStandardItem
	_ZTI13QTextDocument
	_ZTI14QDragMoveEvent
	_ZTI14QFileOpenEvent
	_ZTI14QFontEngineQPA
	_ZTI14QGenericPlugin
	_ZTI14QIconDragEvent
	_ZTI14QImageIOPlugin
	_ZTI14QOpenGLContext
	_ZTI14QPaintEngineEx
	_ZTI14QPlatformTheme
	_ZTI14QShortcutEvent
	_ZTI14QWindowPrivate
	_ZTI15QDragEnterEvent
	_ZTI15QDragLeaveEvent
	_ZTI15QGridLayoutItem
	_ZTI15QGuiApplication
	_ZTI15QImageIOHandler
	_ZTI15QPlatformCursor
	_ZTI15QPlatformPixmap
	_ZTI15QPlatformScreen
	_ZTI15QPlatformWindow
	_ZTI15QSessionManager
	_ZTI15QStatusTipEvent
	_ZTI15QTextBlockGroup
	_ZTI16QAccessibleCache
	_ZTI16QAccessibleEvent
	_ZTI16QDoubleValidator
	_ZTI16QFontEngineMulti
	_ZTI16QPainterReplayer
	_ZTI16QPlatformMenuBar
	_ZTI16QPlatformSurface
	_ZTI16QRegExpValidator
	_ZTI17QAbstractUndoItem
	_ZTI17QAccessibleObject
	_ZTI17QAccessiblePlugin
	_ZTI17QContextMenuEvent
	_ZTI17QIconEnginePlugin
	_ZTI17QInputMethodEvent
	_ZTI17QInternalMimeData
	_ZTI17QOffscreenSurface
	_ZTI17QOpenGLTimerQuery
	_ZTI17QPagedPaintDevice
	_ZTI17QPdfEnginePrivate
	_ZTI17QPlatformMenuItem
	_ZTI17QPlatformServices
	_ZTI17QTextImageHandler
	_ZTI18QOpenGLDebugLogger
	_ZTI18QOpenGLPaintDevice
	_ZTI18QOpenGLTimeMonitor
	_ZTI18QPlatformClipboard
	_ZTI18QRasterPaintEngine
	_ZTI18QStandardItemModel
	_ZTI18QSyntaxHighlighter
	_ZTI18QTextBlockUserData
	_ZTI18QTextureGlyphCache
	_ZTI19QBlitterPaintEngine
	_ZTI19QFontEngineMultiQPA
	_ZTI19QNativeGestureEvent
	_ZTI19QOpenGLContextGroup
	_ZTI19QOpenGLTextureCache
	_ZTI19QPaintEnginePrivate
	_ZTI19QScrollPrepareEvent
	_ZTI19QTextDocumentLayout
	_ZTI19QToolBarChangeEvent
	_ZTI20QAccessibleInterface
	_ZTI20QOpenGLFunctions_1_0
	_ZTI20QOpenGLFunctions_1_1
	_ZTI20QOpenGLFunctions_1_2
	_ZTI20QOpenGLFunctions_1_3
	_ZTI20QOpenGLFunctions_1_4
	_ZTI20QOpenGLFunctions_1_5
	_ZTI20QOpenGLFunctions_2_0
	_ZTI20QOpenGLFunctions_2_1
	_ZTI20QOpenGLFunctions_3_0
	_ZTI20QOpenGLFunctions_3_1
	_ZTI20QOpenGLShaderProgram
	_ZTI20QPictureFormatPlugin
	_ZTI20QPlatformIntegration
	_ZTI20QPlatformTextureList
	_ZTI20QPlatformThemePlugin
	_ZTI20QTextFrameLayoutData
	_ZTI20QTextObjectInterface
	_ZTI21QOpenGL2PaintEngineEx
	_ZTI21QOpenGLContextPrivate
	_ZTI21QOpenGLSharedResource
	_ZTI21QPaintEngineExPrivate
	_ZTI21QPlatformBackingStore
	_ZTI21QPlatformDialogHelper
	_ZTI21QPlatformFontDatabase
	_ZTI21QPlatformInputContext
	_ZTI21QPlatformScreenBuffer
	_ZTI21QPlatformThemePrivate
	_ZTI21QRasterPlatformPixmap
	_ZTI22QAccessibleApplication
	_ZTI22QGuiApplicationPrivate
	_ZTI22QInputMethodQueryEvent
	_ZTI22QPaintEngineExReplayer
	_ZTI22QPlatformAccessibility
	_ZTI22QPlatformOpenGLContext
	_ZTI22QWhatsThisClickedEvent
	_ZTI23QAccessibleBridgePlugin
	_ZTI23QImageTextureGlyphCache
	_ZTI23QPlatformSessionManager
	_ZTI23QPlatformSystemTrayIcon
	_ZTI23QWindowStateChangeEvent
	_ZTI24QAbstractLayoutStyleInfo
	_ZTI24QAccessibleTextInterface
	_ZTI24QBlittablePlatformPixmap
	_ZTI24QOffscreenSurfacePrivate
	_ZTI24QOpenGLCustomShaderStage
	_ZTI24QOpenGLFramebufferObject
	_ZTI24QOpenGLTextureGlyphCache
	_ZTI24QOpenGLVertexArrayObject
	_ZTI24QPagedPaintDevicePrivate
	_ZTI24QPlatformNativeInterface
	_ZTI25QAccessibleImageInterface
	_ZTI25QAccessibleTableInterface
	_ZTI25QAccessibleValueInterface
	_ZTI25QOpenGLFunctions_3_2_Core
	_ZTI25QOpenGLFunctions_3_3_Core
	_ZTI25QOpenGLFunctions_4_0_Core
	_ZTI25QOpenGLFunctions_4_1_Core
	_ZTI25QOpenGLFunctions_4_2_Core
	_ZTI25QOpenGLFunctions_4_3_Core
	_ZTI25QPlatformFileDialogHelper
	_ZTI25QPlatformFontDialogHelper
	_ZTI25QPlatformOffscreenSurface
	_ZTI26QAccessibleActionInterface
	_ZTI26QAccessibleTextCursorEvent
	_ZTI26QAccessibleTextInsertEvent
	_ZTI26QAccessibleTextRemoveEvent
	_ZTI26QAccessibleTextUpdateEvent
	_ZTI26QOpenGLContextGroupPrivate
	_ZTI26QOpenGLEngineShaderManager
	_ZTI26QOpenGLSharedResourceGuard
	_ZTI26QPlatformColorDialogHelper
	_ZTI26QPlatformIntegrationPlugin
	_ZTI26QPlatformScreenPageFlipper
	_ZTI27QAbstractTextDocumentLayout
	_ZTI27QAccessibleStateChangeEvent
	_ZTI27QAccessibleValueChangeEvent
	_ZTI27QPlatformInputContextPlugin
	_ZTI27QRegularExpressionValidator
	_ZTI28QApplicationStateChangeEvent
	_ZTI28QPlatformMessageDialogHelper
	_ZTI28QPlatformSharedGraphicsCache
	_ZTI29QAccessibleTableCellInterface
	_ZTI29QAccessibleTextSelectionEvent
	_ZTI29QScreenOrientationChangeEvent
	_ZTI32QAccessibleEditableTextInterface
	_ZTI32QAccessibleTableModelChangeEvent
	_ZTI34QOpenGLFunctions_3_2_Compatibility
	_ZTI34QOpenGLFunctions_3_3_Compatibility
	_ZTI34QOpenGLFunctions_4_0_Compatibility
	_ZTI34QOpenGLFunctions_4_1_Compatibility
	_ZTI34QOpenGLFunctions_4_2_Compatibility
	_ZTI34QOpenGLFunctions_4_3_Compatibility
	_ZTI5QDrag
	_ZTI6QImage
	_ZTI6QMovie
	_ZTI7QBitmap
	_ZTI7QPixmap
	_ZTI7QScreen
	_ZTI7QWindow
	_ZTI8QPicture
	_ZTI8QStroker
	_ZTI8QSurface
	_ZTI9QKeyEvent
	_ZTI9QTextList
	_ZTIN4QCss13StyleSelectorE
	_ZTV10QBasicDrag
	_ZTV10QBlittable
	_ZTV10QClipboard
	_ZTV10QDropEvent
	_ZTV10QHelpEvent
	_ZTV10QHideEvent
	_ZTV10QKeyMapper
	_ZTV10QMoveEvent
	_ZTV10QPdfEngine
	_ZTV10QPdfWriter
	_ZTV10QShowEvent
	_ZTV10QTextFrame
	_ZTV10QTextTable
	_ZTV10QValidator
	_ZTV11QCloseEvent
	_ZTV11QEnterEvent
	_ZTV11QFocusEvent
	_ZTV11QFontEngine
	_ZTV11QHoverEvent
	_ZTV11QIconEngine
	_ZTV11QIconLoader
	_ZTV11QInputEvent
	_ZTV11QMouseEvent
	_ZTV11QPaintEvent
	_ZTV11QSimpleDrag
	_ZTV11QStrokerOps
	_ZTV11QStyleHints
	_ZTV11QTextObject
	_ZTV11QTouchEvent
	_ZTV11QWheelEvent
	_ZTV12QActionEvent
	_ZTV12QDashStroker
	_ZTV12QDragManager
	_ZTV12QExposeEvent
	_ZTV12QInputMethod
	_ZTV12QPaintBuffer
	_ZTV12QPaintDevice
	_ZTV12QPaintEngine
	_ZTV12QResizeEvent
	_ZTV12QScrollEvent
	_ZTV12QTabletEvent
	_ZTV13QIntValidator
	_ZTV13QOpenGLShader
	_ZTV13QPainterState
	_ZTV13QPlatformDrag
	_ZTV13QPlatformMenu
	_ZTV13QStandardItem
	_ZTV13QTextDocument
	_ZTV14QDragMoveEvent
	_ZTV14QFileOpenEvent
	_ZTV14QFontEngineQPA
	_ZTV14QGenericPlugin
	_ZTV14QIconDragEvent
	_ZTV14QImageIOPlugin
	_ZTV14QOpenGLContext
	_ZTV14QPaintEngineEx
	_ZTV14QPlatformTheme
	_ZTV14QShortcutEvent
	_ZTV14QWindowPrivate
	_ZTV15QDragEnterEvent
	_ZTV15QDragLeaveEvent
	_ZTV15QGridLayoutItem
	_ZTV15QGuiApplication
	_ZTV15QImageIOHandler
	_ZTV15QPlatformCursor
	_ZTV15QPlatformPixmap
	_ZTV15QPlatformScreen
	_ZTV15QPlatformWindow
	_ZTV15QSessionManager
	_ZTV15QStatusTipEvent
	_ZTV15QTextBlockGroup
	_ZTV16QAccessibleCache
	_ZTV16QAccessibleEvent
	_ZTV16QDoubleValidator
	_ZTV16QFontEngineMulti
	_ZTV16QPainterReplayer
	_ZTV16QPlatformMenuBar
	_ZTV16QPlatformSurface
	_ZTV16QRegExpValidator
	_ZTV17QAbstractUndoItem
	_ZTV17QAccessibleObject
	_ZTV17QAccessiblePlugin
	_ZTV17QContextMenuEvent
	_ZTV17QIconEnginePlugin
	_ZTV17QInputMethodEvent
	_ZTV17QInternalMimeData
	_ZTV17QOffscreenSurface
	_ZTV17QOpenGLTimerQuery
	_ZTV17QPagedPaintDevice
	_ZTV17QPdfEnginePrivate
	_ZTV17QPlatformMenuItem
	_ZTV17QPlatformServices
	_ZTV17QTextImageHandler
	_ZTV18QOpenGLDebugLogger
	_ZTV18QOpenGLPaintDevice
	_ZTV18QOpenGLTimeMonitor
	_ZTV18QPlatformClipboard
	_ZTV18QRasterPaintEngine
	_ZTV18QStandardItemModel
	_ZTV18QSyntaxHighlighter
	_ZTV18QTextBlockUserData
	_ZTV18QTextureGlyphCache
	_ZTV19QBlitterPaintEngine
	_ZTV19QFontEngineMultiQPA
	_ZTV19QNativeGestureEvent
	_ZTV19QOpenGLContextGroup
	_ZTV19QOpenGLTextureCache
	_ZTV19QPaintEnginePrivate
	_ZTV19QScrollPrepareEvent
	_ZTV19QTextDocumentLayout
	_ZTV19QToolBarChangeEvent
	_ZTV20QAccessibleInterface
	_ZTV20QOpenGLFunctions_1_0
	_ZTV20QOpenGLFunctions_1_1
	_ZTV20QOpenGLFunctions_1_2
	_ZTV20QOpenGLFunctions_1_3
	_ZTV20QOpenGLFunctions_1_4
	_ZTV20QOpenGLFunctions_1_5
	_ZTV20QOpenGLFunctions_2_0
	_ZTV20QOpenGLFunctions_2_1
	_ZTV20QOpenGLFunctions_3_0
	_ZTV20QOpenGLFunctions_3_1
	_ZTV20QOpenGLShaderProgram
	_ZTV20QPictureFormatPlugin
	_ZTV20QPlatformIntegration
	_ZTV20QPlatformTextureList
	_ZTV20QPlatformThemePlugin
	_ZTV20QTextFrameLayoutData
	_ZTV20QTextObjectInterface
	_ZTV21QOpenGL2PaintEngineEx
	_ZTV21QOpenGLContextPrivate
	_ZTV21QOpenGLSharedResource
	_ZTV21QPaintEngineExPrivate
	_ZTV21QPlatformBackingStore
	_ZTV21QPlatformDialogHelper
	_ZTV21QPlatformFontDatabase
	_ZTV21QPlatformInputContext
	_ZTV21QPlatformScreenBuffer
	_ZTV21QPlatformThemePrivate
	_ZTV21QRasterPlatformPixmap
	_ZTV22QAccessibleApplication
	_ZTV22QGuiApplicationPrivate
	_ZTV22QInputMethodQueryEvent
	_ZTV22QPaintEngineExReplayer
	_ZTV22QPlatformAccessibility
	_ZTV22QPlatformOpenGLContext
	_ZTV22QWhatsThisClickedEvent
	_ZTV23QAccessibleBridgePlugin
	_ZTV23QImageTextureGlyphCache
	_ZTV23QPlatformSessionManager
	_ZTV23QPlatformSystemTrayIcon
	_ZTV23QWindowStateChangeEvent
	_ZTV24QAbstractLayoutStyleInfo
	_ZTV24QAccessibleTextInterface
	_ZTV24QBlittablePlatformPixmap
	_ZTV24QOffscreenSurfacePrivate
	_ZTV24QOpenGLCustomShaderStage
	_ZTV24QOpenGLFramebufferObject
	_ZTV24QOpenGLTextureGlyphCache
	_ZTV24QOpenGLVertexArrayObject
	_ZTV24QPagedPaintDevicePrivate
	_ZTV24QPlatformNativeInterface
	_ZTV25QAccessibleImageInterface
	_ZTV25QAccessibleTableInterface
	_ZTV25QAccessibleValueInterface
	_ZTV25QOpenGLFunctions_3_2_Core
	_ZTV25QOpenGLFunctions_3_3_Core
	_ZTV25QOpenGLFunctions_4_0_Core
	_ZTV25QOpenGLFunctions_4_1_Core
	_ZTV25QOpenGLFunctions_4_2_Core
	_ZTV25QOpenGLFunctions_4_3_Core
	_ZTV25QPlatformFileDialogHelper
	_ZTV25QPlatformFontDialogHelper
	_ZTV25QPlatformOffscreenSurface
	_ZTV26QAccessibleActionInterface
	_ZTV26QAccessibleTextCursorEvent
	_ZTV26QAccessibleTextInsertEvent
	_ZTV26QAccessibleTextRemoveEvent
	_ZTV26QAccessibleTextUpdateEvent
	_ZTV26QOpenGLContextGroupPrivate
	_ZTV26QOpenGLEngineShaderManager
	_ZTV26QOpenGLSharedResourceGuard
	_ZTV26QPlatformColorDialogHelper
	_ZTV26QPlatformIntegrationPlugin
	_ZTV26QPlatformScreenPageFlipper
	_ZTV27QAbstractTextDocumentLayout
	_ZTV27QAccessibleStateChangeEvent
	_ZTV27QAccessibleValueChangeEvent
	_ZTV27QPlatformInputContextPlugin
	_ZTV27QRegularExpressionValidator
	_ZTV28QApplicationStateChangeEvent
	_ZTV28QPlatformMessageDialogHelper
	_ZTV28QPlatformSharedGraphicsCache
	_ZTV29QAccessibleTableCellInterface
	_ZTV29QAccessibleTextSelectionEvent
	_ZTV29QScreenOrientationChangeEvent
	_ZTV32QAccessibleEditableTextInterface
	_ZTV32QAccessibleTableModelChangeEvent
	_ZTV34QOpenGLFunctions_3_2_Compatibility
	_ZTV34QOpenGLFunctions_3_3_Compatibility
	_ZTV34QOpenGLFunctions_4_0_Compatibility
	_ZTV34QOpenGLFunctions_4_1_Compatibility
	_ZTV34QOpenGLFunctions_4_2_Compatibility
	_ZTV34QOpenGLFunctions_4_3_Compatibility
	_ZTV5QDrag
	_ZTV6QImage
	_ZTV6QMovie
	_ZTV7QBitmap
	_ZTV7QPixmap
	_ZTV7QScreen
	_ZTV7QWindow
	_ZTV8QPicture
	_ZTV8QStroker
	_ZTV8QSurface
	_ZTV9QKeyEvent
	_ZTV9QTextList
	_ZTVN4QCss13StyleSelectorE
	_ZThn16_N10QBasicDrag11eventFilterEP7QObjectP6QEvent
	_ZThn16_N10QBasicDragD0Ev
	_ZThn16_N10QBasicDragD1Ev
	_ZThn16_N10QPdfWriter10setMarginsERKN17QPagedPaintDevice7MarginsE
	_ZThn16_N10QPdfWriter11setPageSizeEN17QPagedPaintDevice8PageSizeE
	_ZThn16_N10QPdfWriter13setPageSizeMMERK6QSizeF
	_ZThn16_N10QPdfWriter7newPageEv
	_ZThn16_N10QPdfWriterD0Ev
	_ZThn16_N10QPdfWriterD1Ev
	_ZThn16_N11QSimpleDragD0Ev
	_ZThn16_N11QSimpleDragD1Ev
	_ZThn16_N17QOffscreenSurfaceD0Ev
	_ZThn16_N17QOffscreenSurfaceD1Ev
	_ZThn16_N17QTextImageHandler10drawObjectEP8QPainterRK6QRectFP13QTextDocumentiRK11QTextFormat
	_ZThn16_N17QTextImageHandler13intrinsicSizeEP13QTextDocumentiRK11QTextFormat
	_ZThn16_N17QTextImageHandlerD0Ev
	_ZThn16_N17QTextImageHandlerD1Ev
	_ZThn16_N7QWindowD0Ev
	_ZThn16_N7QWindowD1Ev
	_ZThn16_NK10QPdfWriter11paintEngineEv
	_ZThn16_NK10QPdfWriter6metricEN12QPaintDevice17PaintDeviceMetricE
	_ZThn16_NK17QOffscreenSurface11surfaceTypeEv
	_ZThn16_NK17QOffscreenSurface13surfaceHandleEv
	_ZThn16_NK17QOffscreenSurface4sizeEv
	_ZThn16_NK17QOffscreenSurface6formatEv
	_ZThn16_NK7QWindow11surfaceTypeEv
	_ZThn16_NK7QWindow13surfaceHandleEv
	_ZThn16_NK7QWindow4sizeEv
	_ZThn16_NK7QWindow6formatEv
	_ZdvRK10QMatrix4x4f
	_ZeqRK11QPageLayoutS1_
	_ZeqRK14QSurfaceFormatS1_
	_ZeqRK9QPageSizeS1_
	_ZeqRKN11QAccessible5StateES2_
	_ZeqRKN22QGuiApplicationPrivate20ActiveTouchPointsKeyES2_
	_Zls6QDebugN19QOpenGLDebugMessage4TypeE
	_Zls6QDebugN19QOpenGLDebugMessage6SourceE
	_Zls6QDebugN19QOpenGLDebugMessage8SeverityE
	_Zls6QDebugPK20QAccessibleInterface
	_Zls6QDebugPK6QEvent
	_Zls6QDebugRK10QMatrix4x4
	_Zls6QDebugRK10QTransform
	_Zls6QDebugRK11QPageLayout
	_Zls6QDebugRK11QQuaternion
	_Zls6QDebugRK11QTextFormat
	_Zls6QDebugRK11QTextLength
	_Zls6QDebugRK12QKeySequence
	_Zls6QDebugRK12QPainterPath
	_Zls6QDebugRK14QSurfaceFormat
	_Zls6QDebugRK16QAccessibleEvent
	_Zls6QDebugRK19QOpenGLDebugMessage
	_Zls6QDebugRK4QPen
	_Zls6QDebugRK5QFont
	_Zls6QDebugRK5QIcon
	_Zls6QDebugRK6QBrush
	_Zls6QDebugRK6QColor
	_Zls6QDebugRK6QImage
	_Zls6QDebugRK7QCursor
	_Zls6QDebugRK7QMatrix
	_Zls6QDebugRK7QPixmap
	_Zls6QDebugRK7QRegion
	_Zls6QDebugRK8QPalette
	_Zls6QDebugRK8QPolygon
	_Zls6QDebugRK9QPageSize
	_Zls6QDebugRK9QPolygonF
	_Zls6QDebugRK9QVector2D
	_Zls6QDebugRK9QVector3D
	_Zls6QDebugRK9QVector4D
	_Zls6QDebugRKN22QWindowSystemInterface10TouchPointE
	_ZlsR11QDataStreamRK10QMatrix4x4
	_ZlsR11QDataStreamRK10QTransform
	_ZlsR11QDataStreamRK11QQuaternion
	_ZlsR11QDataStreamRK11QTextFormat
	_ZlsR11QDataStreamRK11QTextLength
	_ZlsR11QDataStreamRK12QKeySequence
	_ZlsR11QDataStreamRK12QPaintBuffer
	_ZlsR11QDataStreamRK12QPainterPath
	_ZlsR11QDataStreamRK13QStandardItem
	_ZlsR11QDataStreamRK4QPen
	_ZlsR11QDataStreamRK5QFont
	_ZlsR11QDataStreamRK5QIcon
	_ZlsR11QDataStreamRK6QBrush
	_ZlsR11QDataStreamRK6QColor
	_ZlsR11QDataStreamRK6QImage
	_ZlsR11QDataStreamRK7QCursor
	_ZlsR11QDataStreamRK7QMatrix
	_ZlsR11QDataStreamRK7QPixmap
	_ZlsR11QDataStreamRK7QRegion
	_ZlsR11QDataStreamRK8QPalette
	_ZlsR11QDataStreamRK8QPicture
	_ZlsR11QDataStreamRK8QPolygon
	_ZlsR11QDataStreamRK9QPolygonF
	_ZlsR11QDataStreamRK9QVector2D
	_ZlsR11QDataStreamRK9QVector3D
	_ZlsR11QDataStreamRK9QVector4D
	_ZlsR6QDebugRK11QVectorPath
	_ZmlRK12QPainterPathRK7QMatrix
	_ZneRK14QSurfaceFormatS1_
	_ZrsR11QDataStreamR10QMatrix4x4
	_ZrsR11QDataStreamR10QTransform
	_ZrsR11QDataStreamR11QQuaternion
	_ZrsR11QDataStreamR11QTextFormat
	_ZrsR11QDataStreamR11QTextLength
	_ZrsR11QDataStreamR12QKeySequence
	_ZrsR11QDataStreamR12QPaintBuffer
	_ZrsR11QDataStreamR12QPainterPath
	_ZrsR11QDataStreamR13QStandardItem
	_ZrsR11QDataStreamR4QPen
	_ZrsR11QDataStreamR5QFont
	_ZrsR11QDataStreamR5QIcon
	_ZrsR11QDataStreamR6QBrush
	_ZrsR11QDataStreamR6QColor
	_ZrsR11QDataStreamR6QImage
	_ZrsR11QDataStreamR7QCursor
	_ZrsR11QDataStreamR7QMatrix
	_ZrsR11QDataStreamR7QPixmap
	_ZrsR11QDataStreamR7QRegion
	_ZrsR11QDataStreamR8QPalette
	_ZrsR11QDataStreamR8QPicture
	_ZrsR11QDataStreamR8QPolygon
	_ZrsR11QDataStreamR9QPolygonF
	_ZrsR11QDataStreamR9QVector2D
	_ZrsR11QDataStreamR9QVector3D
	_ZrsR11QDataStreamR9QVector4D
	qt_inv_premul_factor
	qt_is_gui_used