LIBRARY qt5widgets

EXPORTS
	_Z11qFadeEffectP7QWidgeti
	_Z12qt_accHotKeyRK7QString
	_Z12qt_blurImageP8QPainterR6QImagedbbi
	_Z12qt_blurImageR6QImagedbi
	_Z13qDrawWinPanelP8QPainterRK5QRectRK8QPalettebPK6QBrush
	_Z13qDrawWinPanelP8QPainteriiiiRK8QPalettebPK6QBrush
	_Z13qScrollEffectP7QWidgetji
	_Z13qSmartMaxSizePK11QWidgetItem6QFlagsIN2Qt13AlignmentFlagEE
	_Z13qSmartMaxSizePK7QWidget6QFlagsIN2Qt13AlignmentFlagEE
	_Z13qSmartMaxSizeRK5QSizeS1_S1_RK11QSizePolicy6QFlagsIN2Qt13AlignmentFlagEE
	_Z13qSmartMinSizePK11QWidgetItem
	_Z13qSmartMinSizePK7QWidget
	_Z13qSmartMinSizeRK5QSizeS1_S1_S1_RK11QSizePolicy
	_Z13qSmartSpacingPK7QLayoutN6QStyle11PixelMetricE
	_Z13qt_halfScaledRK6QImage
	_Z14qDrawPlainRectP8QPainterRK5QRectRK6QColoriPK6QBrush
	_Z14qDrawPlainRectP8QPainteriiiiRK6QColoriPK6QBrush
	_Z14qDrawShadeLineP8QPainterRK6QPointS3_RK8QPalettebii
	_Z14qDrawShadeLineP8QPainteriiiiRK8QPalettebii
	_Z14qDrawShadeRectP8QPainterRK5QRectRK8QPalettebiiPK6QBrush
	_Z14qDrawShadeRectP8QPainteriiiiRK8QPalettebiiPK6QBrush
	_Z14qDrawWinButtonP8QPainterRK5QRectRK8QPalettebPK6QBrush
	_Z14qDrawWinButtonP8QPainteriiiiRK8QPalettebPK6QBrush
	_Z14qt_accStripAmpRK7QString
	_Z15qDrawShadePanelP8QPainterRK5QRectRK8QPalettebiPK6QBrush
	_Z15qDrawShadePanelP8QPainteriiiiRK8QPalettebiPK6QBrush
	_Z15qt_qwidget_dataP7QWidget
	_Z17qDrawBorderPixmapP8QPainterRK5QRectRK8QMarginsRK7QPixmapS3_S6_RK10QTileRules6QFlagsIN17QDrawBorderPixmap11DrawingHintEE
	_Z17qt_tryModalHelperP7QWidgetPS0_
	_Z17qt_widget_privateP7QWidget
	_Z17qt_win_display_dcv
	_Z18qt_tab_all_widgetsv
	_Z21qt_qsliderStyleOptionP7QSlider
	_Z24qt_qscrollbarStyleOptionP10QScrollBar
	_Z9qGeomCalcR7QVectorI13QLayoutStructEiiiii
	_ZN10QBoxLayout10addSpacingEi
	_ZN10QBoxLayout10addStretchEi
	_ZN10QBoxLayout10insertItemEiP11QLayoutItem
	_ZN10QBoxLayout10invalidateEv
	_ZN10QBoxLayout10setSpacingEi
	_ZN10QBoxLayout10setStretchEii
	_ZN10QBoxLayout11qt_metacallEN11QMetaObject4CallEiPPv
	_ZN10QBoxLayout11qt_metacastEPKc
	_ZN10QBoxLayout11setGeometryERK5QRect
	_ZN10QBoxLayout12insertLayoutEiP7QLayouti
	_ZN10QBoxLayout12insertWidgetEiP7QWidgeti6QFlagsIN2Qt13AlignmentFlagEE
	_ZN10QBoxLayout12setDirectionENS_9DirectionE
	_ZN10QBoxLayout13addSpacerItemEP11QSpacerItem
	_ZN10QBoxLayout13insertSpacingEii
	_ZN10QBoxLayout13insertStretchEii
	_ZN10QBoxLayout16insertSpacerItemEiP11QSpacerItem
	_ZN10QBoxLayout16setStretchFactorEP7QLayouti
	_ZN10QBoxLayout16setStretchFactorEP7QWidgeti
	_ZN10QBoxLayout16staticMetaObjectE
	_ZN10QBoxLayout18qt_static_metacallEP7QObjectN11QMetaObject4CallEiPPv
	_ZN10QBoxLayout6takeAtEi
	_ZN10QBoxLayout7addItemEP11QLayoutItem
	_ZN10QBoxLayout8addStrutEi
	_ZN10QBoxLayout9addLayoutEP7QLayouti
	_ZN10QBoxLayout9addWidgetEP7QWidgeti6QFlagsIN2Qt13AlignmentFlagEE
	_ZN10QBoxLayoutC1ENS_9DirectionEP7QWidget
	_ZN10QBoxLayoutC2ENS_9DirectionEP7QWidget
	_ZN10QBoxLayoutD0Ev
	_ZN10QBoxLayoutD1Ev
	_ZN10QBoxLayoutD2Ev
	_ZN10QCompleter11eventFilterEP7QObjectP6QEvent
	_ZN10QCompleter11highlightedERK11QModelIndex
	_ZN10QCompleter11highlightedERK7QString
	_ZN10QCompleter11qt_metacallEN11QMetaObject4CallEiPPv
	_ZN10QCompleter11qt_metacastEPKc
	_ZN10QCompleter13setCurrentRowEi
	_ZN10QCompleter13setFilterModeE6QFlagsIN2Qt9MatchFlagEE
	_ZN10QCompleter13setWrapAroundEb
	_ZN10QCompleter15setModelSortingENS_12ModelSortingE
	_ZN10QCompleter16staticMetaObjectE
	_ZN10QCompleter17setCompletionModeENS_14CompletionModeE
	_ZN10QCompleter17setCompletionRoleEi
	_ZN10QCompleter18qt_static_metacallEP7QObjectN11QMetaObject4CallEiPPv
	_ZN10QCompleter18setCaseSensitivityEN2Qt15CaseSensitivityE
	_ZN10QCompleter18setMaxVisibleItemsEi
	_ZN10QCompleter19setCompletionColumnEi
	_ZN10QCompleter19setCompletionPrefixERK7QString
	_ZN10QCompleter5eventEP6QEvent
	_ZN10QCompleter8completeERK5QRect
	_ZN10QCompleter8setModelEP18QAbstractItemModel
	_ZN10QCompleter8setPopupEP17QAbstractItemView
	_ZN10QCompleter9activatedERK11QModelIndex
	_ZN10QCompleter9activatedERK7QString
	_ZN10QCompleter9setWidgetEP7QWidget
	_ZN10QCompleterC1EP18QAbstractItemModelP7QObject
	_ZN10QCompleterC1EP7QObject
	_ZN10QCompleterC1ERK11QStringListP7QObject
	_ZN10QCompleterC2EP18QAbstractItemModelP7QObject
	_ZN10QCompleterC2EP7QObject
	_ZN10QCompleterC2ERK11QStringListP7QObject
	_ZN10QCompleterD0Ev
	_ZN10QCompleterD1Ev
	_ZN10QCompleterD2Ev
	_ZN10QLCDNumber10paintEventEP11QPaintEvent
	_ZN10QLCDNumber10setBinModeEv
	_ZN10QLCDNumber10setDecModeEv
	_ZN10QLCDNumber10setHexModeEv
	_ZN10QLCDNumber10setOctModeEv
	_ZN10QLCDNumber11qt_metacallEN11QMetaObject4CallEiPPv
	_ZN10QLCDNumber11qt_metacastEPKc
	_ZN10QLCDNumber13setDigitCountEi
	_ZN10QLCDNumber15setSegmentStyleENS_12SegmentStyleE
	_ZN10QLCDNumber16staticMetaObjectE
	_ZN10QLCDNumber18qt_static_metacallEP7QObjectN11QMetaObject4CallEiPPv
	_ZN10QLCDNumber20setSmallDecimalPointEb
	_ZN10QLCDNumber5eventEP6QEvent
	_ZN10QLCDNumber7displayERK7QString
	_ZN10QLCDNumber7displayEd
	_ZN10QLCDNumber7displayEi
	_ZN10QLCDNumber7setModeENS_4ModeE
	_ZN10QLCDNumber8overflowEv
	_ZN10QLCDNumberC1EP7QWidget
	_ZN10QLCDNumberC1EjP7QWidget
	_ZN10QLCDNumberC2EP7QWidget
	_ZN10QLCDNumberC2EjP7QWidget
	_ZN10QLCDNumberD0Ev
	_ZN10QLCDNumberD1Ev
	_ZN10QLCDNumberD2Ev
	_ZN10QScrollBar10paintEventEP11QPaintEvent
	_ZN10QScrollBar10wheelEventEP11QWheelEvent
	_ZN10QScrollBar11qt_metacallEN11QMetaObject4CallEiPPv
	_ZN10QScrollBar11qt_metacastEPKc
	_ZN10QScrollBar12sliderChangeEN15QAbstractSlider12SliderChangeE
	_ZN10QScrollBar14mouseMoveEventEP11QMouseEvent
	_ZN10QScrollBar15mousePressEventEP11QMouseEvent
	_ZN10QScrollBar16contextMenuEventEP17QContextMenuEvent
	_ZN10QScrollBar16staticMetaObjectE
	_ZN10QScrollBar17mouseReleaseEventEP11QMouseEvent
	_ZN10QScrollBar18qt_static_metacallEP7QObjectN11QMetaObject4CallEiPPv
	_ZN10QScrollBar5eventEP6QEvent
	_ZN10QScrollBar9hideEventEP10QHideEvent
	_ZN10QScrollBarC1EN2Qt11OrientationEP7QWidget
	_ZN10QScrollBarC1EP7QWidget
	_ZN10QScrollBarC2EN2Qt11OrientationEP7QWidget
	_ZN10QScrollBarC2EP7QWidget
	_ZN10QScrollBarD0Ev
	_ZN10QScrollBarD1Ev
	_ZN10QScrollBarD2Ev
	_ZN10QStatusBar10hideOrShowEv
	_ZN10QStatusBar10paintEventEP11QPaintEvent
	_ZN10QStatusBar11qt_metacallEN11QMetaObject4CallEiPPv
	_ZN10QStatusBar11qt_metacastEPKc
	_ZN10QStatusBar11resizeEventEP12QResizeEvent
	_ZN10QStatusBar11showMessageERK7QStringi
	_ZN10QStatusBar12clearMessageEv
	_ZN10QStatusBar12insertWidgetEiP7QWidgeti
	_ZN10QStatusBar12removeWidgetEP7QWidget
	_ZN10QStatusBar14messageChangedERK7QString
	_ZN10QStatusBar16staticMetaObjectE
	_ZN10QStatusBar18addPermanentWidgetEP7QWidgeti
	_ZN10QStatusBar18qt_static_metacallEP7QObjectN11QMetaObject4CallEiPPv
	_ZN10QStatusBar18setSizeGripEnabledEb
	_ZN10QStatusBar21insertPermanentWidgetEiP7QWidgeti
	_ZN10QStatusBar5eventEP6QEvent
	_ZN10QStatusBar8reformatEv
	_ZN10QStatusBar9addWidgetEP7QWidgeti
	_ZN10QStatusBar9showEventEP10QShowEvent
	_ZN10QStatusBarC1EP7QWidget
	_ZN10QStatusBarC2EP7QWidget
	_ZN10QStatusBarD0Ev
	_ZN10QStatusBarD1Ev
	_ZN10QStatusBarD2Ev
	_ZN10QTabWidget10paintEventEP11QPaintEvent
	_ZN10QTabWidget10setMovableEb
	_ZN10QTabWidget10setTabIconEiRK5QIcon
	_ZN10QTabWidget10setTabTextEiRK7QString
	_ZN10QTabWidget10tabRemovedEi
	_ZN10QTabWidget11changeEventEP6QEvent
	_ZN10QTabWidget11qt_metacallEN11QMetaObject4CallEiPPv
	_ZN10QTabWidget11qt_metacastEPKc
	_ZN10QTabWidget11resizeEventEP12QResizeEvent
	_ZN10QTabWidget11setIconSizeERK5QSize
	_ZN10QTabWidget11setTabShapeENS_8TabShapeE
	_ZN10QTabWidget11setUpLayoutEb
	_ZN10QTabWidget11tabInsertedEi
	_ZN10QTabWidget12setElideModeEN2Qt13TextElideModeE
	_ZN10QTabWidget13keyPressEventEP9QKeyEvent
	_ZN10QTabWidget13setTabEnabledEib
	_ZN10QTabWidget13setTabToolTipEiRK7QString
	_ZN10QTabWidget13tabBarClickedEi
	_ZN10QTabWidget14currentChangedEi
	_ZN10QTabWidget14setTabPositionENS_11TabPositionE
	_ZN10QTabWidget15setCornerWidgetEP7QWidgetN2Qt6CornerE
	_ZN10QTabWidget15setCurrentIndexEi
	_ZN10QTabWidget15setDocumentModeEb
	_ZN10QTabWidget15setTabWhatsThisEiRK7QString
	_ZN10QTabWidget15setTabsClosableEb
	_ZN10QTabWidget16setCurrentWidgetEP7QWidget
	_ZN10QTabWidget16staticMetaObjectE
	_ZN10QTabWidget17tabCloseRequestedEi
	_ZN10QTabWidget18qt_static_metacallEP7QObjectN11QMetaObject4CallEiPPv
	_ZN10QTabWidget19tabBarDoubleClickedEi
	_ZN10QTabWidget20setUsesScrollButtonsEb
	_ZN10QTabWidget5clearEv
	_ZN10QTabWidget5eventEP6QEvent
	_ZN10QTabWidget6addTabEP7QWidgetRK5QIconRK7QString
	_ZN10QTabWidget6addTabEP7QWidgetRK7QString
	_ZN10QTabWidget9insertTabEiP7QWidgetRK5QIconRK7QString
	_ZN10QTabWidget9insertTabEiP7QWidgetRK7QString
	_ZN10QTabWidget9removeTabEi
	_ZN10QTabWidget9setTabBarEP7QTabBar
	_ZN10QTabWidget9showEventEP10QShowEvent
	_ZN10QTabWidgetC1EP7QWidget
	_ZN10QTabWidgetC2EP7QWidget
	_ZN10QTabWidgetD0Ev
	_ZN10QTabWidgetD1Ev
	_ZN10QTabWidgetD2Ev
	_ZN10QTableView10clearSpansEv
	_ZN10QTableView10hideColumnEi
	_ZN10QTableView10moveCursorEN17QAbstractItemView12CursorActionE6QFlagsIN2Qt16KeyboardModifierEE
	_ZN10QTableView10paintEventEP11QPaintEvent
	_ZN10QTableView10rowResizedEiii
	_ZN10QTableView10showColumnEi
	_ZN10QTableView10timerEventEP11QTimerEvent
	_ZN10QTableView11columnMovedEiii
	_ZN10QTableView11qt_metacallEN11QMetaObject4CallEiPPv
	_ZN10QTableView11qt_metacastEPKc
	_ZN10QTableView11setShowGridEb
	_ZN10QTableView11setWordWrapEb
	_ZN10QTableView12selectColumnEi
	_ZN10QTableView12setGridStyleEN2Qt8PenStyleE
	_ZN10QTableView12setRootIndexERK11QModelIndex
	_ZN10QTableView12setRowHeightEii
	_ZN10QTableView12setRowHiddenEib
	_ZN10QTableView12setSelectionERK5QRect6QFlagsIN19QItemSelectionModel13SelectionFlagEE
	_ZN10QTableView12sortByColumnEi
	_ZN10QTableView12sortByColumnEiN2Qt9SortOrderE
	_ZN10QTableView13columnResizedEiii
	_ZN10QTableView13doItemsLayoutEv
	_ZN10QTableView14currentChangedERK11QModelIndexS2_
	_ZN10QTableView14setColumnWidthEii
	_ZN10QTableView15rowCountChangedEii
	_ZN10QTableView15setColumnHiddenEib
	_ZN10QTableView16scrollContentsByEii
	_ZN10QTableView16selectionChangedERK14QItemSelectionS2_
	_ZN10QTableView16staticMetaObjectE
	_ZN10QTableView16updateGeometriesEv
	_ZN10QTableView17setSelectionModelEP19QItemSelectionModel
	_ZN10QTableView17setSortingEnabledEb
	_ZN10QTableView17setVerticalHeaderEP11QHeaderView
	_ZN10QTableView18columnCountChangedEii
	_ZN10QTableView18qt_static_metacallEP7QObjectN11QMetaObject4CallEiPPv
	_ZN10QTableView19resizeRowToContentsEi
	_ZN10QTableView19setHorizontalHeaderEP11QHeaderView
	_ZN10QTableView20resizeRowsToContentsEv
	_ZN10QTableView22resizeColumnToContentsEi
	_ZN10QTableView22setCornerButtonEnabledEb
	_ZN10QTableView23resizeColumnsToContentsEv
	_ZN10QTableView23verticalScrollbarActionEi
	_ZN10QTableView25horizontalScrollbarActionEi
	_ZN10QTableView7hideRowEi
	_ZN10QTableView7setSpanEiiii
	_ZN10QTableView7showRowEi
	_ZN10QTableView8rowMovedEiii
	_ZN10QTableView8scrollToERK11QModelIndexN17QAbstractItemView10ScrollHintE
	_ZN10QTableView8setModelEP18QAbstractItemModel
	_ZN10QTableView9selectRowEi
	_ZN10QTableViewC1EP7QWidget
	_ZN10QTableViewC1ER17QTableViewPrivateP7QWidget
	_ZN10QTableViewC2EP7QWidget
	_ZN10QTableViewC2ER17QTableViewPrivateP7QWidget
	_ZN10QTableViewD0Ev
	_ZN10QTableViewD1Ev
	_ZN10QTableViewD2Ev
	_ZN10QUndoGroup11qt_metacallEN11QMetaObject4CallEiPPv
	_ZN10QUndoGroup11qt_metacastEPKc
	_ZN10QUndoGroup11removeStackEP10QUndoStack
	_ZN10QUndoGroup12cleanChangedEb
	_ZN10QUndoGroup12indexChangedEi
	_ZN10QUndoGroup14canRedoChangedEb
	_ZN10QUndoGroup14canUndoChangedEb
	_ZN10QUndoGroup14setActiveStackEP10QUndoStack
	_ZN10QUndoGroup15redoTextChangedERK7QString
	_ZN10QUndoGroup15undoTextChangedERK7QString
	_ZN10QUndoGroup16staticMetaObjectE
	_ZN10QUndoGroup18activeStackChangedEP10QUndoStack
	_ZN10QUndoGroup18qt_static_metacallEP7QObjectN11QMetaObject4CallEiPPv
	_ZN10QUndoGroup4redoEv
	_ZN10QUndoGroup4undoEv
	_ZN10QUndoGroup8addStackEP10QUndoStack
	_ZN10QUndoGroupC1EP7QObject
	_ZN10QUndoGroupC2EP7QObject
	_ZN10QUndoGroupD0Ev
	_ZN10QUndoGroupD1Ev
	_ZN10QUndoGroupD2Ev
	_ZN10QUndoStack10beginMacroERK7QString
	_ZN10QUndoStack11qt_metacallEN11QMetaObject4CallEiPPv
	_ZN10QUndoStack11qt_metacastEPKc
	_ZN10QUndoStack12cleanChangedEb
	_ZN10QUndoStack12indexChangedEi
	_ZN10QUndoStack12setUndoLimitEi
	_ZN10QUndoStack14canRedoChangedEb
	_ZN10QUndoStack14canUndoChangedEb
	_ZN10QUndoStack15redoTextChangedERK7QString
	_ZN10QUndoStack15undoTextChangedERK7QString
	_ZN10QUndoStack16staticMetaObjectE
	_ZN10QUndoStack18qt_static_metacallEP7QObjectN11QMetaObject4CallEiPPv
	_ZN10QUndoStack4pushEP12QUndoCommand
	_ZN10QUndoStack4redoEv
	_ZN10QUndoStack4undoEv
	_ZN10QUndoStack5clearEv
	_ZN10QUndoStack8endMacroEv
	_ZN10QUndoStack8setCleanEv
	_ZN10QUndoStack8setIndexEi
	_ZN10QUndoStack9setActiveEb
	_ZN10QUndoStackC1EP7QObject
	_ZN10QUndoStackC2EP7QObject
	_ZN10QUndoStackD0Ev
	_ZN10QUndoStackD1Ev
	_ZN10QUndoStackD2Ev
	_ZN10QWhatsThis12createActionEP7QObject
	_ZN10QWhatsThis15inWhatsThisModeEv
	_ZN10QWhatsThis18enterWhatsThisModeEv
	_ZN10QWhatsThis18leaveWhatsThisModeEv
	_ZN10QWhatsThis8hideTextEv
	_ZN10QWhatsThis8showTextERK6QPointRK7QStringP7QWidget
	_ZN11QColumnView10moveCursorEN17QAbstractItemView12CursorActionE6QFlagsIN2Qt16KeyboardModifierEE
	_ZN11QColumnView11qt_metacallEN11QMetaObject4CallEiPPv
	_ZN11QColumnView11qt_metacastEPKc
	_ZN11QColumnView11resizeEventEP12QResizeEvent
	_ZN11QColumnView12createColumnERK11QModelIndex
	_ZN11QColumnView12rowsInsertedERK11QModelIndexii
	_ZN11QColumnView12setRootIndexERK11QModelIndex
	_ZN11QColumnView12setSelectionERK5QRect6QFlagsIN19QItemSelectionModel13SelectionFlagEE
	_ZN11QColumnView14currentChangedERK11QModelIndexS2_
	_ZN11QColumnView15setColumnWidthsERK5QListIiE
	_ZN11QColumnView16scrollContentsByEii
	_ZN11QColumnView16setPreviewWidgetEP7QWidget
	_ZN11QColumnView16staticMetaObjectE
	_ZN11QColumnView17setSelectionModelEP19QItemSelectionModel
	_ZN11QColumnView18qt_static_metacallEP7QObjectN11QMetaObject4CallEiPPv
	_ZN11QColumnView19updatePreviewWidgetERK11QModelIndex
	_ZN11QColumnView21setResizeGripsVisibleEb
	_ZN11QColumnView8scrollToERK11QModelIndexN17QAbstractItemView10ScrollHintE
	_ZN11QColumnView8setModelEP18QAbstractItemModel
	_ZN11QColumnView9selectAllEv
	_ZN11QColumnViewC1EP7QWidget
	_ZN11QColumnViewC1ER18QColumnViewPrivateP7QWidget
	_ZN11QColumnViewC2EP7QWidget
	_ZN11QColumnViewC2ER18QColumnViewPrivateP7QWidget
	_ZN11QColumnViewD0Ev
	_ZN11QColumnViewD1Ev
	_ZN11QColumnViewD2Ev
	_ZN11QDockWidget10closeEventEP11QCloseEvent
	_ZN11QDockWidget10paintEventEP11QPaintEvent
	_ZN11QDockWidget11changeEventEP6QEvent
	_ZN11QDockWidget11qt_metacallEN11QMetaObject4CallEiPPv
	_ZN11QDockWidget11qt_metacastEPKc
	_ZN11QDockWidget11setFeaturesE6QFlagsINS_17DockWidgetFeatureEE
	_ZN11QDockWidget11setFloatingEb
	_ZN11QDockWidget15featuresChangedE6QFlagsINS_17DockWidgetFeatureEE
	_ZN11QDockWidget15setAllowedAreasE6QFlagsIN2Qt14DockWidgetAreaEE
	_ZN11QDockWidget15topLevelChangedEb
	_ZN11QDockWidget16staticMetaObjectE
	_ZN11QDockWidget17setTitleBarWidgetEP7QWidget
	_ZN11QDockWidget17visibilityChangedEb
	_ZN11QDockWidget18qt_static_metacallEP7QObjectN11QMetaObject4CallEiPPv
	_ZN11QDockWidget19allowedAreasChangedE6QFlagsIN2Qt14DockWidgetAreaEE
	_ZN11QDockWidget19dockLocationChangedEN2Qt14DockWidgetAreaE
	_ZN11QDockWidget5eventEP6QEvent
	_ZN11QDockWidget9setWidgetEP7QWidget
	_ZN11QDockWidgetC1EP7QWidget6QFlagsIN2Qt10WindowTypeEE
	_ZN11QDockWidgetC1ERK7QStringP7QWidget6QFlagsIN2Qt10WindowTypeEE
	_ZN11QDockWidgetC2EP7QWidget6QFlagsIN2Qt10WindowTypeEE
	_ZN11QDockWidgetC2ERK7QStringP7QWidget6QFlagsIN2Qt10WindowTypeEE
	_ZN11QDockWidgetD0Ev
	_ZN11QDockWidgetD1Ev
	_ZN11QDockWidgetD2Ev
	_ZN11QFileDialog10selectFileERK7QString
	_ZN11QFileDialog10setHistoryERK11QStringList
	_ZN11QFileDialog10setOptionsE6QFlagsINS_6OptionEE
	_ZN11QFileDialog10setVisibleEb
	_ZN11QFileDialog11changeEventEP6QEvent
	_ZN11QFileDialog11qt_metacallEN11QMetaObject4CallEiPPv
	_ZN11QFileDialog11qt_metacastEPKc
	_ZN11QFileDialog11setFileModeENS_8FileModeE
	_ZN11QFileDialog11setReadOnlyEb
	_ZN11QFileDialog11setViewModeENS_8ViewModeE
	_ZN11QFileDialog11urlSelectedERK4QUrl
	_ZN11QFileDialog12fileSelectedERK7QString
	_ZN11QFileDialog12restoreStateERK10QByteArray
	_ZN11QFileDialog12setDirectoryERK7QString
	_ZN11QFileDialog12setLabelTextENS_11DialogLabelERK7QString
	_ZN11QFileDialog12urlsSelectedERK5QListI4QUrlE
	_ZN11QFileDialog13filesSelectedERK11QStringList
	_ZN11QFileDialog13setAcceptModeENS_10AcceptModeE
	_ZN11QFileDialog13setNameFilterERK7QString
	_ZN11QFileDialog13setProxyModelEP19QAbstractProxyModel
	_ZN11QFileDialog14currentChangedERK7QString
	_ZN11QFileDialog14filterSelectedERK7QString
	_ZN11QFileDialog14getOpenFileUrlEP7QWidgetRK7QStringRK4QUrlS4_PS2_6QFlagsINS_6OptionEERK11QStringList
	_ZN11QFileDialog14getSaveFileUrlEP7QWidgetRK7QStringRK4QUrlS4_PS2_6QFlagsINS_6OptionEERK11QStringList
	_ZN11QFileDialog14setNameFiltersERK11QStringList
	_ZN11QFileDialog14setSidebarUrlsERK5QListI4QUrlE
	_ZN11QFileDialog15getOpenFileNameEP7QWidgetRK7QStringS4_S4_PS2_6QFlagsINS_6OptionEE
	_ZN11QFileDialog15getOpenFileUrlsEP7QWidgetRK7QStringRK4QUrlS4_PS2_6QFlagsINS_6OptionEERK11QStringList
	_ZN11QFileDialog15getSaveFileNameEP7QWidgetRK7QStringS4_S4_PS2_6QFlagsINS_6OptionEE
	_ZN11QFileDialog15setDirectoryUrlERK4QUrl
	_ZN11QFileDialog15setIconProviderEP17QFileIconProvider
	_ZN11QFileDialog15setItemDelegateEP21QAbstractItemDelegate
	_ZN11QFileDialog16directoryEnteredERK7QString
	_ZN11QFileDialog16getOpenFileNamesEP7QWidgetRK7QStringS4_S4_PS2_6QFlagsINS_6OptionEE
	_ZN11QFileDialog16selectNameFilterERK7QString
	_ZN11QFileDialog16setDefaultSuffixERK7QString
	_ZN11QFileDialog16staticMetaObjectE
	_ZN11QFileDialog17currentUrlChangedERK4QUrl
	_ZN11QFileDialog18qt_static_metacallEP7QObjectN11QMetaObject4CallEiPPv
	_ZN11QFileDialog18setMimeTypeFiltersERK11QStringList
	_ZN11QFileDialog18setResolveSymlinksEb
	_ZN11QFileDialog19directoryUrlEnteredERK4QUrl
	_ZN11QFileDialog19setConfirmOverwriteEb
	_ZN11QFileDialog20getExistingDirectoryEP7QWidgetRK7QStringS4_6QFlagsINS_6OptionEE
	_ZN11QFileDialog20selectMimeTypeFilterERK7QString
	_ZN11QFileDialog23getExistingDirectoryUrlEP7QWidgetRK7QStringRK4QUrl6QFlagsINS_6OptionEERK11QStringList
	_ZN11QFileDialog27setNameFilterDetailsVisibleEb
	_ZN11QFileDialog4doneEi
	_ZN11QFileDialog4openEP7QObjectPKc
	_ZN11QFileDialog6acceptEv
	_ZN11QFileDialog9selectUrlERK4QUrl
	_ZN11QFileDialog9setFilterE6QFlagsIN4QDir6FilterEE
	_ZN11QFileDialog9setOptionENS_6OptionEb
	_ZN11QFileDialogC1EP7QWidget6QFlagsIN2Qt10WindowTypeEE
	_ZN11QFileDialogC1EP7QWidgetRK7QStringS4_S4_
	_ZN11QFileDialogC1ERK15QFileDialogArgs
	_ZN11QFileDialogC2EP7QWidget6QFlagsIN2Qt10WindowTypeEE
	_ZN11QFileDialogC2EP7QWidgetRK7QStringS4_S4_
	_ZN11QFileDialogC2ERK15QFileDialogArgs
	_ZN11QFileDialogD0Ev
	_ZN11QFileDialogD1Ev
	_ZN11QFileDialogD2Ev
	_ZN11QFocusFrame10paintEventEP11QPaintEvent
	_ZN11QFocusFrame11eventFilterEP7QObjectP6QEvent
	_ZN11QFocusFrame11qt_metacallEN11QMetaObject4CallEiPPv
	_ZN11QFocusFrame11qt_metacastEPKc
	_ZN11QFocusFrame16staticMetaObjectE
	_ZN11QFocusFrame18qt_static_metacallEP7QObjectN11QMetaObject4CallEiPPv
	_ZN11QFocusFrame5eventEP6QEvent
	_ZN11QFocusFrame9setWidgetEP7QWidget
	_ZN11QFocusFrameC1EP7QWidget
	_ZN11QFocusFrameC2EP7QWidget
	_ZN11QFocusFrameD0Ev
	_ZN11QFocusFrameD1Ev
	_ZN11QFocusFrameD2Ev
	_ZN11QFontDialog10setOptionsE6QFlagsINS_16FontDialogOptionEE
	_ZN11QFontDialog10setVisibleEb
	_ZN11QFontDialog11changeEventEP6QEvent
	_ZN11QFontDialog11eventFilterEP7QObjectP6QEvent
	_ZN11QFontDialog11qt_metacallEN11QMetaObject4CallEiPPv
	_ZN11QFontDialog11qt_metacastEPKc
	_ZN11QFontDialog12fontSelectedERK5QFont
	_ZN11QFontDialog14setCurrentFontERK5QFont
	_ZN11QFontDialog16staticMetaObjectE
	_ZN11QFontDialog18currentFontChangedERK5QFont
	_ZN11QFontDialog18qt_static_metacallEP7QObjectN11QMetaObject4CallEiPPv
	_ZN11QFontDialog4doneEi
	_ZN11QFontDialog4openEP7QObjectPKc
	_ZN11QFontDialog7getFontEPbP7QWidget
	_ZN11QFontDialog7getFontEPbRK5QFontP7QWidgetRK7QString6QFlagsINS_16FontDialogOptionEE
	_ZN11QFontDialog9setOptionENS_16FontDialogOptionEb
	_ZN11QFontDialogC1EP7QWidget
	_ZN11QFontDialogC1ERK5QFontP7QWidget
	_ZN11QFontDialogC2EP7QWidget
	_ZN11QFontDialogC2ERK5QFontP7QWidget
	_ZN11QFontDialogD0Ev
	_ZN11QFontDialogD1Ev
	_ZN11QFontDialogD2Ev
	_ZN11QFormLayout10invalidateEv
	_ZN11QFormLayout10setSpacingEi
	_ZN11QFormLayout11qt_metacallEN11QMetaObject4CallEiPPv
	_ZN11QFormLayout11qt_metacastEPKc
	_ZN11QFormLayout11setGeometryERK5QRect
	_ZN11QFormLayout16setFormAlignmentE6QFlagsIN2Qt13AlignmentFlagEE
	_ZN11QFormLayout16setRowWrapPolicyENS_13RowWrapPolicyE
	_ZN11QFormLayout16staticMetaObjectE
	_ZN11QFormLayout17setLabelAlignmentE6QFlagsIN2Qt13AlignmentFlagEE
	_ZN11QFormLayout18qt_static_metacallEP7QObjectN11QMetaObject4CallEiPPv
	_ZN11QFormLayout18resetFormAlignmentEv
	_ZN11QFormLayout18resetRowWrapPolicyEv
	_ZN11QFormLayout18setVerticalSpacingEi
	_ZN11QFormLayout19resetLabelAlignmentEv
	_ZN11QFormLayout20setFieldGrowthPolicyENS_17FieldGrowthPolicyE
	_ZN11QFormLayout20setHorizontalSpacingEi
	_ZN11QFormLayout22resetFieldGrowthPolicyEv
	_ZN11QFormLayout6addRowEP7QLayout
	_ZN11QFormLayout6addRowEP7QWidget
	_ZN11QFormLayout6addRowEP7QWidgetP7QLayout
	_ZN11QFormLayout6addRowEP7QWidgetS1_
	_ZN11QFormLayout6addRowERK7QStringP7QLayout
	_ZN11QFormLayout6addRowERK7QStringP7QWidget
	_ZN11QFormLayout6takeAtEi
	_ZN11QFormLayout7addItemEP11QLayoutItem
	_ZN11QFormLayout7setItemEiNS_8ItemRoleEP11QLayoutItem
	_ZN11QFormLayout9insertRowEiP7QLayout
	_ZN11QFormLayout9insertRowEiP7QWidget
	_ZN11QFormLayout9insertRowEiP7QWidgetP7QLayout
	_ZN11QFormLayout9insertRowEiP7QWidgetS1_
	_ZN11QFormLayout9insertRowEiRK7QStringP7QLayout
	_ZN11QFormLayout9insertRowEiRK7QStringP7QWidget
	_ZN11QFormLayout9setLayoutEiNS_8ItemRoleEP7QLayout
	_ZN11QFormLayout9setWidgetEiNS_8ItemRoleEP7QWidget
	_ZN11QFormLayoutC1EP7QWidget
	_ZN11QFormLayoutC2EP7QWidget
	_ZN11QFormLayoutD0Ev
	_ZN11QFormLayoutD1Ev
	_ZN11QFormLayoutD2Ev
	_ZN11QGridLayout10invalidateEv
	_ZN11QGridLayout10setSpacingEi
	_ZN11QGridLayout11qt_metacallEN11QMetaObject4CallEiPPv
	_ZN11QGridLayout11qt_metacastEPKc
	_ZN11QGridLayout11setGeometryERK5QRect
	_ZN11QGridLayout13setRowStretchEii
	_ZN11QGridLayout15setOriginCornerEN2Qt6CornerE
	_ZN11QGridLayout16setColumnStretchEii
	_ZN11QGridLayout16staticMetaObjectE
	_ZN11QGridLayout18qt_static_metacallEP7QObjectN11QMetaObject4CallEiPPv
	_ZN11QGridLayout18setVerticalSpacingEi
	_ZN11QGridLayout19setRowMinimumHeightEii
	_ZN11QGridLayout20setHorizontalSpacingEi
	_ZN11QGridLayout21setColumnMinimumWidthEii
	_ZN11QGridLayout21setDefaultPositioningEiN2Qt11OrientationE
	_ZN11QGridLayout6takeAtEi
	_ZN11QGridLayout7addItemEP11QLayoutItem
	_ZN11QGridLayout7addItemEP11QLayoutItemiiii6QFlagsIN2Qt13AlignmentFlagEE
	_ZN11QGridLayout9addLayoutEP7QLayoutii6QFlagsIN2Qt13AlignmentFlagEE
	_ZN11QGridLayout9addLayoutEP7QLayoutiiii6QFlagsIN2Qt13AlignmentFlagEE
	_ZN11QGridLayout9addWidgetEP7QWidgetii6QFlagsIN2Qt13AlignmentFlagEE
	_ZN11QGridLayout9addWidgetEP7QWidgetiiii6QFlagsIN2Qt13AlignmentFlagEE
	_ZN11QGridLayoutC1EP7QWidget
	_ZN11QGridLayoutC1Ev
	_ZN11QGridLayoutC2EP7QWidget
	_ZN11QGridLayoutC2Ev
	_ZN11QGridLayoutD0Ev
	_ZN11QGridLayoutD1Ev
	_ZN11QGridLayoutD2Ev
	_ZN11QHBoxLayout11qt_metacallEN11QMetaObject4CallEiPPv
	_ZN11QHBoxLayout11qt_metacastEPKc
	_ZN11QHBoxLayout16staticMetaObjectE
	_ZN11QHBoxLayout18qt_static_metacallEP7QObjectN11QMetaObject4CallEiPPv
	_ZN11QHBoxLayoutC1EP7QWidget
	_ZN11QHBoxLayoutC1Ev
	_ZN11QHBoxLayoutC2EP7QWidget
	_ZN11QHBoxLayoutC2Ev
	_ZN11QHBoxLayoutD0Ev
	_ZN11QHBoxLayoutD1Ev
	_ZN11QHBoxLayoutD2Ev
	_ZN11QHeaderView10initializeEv
	_ZN11QHeaderView10moveCursorEN17QAbstractItemView12CursorActionE6QFlagsIN2Qt16KeyboardModifierEE
	_ZN11QHeaderView10paintEventEP11QPaintEvent
	_ZN11QHeaderView10setVisibleEb
	_ZN11QHeaderView11dataChangedERK11QModelIndexS2_RK7QVectorIiE
	_ZN11QHeaderView11moveSectionEii
	_ZN11QHeaderView11qt_metacallEN11QMetaObject4CallEiPPv
	_ZN11QHeaderView11qt_metacastEPKc
	_ZN11QHeaderView12restoreStateERK10QByteArray
	_ZN11QHeaderView12rowsInsertedERK11QModelIndexii
	_ZN11QHeaderView12sectionMovedEiii
	_ZN11QHeaderView12setSelectionERK5QRect6QFlagsIN19QItemSelectionModel13SelectionFlagEE
	_ZN11QHeaderView12swapSectionsEii
	_ZN11QHeaderView13doItemsLayoutEv
	_ZN11QHeaderView13resizeSectionEii
	_ZN11QHeaderView13updateSectionEi
	_ZN11QHeaderView13viewportEventEP6QEvent
	_ZN11QHeaderView14currentChangedERK11QModelIndexS2_
	_ZN11QHeaderView14mouseMoveEventEP11QMouseEvent
	_ZN11QHeaderView14resizeSectionsENS_10ResizeModeE
	_ZN11QHeaderView14resizeSectionsEv
	_ZN11QHeaderView14sectionClickedEi
	_ZN11QHeaderView14sectionEnteredEi
	_ZN11QHeaderView14sectionPressedEi
	_ZN11QHeaderView14sectionResizedEiii
	_ZN11QHeaderView15mousePressEventEP11QMouseEvent
	_ZN11QHeaderView16scrollContentsByEii
	_ZN11QHeaderView16sectionsInsertedERK11QModelIndexii
	_ZN11QHeaderView16setSectionHiddenEib
	_ZN11QHeaderView16setSortIndicatorEiN2Qt9SortOrderE
	_ZN11QHeaderView16staticMetaObjectE
	_ZN11QHeaderView16updateGeometriesEv
	_ZN11QHeaderView17geometriesChangedEv
	_ZN11QHeaderView17headerDataChangedEN2Qt11OrientationEii
	_ZN11QHeaderView17mouseReleaseEventEP11QMouseEvent
	_ZN11QHeaderView18initializeSectionsEii
	_ZN11QHeaderView18initializeSectionsEv
	_ZN11QHeaderView18qt_static_metacallEP7QObjectN11QMetaObject4CallEiPPv
	_ZN11QHeaderView18setSectionsMovableEb
	_ZN11QHeaderView19sectionCountChangedEii
	_ZN11QHeaderView19setDefaultAlignmentE6QFlagsIN2Qt13AlignmentFlagEE
	_ZN11QHeaderView20sectionDoubleClickedEi
	_ZN11QHeaderView20setHighlightSectionsEb
	_ZN11QHeaderView20setSectionResizeModeENS_10ResizeModeE
	_ZN11QHeaderView20setSectionResizeModeEiNS_10ResizeModeE
	_ZN11QHeaderView20setSectionsClickableEb
	_ZN11QHeaderView20sortIndicatorChangedEiN2Qt9SortOrderE
	_ZN11QHeaderView21mouseDoubleClickEventEP11QMouseEvent
	_ZN11QHeaderView21setDefaultSectionSizeEi
	_ZN11QHeaderView21setMaximumSectionSizeEi
	_ZN11QHeaderView21setMinimumSectionSizeEi
	_ZN11QHeaderView21setSortIndicatorShownEb
	_ZN11QHeaderView21setStretchLastSectionEb
	_ZN11QHeaderView22setOffsetToLastSectionEv
	_ZN11QHeaderView24sectionsAboutToBeRemovedERK11QModelIndexii
	_ZN11QHeaderView26sectionHandleDoubleClickedEi
	_ZN11QHeaderView26setCascadingSectionResizesEb
	_ZN11QHeaderView26setOffsetToSectionPositionEi
	_ZN11QHeaderView26setResizeContentsPrecisionEi
	_ZN11QHeaderView5eventEP6QEvent
	_ZN11QHeaderView5resetEv
	_ZN11QHeaderView8scrollToERK11QModelIndexN17QAbstractItemView10ScrollHintE
	_ZN11QHeaderView8setModelEP18QAbstractItemModel
	_ZN11QHeaderView9setOffsetEi
	_ZN11QHeaderViewC1EN2Qt11OrientationEP7QWidget
	_ZN11QHeaderViewC1ER18QHeaderViewPrivateN2Qt11OrientationEP7QWidget
	_ZN11QHeaderViewC2EN2Qt11OrientationEP7QWidget
	_ZN11QHeaderViewC2ER18QHeaderViewPrivateN2Qt11OrientationEP7QWidget
	_ZN11QHeaderViewD0Ev
	_ZN11QHeaderViewD1Ev
	_ZN11QHeaderViewD2Ev
	_ZN11QLayoutItem10invalidateEv
	_ZN11QLayoutItem10spacerItemEv
	_ZN11QLayoutItem12setAlignmentE6QFlagsIN2Qt13AlignmentFlagEE
	_ZN11QLayoutItem6layoutEv
	_ZN11QLayoutItem6widgetEv
	_ZN11QLayoutItemD0Ev
	_ZN11QLayoutItemD1Ev
	_ZN11QLayoutItemD2Ev
	_ZN11QListWidget10insertItemEiP15QListWidgetItem
	_ZN11QListWidget10insertItemEiRK7QString
	_ZN11QListWidget11insertItemsEiRK11QStringList
	_ZN11QListWidget11itemChangedEP15QListWidgetItem
	_ZN11QListWidget11itemClickedEP15QListWidgetItem
	_ZN11QListWidget11itemEnteredEP15QListWidgetItem
	_ZN11QListWidget11itemPressedEP15QListWidgetItem
	_ZN11QListWidget11qt_metacallEN11QMetaObject4CallEiPPv
	_ZN11QListWidget11qt_metacastEPKc
	_ZN11QListWidget12dropMimeDataEiPK9QMimeDataN2Qt10DropActionE
	_ZN11QListWidget12scrollToItemEPK15QListWidgetItemN17QAbstractItemView10ScrollHintE
	_ZN11QListWidget13itemActivatedEP15QListWidgetItem
	_ZN11QListWidget13setCurrentRowEi
	_ZN11QListWidget13setCurrentRowEi6QFlagsIN19QItemSelectionModel13SelectionFlagEE
	_ZN11QListWidget13setItemHiddenEPK15QListWidgetItemb
	_ZN11QListWidget13setItemWidgetEP15QListWidgetItemP7QWidget
	_ZN11QListWidget14setCurrentItemEP15QListWidgetItem
	_ZN11QListWidget14setCurrentItemEP15QListWidgetItem6QFlagsIN19QItemSelectionModel13SelectionFlagEE
	_ZN11QListWidget15setItemSelectedEPK15QListWidgetItemb
	_ZN11QListWidget16staticMetaObjectE
	_ZN11QListWidget17currentRowChangedEi
	_ZN11QListWidget17itemDoubleClickedEP15QListWidgetItem
	_ZN11QListWidget17setSortingEnabledEb
	_ZN11QListWidget18currentItemChangedEP15QListWidgetItemS1_
	_ZN11QListWidget18currentTextChangedERK7QString
	_ZN11QListWidget18qt_static_metacallEP7QObjectN11QMetaObject4CallEiPPv
	_ZN11QListWidget20itemSelectionChangedEv
	_ZN11QListWidget20openPersistentEditorEP15QListWidgetItem
	_ZN11QListWidget21closePersistentEditorEP15QListWidgetItem
	_ZN11QListWidget5clearEv
	_ZN11QListWidget5eventEP6QEvent
	_ZN11QListWidget8editItemEP15QListWidgetItem
	_ZN11QListWidget8setModelEP18QAbstractItemModel
	_ZN11QListWidget8takeItemEi
	_ZN11QListWidget9dropEventEP10QDropEvent
	_ZN11QListWidget9sortItemsEN2Qt9SortOrderE
	_ZN11QListWidgetC1EP7QWidget
	_ZN11QListWidgetC2EP7QWidget
	_ZN11QListWidgetD0Ev
	_ZN11QListWidgetD1Ev
	_ZN11QListWidgetD2Ev
	_ZN11QMainWindow10addToolBarEN2Qt11ToolBarAreaEP8QToolBar
	_ZN11QMainWindow10addToolBarEP8QToolBar
	_ZN11QMainWindow10addToolBarERK7QString
	_ZN11QMainWindow10setMenuBarEP8QMenuBar
	_ZN11QMainWindow11qt_metacallEN11QMetaObject4CallEiPPv
	_ZN11QMainWindow11qt_metacastEPKc
	_ZN11QMainWindow11setAnimatedEb
	_ZN11QMainWindow11setIconSizeERK5QSize
	_ZN11QMainWindow11setTabShapeEN10QTabWidget8TabShapeE
	_ZN11QMainWindow12restoreStateERK10QByteArrayi
	_ZN11QMainWindow12setStatusBarEP10QStatusBar
	_ZN11QMainWindow13addDockWidgetEN2Qt14DockWidgetAreaEP11QDockWidget
	_ZN11QMainWindow13addDockWidgetEN2Qt14DockWidgetAreaEP11QDockWidgetNS0_11OrientationE
	_ZN11QMainWindow13insertToolBarEP8QToolBarS1_
	_ZN11QMainWindow13removeToolBarEP8QToolBar
	_ZN11QMainWindow13setMenuWidgetEP7QWidget
	_ZN11QMainWindow14setDockOptionsE6QFlagsINS_10DockOptionEE
	_ZN11QMainWindow14setTabPositionE6QFlagsIN2Qt14DockWidgetAreaEEN10QTabWidget11TabPositionE
	_ZN11QMainWindow15addToolBarBreakEN2Qt11ToolBarAreaE
	_ZN11QMainWindow15createPopupMenuEv
	_ZN11QMainWindow15iconSizeChangedERK5QSize
	_ZN11QMainWindow15setDocumentModeEb
	_ZN11QMainWindow15splitDockWidgetEP11QDockWidgetS1_N2Qt11OrientationE
	_ZN11QMainWindow16contextMenuEventEP17QContextMenuEvent
	_ZN11QMainWindow16removeDockWidgetEP11QDockWidget
	_ZN11QMainWindow16setCentralWidgetEP7QWidget
	_ZN11QMainWindow16staticMetaObjectE
	_ZN11QMainWindow16tabifyDockWidgetEP11QDockWidgetS1_
	_ZN11QMainWindow17restoreDockWidgetEP11QDockWidget
	_ZN11QMainWindow17takeCentralWidgetEv
	_ZN11QMainWindow18insertToolBarBreakEP8QToolBar
	_ZN11QMainWindow18qt_static_metacallEP7QObjectN11QMetaObject4CallEiPPv
	_ZN11QMainWindow18removeToolBarBreakEP8QToolBar
	_ZN11QMainWindow18setToolButtonStyleEN2Qt15ToolButtonStyleE
	_ZN11QMainWindow21setDockNestingEnabledEb
	_ZN11QMainWindow22toolButtonStyleChangedEN2Qt15ToolButtonStyleE
	_ZN11QMainWindow30setUnifiedTitleAndToolBarOnMacEb
	_ZN11QMainWindow5eventEP6QEvent
	_ZN11QMainWindow9setCornerEN2Qt6CornerENS0_14DockWidgetAreaE
	_ZN11QMainWindowC1EP7QWidget6QFlagsIN2Qt10WindowTypeEE
	_ZN11QMainWindowC2EP7QWidget6QFlagsIN2Qt10WindowTypeEE
	_ZN11QMainWindowD0Ev
	_ZN11QMainWindowD1Ev
	_ZN11QMainWindowD2Ev
	_ZN11QMessageBox10closeEventEP11QCloseEvent
	_ZN11QMessageBox11changeEventEP6QEvent
	_ZN11QMessageBox11informationEP7QWidgetRK7QStringS4_6QFlagsINS_14StandardButtonEES6_
	_ZN11QMessageBox11informationEP7QWidgetRK7QStringS4_S4_S4_S4_ii
	_ZN11QMessageBox11informationEP7QWidgetRK7QStringS4_iii
	_ZN11QMessageBox11qt_metacallEN11QMetaObject4CallEiPPv
	_ZN11QMessageBox11qt_metacastEPKc
	_ZN11QMessageBox11resizeEventEP12QResizeEvent
	_ZN11QMessageBox11setCheckBoxEP9QCheckBox
	_ZN11QMessageBox12removeButtonEP15QAbstractButton
	_ZN11QMessageBox12standardIconENS_4IconE
	_ZN11QMessageBox13buttonClickedEP15QAbstractButton
	_ZN11QMessageBox13keyPressEventEP9QKeyEvent
	_ZN11QMessageBox13setButtonTextEiRK7QString
	_ZN11QMessageBox13setIconPixmapERK7QPixmap
	_ZN11QMessageBox13setTextFormatEN2Qt10TextFormatE
	_ZN11QMessageBox14setWindowTitleERK7QString
	_ZN11QMessageBox15setDetailedTextERK7QString
	_ZN11QMessageBox15setEscapeButtonENS_14StandardButtonE
	_ZN11QMessageBox15setEscapeButtonEP15QAbstractButton
	_ZN11QMessageBox16setDefaultButtonENS_14StandardButtonE
	_ZN11QMessageBox16setDefaultButtonEP11QPushButton
	_ZN11QMessageBox16staticMetaObjectE
	_ZN11QMessageBox17setWindowModalityEN2Qt14WindowModalityE
	_ZN11QMessageBox18qt_static_metacallEP7QObjectN11QMetaObject4CallEiPPv
	_ZN11QMessageBox18setInformativeTextERK7QString
	_ZN11QMessageBox18setStandardButtonsE6QFlagsINS_14StandardButtonEE
	_ZN11QMessageBox23setTextInteractionFlagsE6QFlagsIN2Qt19TextInteractionFlagEE
	_ZN11QMessageBox4openEP7QObjectPKc
	_ZN11QMessageBox5aboutEP7QWidgetRK7QStringS4_
	_ZN11QMessageBox5eventEP6QEvent
	_ZN11QMessageBox7aboutQtEP7QWidgetRK7QString
	_ZN11QMessageBox7setIconENS_4IconE
	_ZN11QMessageBox7setTextERK7QString
	_ZN11QMessageBox7warningEP7QWidgetRK7QStringS4_6QFlagsINS_14StandardButtonEES6_
	_ZN11QMessageBox7warningEP7QWidgetRK7QStringS4_S4_S4_S4_ii
	_ZN11QMessageBox7warningEP7QWidgetRK7QStringS4_iii
	_ZN11QMessageBox8criticalEP7QWidgetRK7QStringS4_6QFlagsINS_14StandardButtonEES6_
	_ZN11QMessageBox8criticalEP7QWidgetRK7QStringS4_S4_S4_S4_ii
	_ZN11QMessageBox8criticalEP7QWidgetRK7QStringS4_iii
	_ZN11QMessageBox8questionEP7QWidgetRK7QStringS4_6QFlagsINS_14StandardButtonEES6_
	_ZN11QMessageBox8questionEP7QWidgetRK7QStringS4_S4_S4_S4_ii
	_ZN11QMessageBox8questionEP7QWidgetRK7QStringS4_iii
	_ZN11QMessageBox9addButtonENS_14StandardButtonE
	_ZN11QMessageBox9addButtonEP15QAbstractButtonNS_10ButtonRoleE
	_ZN11QMessageBox9addButtonERK7QStringNS_10ButtonRoleE
	_ZN11QMessageBox9showEventEP10QShowEvent
	_ZN11QMessageBoxC1ENS_4IconERK7QStringS3_6QFlagsINS_14StandardButtonEEP7QWidgetS4_IN2Qt10WindowTypeEE
	_ZN11QMessageBoxC1EP7QWidget
	_ZN11QMessageBoxC1ERK7QStringS2_NS_4IconEiiiP7QWidget6QFlagsIN2Qt10WindowTypeEE
	_ZN11QMessageBoxC2ENS_4IconERK7QStringS3_6QFlagsINS_14StandardButtonEEP7QWidgetS4_IN2Qt10WindowTypeEE
	_ZN11QMessageBoxC2EP7QWidget
	_ZN11QMessageBoxC2ERK7QStringS2_NS_4IconEiiiP7QWidget6QFlagsIN2Qt10WindowTypeEE
	_ZN11QMessageBoxD0Ev
	_ZN11QMessageBoxD1Ev
	_ZN11QMessageBoxD2Ev
	_ZN11QPanGesture11qt_metacallEN11QMetaObject4CallEiPPv
	_ZN11QPanGesture11qt_metacastEPKc
	_ZN11QPanGesture13setLastOffsetERK7QPointF
	_ZN11QPanGesture15setAccelerationEd
	_ZN11QPanGesture16staticMetaObjectE
	_ZN11QPanGesture18qt_static_metacallEP7QObjectN11QMetaObject4CallEiPPv
	_ZN11QPanGesture9setOffsetERK7QPointF
	_ZN11QPanGestureC1EP7QObject
	_ZN11QPanGestureC2EP7QObject
	_ZN11QPanGestureD0Ev
	_ZN11QPanGestureD1Ev
	_ZN11QPanGestureD2Ev
	_ZN11QProxyStyle11qt_metacallEN11QMetaObject4CallEiPPv
	_ZN11QProxyStyle11qt_metacastEPKc
	_ZN11QProxyStyle12setBaseStyleEP6QStyle
	_ZN11QProxyStyle16staticMetaObjectE
	_ZN11QProxyStyle18qt_static_metacallEP7QObjectN11QMetaObject4CallEiPPv
	_ZN11QProxyStyle5eventEP6QEvent
	_ZN11QProxyStyle6polishEP12QApplication
	_ZN11QProxyStyle6polishEP7QWidget
	_ZN11QProxyStyle6polishER8QPalette
	_ZN11QProxyStyle8unpolishEP12QApplication
	_ZN11QProxyStyle8unpolishEP7QWidget
	_ZN11QProxyStyleC1EP6QStyle
	_ZN11QProxyStyleC1ERK7QString
	_ZN11QProxyStyleC2EP6QStyle
	_ZN11QProxyStyleC2ERK7QString
	_ZN11QProxyStyleD0Ev
	_ZN11QProxyStyleD1Ev
	_ZN11QProxyStyleD2Ev
	_ZN11QPushButton10paintEventEP11QPaintEvent
	_ZN11QPushButton10setDefaultEb
	_ZN11QPushButton11qt_metacallEN11QMetaObject4CallEiPPv
	_ZN11QPushButton11qt_metacastEPKc
	_ZN11QPushButton12focusInEventEP11QFocusEvent
	_ZN11QPushButton13focusOutEventEP11QFocusEvent
	_ZN11QPushButton13keyPressEventEP9QKeyEvent
	_ZN11QPushButton14setAutoDefaultEb
	_ZN11QPushButton16staticMetaObjectE
	_ZN11QPushButton18qt_static_metacallEP7QObjectN11QMetaObject4CallEiPPv
	_ZN11QPushButton5eventEP6QEvent
	_ZN11QPushButton7setFlatEb
	_ZN11QPushButton7setMenuEP5QMenu
	_ZN11QPushButton8showMenuEv
	_ZN11QPushButtonC1EP7QWidget
	_ZN11QPushButtonC1ER18QPushButtonPrivateP7QWidget
	_ZN11QPushButtonC1ERK5QIconRK7QStringP7QWidget
	_ZN11QPushButtonC1ERK7QStringP7QWidget
	_ZN11QPushButtonC2EP7QWidget
	_ZN11QPushButtonC2ER18QPushButtonPrivateP7QWidget
	_ZN11QPushButtonC2ERK5QIconRK7QStringP7QWidget
	_ZN11QPushButtonC2ERK7QStringP7QWidget
	_ZN11QPushButtonD0Ev
	_ZN11QPushButtonD1Ev
	_ZN11QPushButtonD2Ev
	_ZN11QRubberBand10paintEventEP11QPaintEvent
	_ZN11QRubberBand11changeEventEP6QEvent
	_ZN11QRubberBand11qt_metacallEN11QMetaObject4CallEiPPv
	_ZN11QRubberBand11qt_metacastEPKc
	_ZN11QRubberBand11resizeEventEP12QResizeEvent
	_ZN11QRubberBand11setGeometryERK5QRect
	_ZN11QRubberBand16staticMetaObjectE
	_ZN11QRubberBand18qt_static_metacallEP7QObjectN11QMetaObject4CallEiPPv
	_ZN11QRubberBand5eventEP6QEvent
	_ZN11QRubberBand9moveEventEP10QMoveEvent
	_ZN11QRubberBand9showEventEP10QShowEvent
	_ZN11QRubberBandC1ENS_5ShapeEP7QWidget
	_ZN11QRubberBandC2ENS_5ShapeEP7QWidget
	_ZN11QRubberBandD0Ev
	_ZN11QRubberBandD1Ev
	_ZN11QRubberBandD2Ev
	_ZN11QScrollArea10takeWidgetEv
	_ZN11QScrollArea11eventFilterEP7QObjectP6QEvent
	_ZN11QScrollArea11qt_metacallEN11QMetaObject4CallEiPPv
	_ZN11QScrollArea11qt_metacastEPKc
	_ZN11QScrollArea11resizeEventEP12QResizeEvent
	_ZN11QScrollArea12setAlignmentE6QFlagsIN2Qt13AlignmentFlagEE
	_ZN11QScrollArea13ensureVisibleEiiii
	_ZN11QScrollArea16scrollContentsByEii
	_ZN11QScrollArea16staticMetaObjectE
	_ZN11QScrollArea18focusNextPrevChildEb
	_ZN11QScrollArea18qt_static_metacallEP7QObjectN11QMetaObject4CallEiPPv
	_ZN11QScrollArea18setWidgetResizableEb
	_ZN11QScrollArea19ensureWidgetVisibleEP7QWidgetii
	_ZN11QScrollArea5eventEP6QEvent
	_ZN11QScrollArea9setWidgetEP7QWidget
	_ZN11QScrollAreaC1EP7QWidget
	_ZN11QScrollAreaC1ER18QScrollAreaPrivateP7QWidget
	_ZN11QScrollAreaC2EP7QWidget
	_ZN11QScrollAreaC2ER18QScrollAreaPrivateP7QWidget
	_ZN11QScrollAreaD0Ev
	_ZN11QScrollAreaD1Ev
	_ZN11QScrollAreaD2Ev
	_ZN11QSizePolicy14setControlTypeENS_11ControlTypeE
	_ZN11QSizePolicy16staticMetaObjectE
	_ZN11QSpacerItem10changeSizeEiiN11QSizePolicy6PolicyES1_
	_ZN11QSpacerItem10spacerItemEv
	_ZN11QSpacerItem11setGeometryERK5QRect
	_ZN11QSpacerItemD0Ev
	_ZN11QSpacerItemD1Ev
	_ZN11QSpacerItemD2Ev
	_ZN11QTapGesture11qt_metacallEN11QMetaObject4CallEiPPv
	_ZN11QTapGesture11qt_metacastEPKc
	_ZN11QTapGesture11setPositionERK7QPointF
	_ZN11QTapGesture16staticMetaObjectE
	_ZN11QTapGesture18qt_static_metacallEP7QObjectN11QMetaObject4CallEiPPv
	_ZN11QTapGestureC1EP7QObject
	_ZN11QTapGestureC2EP7QObject
	_ZN11QTapGestureD0Ev
	_ZN11QTapGestureD1Ev
	_ZN11QTapGestureD2Ev
	_ZN11QToolButton10enterEventEP6QEvent
	_ZN11QToolButton10leaveEventEP6QEvent
	_ZN11QToolButton10paintEventEP11QPaintEvent
	_ZN11QToolButton10timerEventEP11QTimerEvent
	_ZN11QToolButton11actionEventEP12QActionEvent
	_ZN11QToolButton11changeEventEP6QEvent
	_ZN11QToolButton11qt_metacallEN11QMetaObject4CallEiPPv
	_ZN11QToolButton11qt_metacastEPKc
	_ZN11QToolButton12setArrowTypeEN2Qt9ArrowTypeE
	_ZN11QToolButton12setAutoRaiseEb
	_ZN11QToolButton12setPopupModeENS_19ToolButtonPopupModeE
	_ZN11QToolButton14nextCheckStateEv
	_ZN11QToolButton15mousePressEventEP11QMouseEvent
	_ZN11QToolButton16setDefaultActionEP7QAction
	_ZN11QToolButton16staticMetaObjectE
	_ZN11QToolButton17mouseReleaseEventEP11QMouseEvent
	_ZN11QToolButton18qt_static_metacallEP7QObjectN11QMetaObject4CallEiPPv
	_ZN11QToolButton18setToolButtonStyleEN2Qt15ToolButtonStyleE
	_ZN11QToolButton5eventEP6QEvent
	_ZN11QToolButton7setMenuEP5QMenu
	_ZN11QToolButton8showMenuEv
	_ZN11QToolButton9triggeredEP7QAction
	_ZN11QToolButtonC1EP7QWidget
	_ZN11QToolButtonC2EP7QWidget
	_ZN11QToolButtonD0Ev
	_ZN11QToolButtonD1Ev
	_ZN11QToolButtonD2Ev
	_ZN11QTreeWidget10expandItemEPK15QTreeWidgetItem
	_ZN11QTreeWidget11itemChangedEP15QTreeWidgetItemi
	_ZN11QTreeWidget11itemClickedEP15QTreeWidgetItemi
	_ZN11QTreeWidget11itemEnteredEP15QTreeWidgetItemi
	_ZN11QTreeWidget11itemPressedEP15QTreeWidgetItemi
	_ZN11QTreeWidget11qt_metacallEN11QMetaObject4CallEiPPv
	_ZN11QTreeWidget11qt_metacastEPKc
	_ZN11QTreeWidget12collapseItemEPK15QTreeWidgetItem
	_ZN11QTreeWidget12dropMimeDataEP15QTreeWidgetItemiPK9QMimeDataN2Qt10DropActionE
	_ZN11QTreeWidget12itemExpandedEP15QTreeWidgetItem
	_ZN11QTreeWidget12scrollToItemEPK15QTreeWidgetItemN17QAbstractItemView10ScrollHintE
	_ZN11QTreeWidget13itemActivatedEP15QTreeWidgetItemi
	_ZN11QTreeWidget13itemCollapsedEP15QTreeWidgetItem
	_ZN11QTreeWidget13setHeaderItemEP15QTreeWidgetItem
	_ZN11QTreeWidget13setItemHiddenEPK15QTreeWidgetItemb
	_ZN11QTreeWidget13setItemWidgetEP15QTreeWidgetItemiP7QWidget
	_ZN11QTreeWidget14setColumnCountEi
	_ZN11QTreeWidget14setCurrentItemEP15QTreeWidgetItem
	_ZN11QTreeWidget14setCurrentItemEP15QTreeWidgetItemi
	_ZN11QTreeWidget14setCurrentItemEP15QTreeWidgetItemi6QFlagsIN19QItemSelectionModel13SelectionFlagEE
	_ZN11QTreeWidget15addTopLevelItemEP15QTreeWidgetItem
	_ZN11QTreeWidget15setHeaderLabelsERK11QStringList
	_ZN11QTreeWidget15setItemExpandedEPK15QTreeWidgetItemb
	_ZN11QTreeWidget15setItemSelectedEPK15QTreeWidgetItemb
	_ZN11QTreeWidget16addTopLevelItemsERK5QListIP15QTreeWidgetItemE
	_ZN11QTreeWidget16staticMetaObjectE
	_ZN11QTreeWidget16takeTopLevelItemEi
	_ZN11QTreeWidget17itemDoubleClickedEP15QTreeWidgetItemi
	_ZN11QTreeWidget17setSelectionModelEP19QItemSelectionModel
	_ZN11QTreeWidget18currentItemChangedEP15QTreeWidgetItemS1_
	_ZN11QTreeWidget18insertTopLevelItemEiP15QTreeWidgetItem
	_ZN11QTreeWidget18qt_static_metacallEP7QObjectN11QMetaObject4CallEiPPv
	_ZN11QTreeWidget19insertTopLevelItemsEiRK5QListIP15QTreeWidgetItemE
	_ZN11QTreeWidget20itemSelectionChangedEv
	_ZN11QTreeWidget20openPersistentEditorEP15QTreeWidgetItemi
	_ZN11QTreeWidget21closePersistentEditorEP15QTreeWidgetItemi
	_ZN11QTreeWidget25setFirstItemColumnSpannedEPK15QTreeWidgetItemb
	_ZN11QTreeWidget5clearEv
	_ZN11QTreeWidget5eventEP6QEvent
	_ZN11QTreeWidget8editItemEP15QTreeWidgetItemi
	_ZN11QTreeWidget8setModelEP18QAbstractItemModel
	_ZN11QTreeWidget9dropEventEP10QDropEvent
	_ZN11QTreeWidget9sortItemsEiN2Qt9SortOrderE
	_ZN11QTreeWidgetC1EP7QWidget
	_ZN11QTreeWidgetC2EP7QWidget
	_ZN11QTreeWidgetD0Ev
	_ZN11QTreeWidgetD1Ev
	_ZN11QTreeWidgetD2Ev
	_ZN11QVBoxLayout11qt_metacallEN11QMetaObject4CallEiPPv
	_ZN11QVBoxLayout11qt_metacastEPKc
	_ZN11QVBoxLayout16staticMetaObjectE
	_ZN11QVBoxLayout18qt_static_metacallEP7QObjectN11QMetaObject4CallEiPPv
	_ZN11QVBoxLayoutC1EP7QWidget
	_ZN11QVBoxLayoutC1Ev
	_ZN11QVBoxLayoutC2EP7QWidget
	_ZN11QVBoxLayoutC2Ev
	_ZN11QVBoxLayoutD0Ev
	_ZN11QVBoxLayoutD1Ev
	_ZN11QVBoxLayoutD2Ev
	_ZN11QWidgetItem11setGeometryERK5QRect
	_ZN11QWidgetItem6widgetEv
	_ZN11QWidgetItemD0Ev
	_ZN11QWidgetItemD1Ev
	_ZN11QWidgetItemD2Ev
	_ZN11QWizardPage11cleanupPageEv
	_ZN11QWizardPage11qt_metacallEN11QMetaObject4CallEiPPv
	_ZN11QWizardPage11qt_metacastEPKc
	_ZN11QWizardPage11setSubTitleERK7QString
	_ZN11QWizardPage12setFinalPageEb
	_ZN11QWizardPage12validatePageEv
	_ZN11QWizardPage13registerFieldERK7QStringP7QWidgetPKcS6_
	_ZN11QWizardPage13setButtonTextEN7QWizard12WizardButtonERK7QString
	_ZN11QWizardPage13setCommitPageEb
	_ZN11QWizardPage14initializePageEv
	_ZN11QWizardPage15completeChangedEv
	_ZN11QWizardPage16staticMetaObjectE
	_ZN11QWizardPage18qt_static_metacallEP7QObjectN11QMetaObject4CallEiPPv
	_ZN11QWizardPage8setFieldERK7QStringRK8QVariant
	_ZN11QWizardPage8setTitleERK7QString
	_ZN11QWizardPage9setPixmapEN7QWizard12WizardPixmapERK7QPixmap
	_ZN11QWizardPageC1EP7QWidget
	_ZN11QWizardPageC2EP7QWidget
	_ZN11QWizardPageD0Ev
	_ZN11QWizardPageD1Ev
	_ZN11QWizardPageD2Ev
	_ZN12QActionGroup10setEnabledEb
	_ZN12QActionGroup10setVisibleEb
	_ZN12QActionGroup11qt_metacallEN11QMetaObject4CallEiPPv
	_ZN12QActionGroup11qt_metacastEPKc
	_ZN12QActionGroup12removeActionEP7QAction
	_ZN12QActionGroup12setExclusiveEb
	_ZN12QActionGroup16staticMetaObjectE
	_ZN12QActionGroup18qt_static_metacallEP7QObjectN11QMetaObject4CallEiPPv
	_ZN12QActionGroup7hoveredEP7QAction
	_ZN12QActionGroup9addActionEP7QAction
	_ZN12QActionGroup9addActionERK5QIconRK7QString
	_ZN12QActionGroup9addActionERK7QString
	_ZN12QActionGroup9triggeredEP7QAction
	_ZN12QActionGroupC1EP7QObject
	_ZN12QActionGroupC2EP7QObject
	_ZN12QActionGroupD0Ev
	_ZN12QActionGroupD1Ev
	_ZN12QActionGroupD2Ev
	_ZN12QApplication10allWidgetsEv
	_ZN12QApplication10setPaletteERK8QPalettePKc
	_ZN12QApplication10topLevelAtERK6QPoint
	_ZN12QApplication10windowIconEv
	_ZN12QApplication11focusWidgetEv
	_ZN12QApplication11fontMetricsEv
	_ZN12QApplication11globalStrutEv
	_ZN12QApplication11qt_metacallEN11QMetaObject4CallEiPPv
	_ZN12QApplication11qt_metacastEPKc
	_ZN12QApplication12activeWindowEv
	_ZN12QApplication12focusChangedEP7QWidgetS1_
	_ZN12QApplication12setColorSpecEi
	_ZN12QApplication13compressEventEP6QEventP7QObjectP14QPostEventList
	_ZN12QApplication13setStyleSheetERK7QString
	_ZN12QApplication13setWindowIconERK5QIcon
	_ZN12QApplication13startDragTimeEv
	_ZN12QApplication14setGlobalStrutERK5QSize
	_ZN12QApplication15closeAllWindowsEv
	_ZN12QApplication15cursorFlashTimeEv
	_ZN12QApplication15isEffectEnabledEN2Qt8UIEffectE
	_ZN12QApplication15setActiveWindowEP7QWidget
	_ZN12QApplication15topLevelWidgetsEv
	_ZN12QApplication16setEffectEnabledEN2Qt8UIEffectEb
	_ZN12QApplication16setStartDragTimeEi
	_ZN12QApplication16staticMetaObjectE
	_ZN12QApplication16wheelScrollLinesEv
	_ZN12QApplication17activeModalWidgetEv
	_ZN12QApplication17activePopupWidgetEv
	_ZN12QApplication17setAutoSipEnabledEb
	_ZN12QApplication17startDragDistanceEv
	_ZN12QApplication18qt_static_metacallEP7QObjectN11QMetaObject4CallEiPPv
	_ZN12QApplication18setCursorFlashTimeEi
	_ZN12QApplication19doubleClickIntervalEv
	_ZN12QApplication19setWheelScrollLinesEi
	_ZN12QApplication20setStartDragDistanceEi
	_ZN12QApplication21keyboardInputIntervalEv
	_ZN12QApplication22setDoubleClickIntervalEi
	_ZN12QApplication24setKeyboardInputIntervalEi
	_ZN12QApplication4beepEv
	_ZN12QApplication4execEv
	_ZN12QApplication4fontEPK7QWidget
	_ZN12QApplication4fontEPKc
	_ZN12QApplication4fontEv
	_ZN12QApplication5alertEP7QWidgeti
	_ZN12QApplication5eventEP6QEvent
	_ZN12QApplication5styleEv
	_ZN12QApplication6notifyEP7QObjectP6QEvent
	_ZN12QApplication7aboutQtEv
	_ZN12QApplication7desktopEv
	_ZN12QApplication7paletteEPK7QWidget
	_ZN12QApplication7paletteEPKc
	_ZN12QApplication7setFontERK5QFontPKc
	_ZN12QApplication8setStyleEP6QStyle
	_ZN12QApplication8setStyleERK7QString
	_ZN12QApplication8widgetAtERK6QPoint
	_ZN12QApplication9colorSpecEv
	_ZN12QApplicationC1ERiPPci
	_ZN12QApplicationC2ERiPPci
	_ZN12QApplicationD0Ev
	_ZN12QApplicationD1Ev
	_ZN12QApplicationD2Ev
	_ZN12QButtonGroup11qt_metacallEN11QMetaObject4CallEiPPv
	_ZN12QButtonGroup11qt_metacastEPKc
	_ZN12QButtonGroup12removeButtonEP15QAbstractButton
	_ZN12QButtonGroup12setExclusiveEb
	_ZN12QButtonGroup13buttonClickedEP15QAbstractButton
	_ZN12QButtonGroup13buttonClickedEi
	_ZN12QButtonGroup13buttonPressedEP15QAbstractButton
	_ZN12QButtonGroup13buttonPressedEi
	_ZN12QButtonGroup13buttonToggledEP15QAbstractButtonb
	_ZN12QButtonGroup13buttonToggledEib
	_ZN12QButtonGroup14buttonReleasedEP15QAbstractButton
	_ZN12QButtonGroup14buttonReleasedEi
	_ZN12QButtonGroup16staticMetaObjectE
	_ZN12QButtonGroup18qt_static_metacallEP7QObjectN11QMetaObject4CallEiPPv
	_ZN12QButtonGroup5setIdEP15QAbstractButtoni
	_ZN12QButtonGroup9addButtonEP15QAbstractButtoni
	_ZN12QButtonGroupC1EP7QObject
	_ZN12QButtonGroupC2EP7QObject
	_ZN12QButtonGroupD0Ev
	_ZN12QButtonGroupD1Ev
	_ZN12QButtonGroupD2Ev
	_ZN12QColorDialog10setOptionsE6QFlagsINS_17ColorDialogOptionEE
	_ZN12QColorDialog10setVisibleEb
	_ZN12QColorDialog11changeEventEP6QEvent
	_ZN12QColorDialog11customColorEi
	_ZN12QColorDialog11customCountEv
	_ZN12QColorDialog11qt_metacallEN11QMetaObject4CallEiPPv
	_ZN12QColorDialog11qt_metacastEPKc
	_ZN12QColorDialog13colorSelectedERK6QColor
	_ZN12QColorDialog13standardColorEi
	_ZN12QColorDialog14setCustomColorEi6QColor
	_ZN12QColorDialog15setCurrentColorERK6QColor
	_ZN12QColorDialog16setStandardColorEi6QColor
	_ZN12QColorDialog16staticMetaObjectE
	_ZN12QColorDialog18qt_static_metacallEP7QObjectN11QMetaObject4CallEiPPv
	_ZN12QColorDialog19currentColorChangedERK6QColor
	_ZN12QColorDialog4doneEi
	_ZN12QColorDialog4openEP7QObjectPKc
	_ZN12QColorDialog7getRgbaEjPbP7QWidget
	_ZN12QColorDialog8getColorERK6QColorP7QWidgetRK7QString6QFlagsINS_17ColorDialogOptionEE
	_ZN12QColorDialog9setOptionENS_17ColorDialogOptionEb
	_ZN12QColorDialogC1EP7QWidget
	_ZN12QColorDialogC1ERK6QColorP7QWidget
	_ZN12QColorDialogC2EP7QWidget
	_ZN12QColorDialogC2ERK6QColorP7QWidget
	_ZN12QColorDialogD0Ev
	_ZN12QColorDialogD1Ev
	_ZN12QColorDialogD2Ev
	_ZN12QCommonStyle11qt_metacallEN11QMetaObject4CallEiPPv
	_ZN12QCommonStyle11qt_metacastEPKc
	_ZN12QCommonStyle16staticMetaObjectE
	_ZN12QCommonStyle18qt_static_metacallEP7QObjectN11QMetaObject4CallEiPPv
	_ZN12QCommonStyle6polishEP12QApplication
	_ZN12QCommonStyle6polishEP7QWidget
	_ZN12QCommonStyle6polishER8QPalette
	_ZN12QCommonStyle8unpolishEP12QApplication
	_ZN12QCommonStyle8unpolishEP7QWidget
	_ZN12QCommonStyleC1ER19QCommonStylePrivate
	_ZN12QCommonStyleC1Ev
	_ZN12QCommonStyleC2ER19QCommonStylePrivate
	_ZN12QCommonStyleC2Ev
	_ZN12QCommonStyleD0Ev
	_ZN12QCommonStyleD1Ev
	_ZN12QCommonStyleD2Ev
	_ZN12QInputDialog10setIntStepEi
	_ZN12QInputDialog10setOptionsE6QFlagsINS_17InputDialogOptionEE
	_ZN12QInputDialog10setVisibleEb
	_ZN12QInputDialog11qt_metacallEN11QMetaObject4CallEiPPv
	_ZN12QInputDialog11qt_metacastEPKc
	_ZN12QInputDialog11setIntRangeEii
	_ZN12QInputDialog11setIntValueEi
	_ZN12QInputDialog12setInputModeENS_9InputModeE
	_ZN12QInputDialog12setLabelTextERK7QString
	_ZN12QInputDialog12setTextValueERK7QString
	_ZN12QInputDialog13setIntMaximumEi
	_ZN12QInputDialog13setIntMinimumEi
	_ZN12QInputDialog14setDoubleRangeEdd
	_ZN12QInputDialog14setDoubleValueEd
	_ZN12QInputDialog15intValueChangedEi
	_ZN12QInputDialog15setOkButtonTextERK7QString
	_ZN12QInputDialog15setTextEchoModeEN9QLineEdit8EchoModeE
	_ZN12QInputDialog16getMultiLineTextEP7QWidgetRK7QStringS4_S4_Pb6QFlagsIN2Qt10WindowTypeEES6_INS7_15InputMethodHintEE
	_ZN12QInputDialog16intValueSelectedEi
	_ZN12QInputDialog16setComboBoxItemsERK11QStringList
	_ZN12QInputDialog16setDoubleMaximumEd
	_ZN12QInputDialog16setDoubleMinimumEd
	_ZN12QInputDialog16staticMetaObjectE
	_ZN12QInputDialog16textValueChangedERK7QString
	_ZN12QInputDialog17setDoubleDecimalsEi
	_ZN12QInputDialog17textValueSelectedERK7QString
	_ZN12QInputDialog18doubleValueChangedEd
	_ZN12QInputDialog18qt_static_metacallEP7QObjectN11QMetaObject4CallEiPPv
	_ZN12QInputDialog19doubleValueSelectedEd
	_ZN12QInputDialog19setCancelButtonTextERK7QString
	_ZN12QInputDialog19setComboBoxEditableEb
	_ZN12QInputDialog4doneEi
	_ZN12QInputDialog4openEP7QObjectPKc
	_ZN12QInputDialog6getIntEP7QWidgetRK7QStringS4_iiiiPb6QFlagsIN2Qt10WindowTypeEE
	_ZN12QInputDialog7getItemEP7QWidgetRK7QStringS4_RK11QStringListibPb6QFlagsIN2Qt10WindowTypeEES9_INSA_15InputMethodHintEE
	_ZN12QInputDialog7getTextEP7QWidgetRK7QStringS4_N9QLineEdit8EchoModeES4_Pb6QFlagsIN2Qt10WindowTypeEES8_INS9_15InputMethodHintEE
	_ZN12QInputDialog9getDoubleEP7QWidgetRK7QStringS4_dddiPb6QFlagsIN2Qt10WindowTypeEE
	_ZN12QInputDialog9setOptionENS_17InputDialogOptionEb
	_ZN12QInputDialogC1EP7QWidget6QFlagsIN2Qt10WindowTypeEE
	_ZN12QInputDialogC2EP7QWidget6QFlagsIN2Qt10WindowTypeEE
	_ZN12QInputDialogD0Ev
	_ZN12QInputDialogD1Ev
	_ZN12QInputDialogD2Ev
	_ZN12QProgressBar10paintEventEP11QPaintEvent
	_ZN12QProgressBar10setMaximumEi
	_ZN12QProgressBar10setMinimumEi
	_ZN12QProgressBar11qt_metacallEN11QMetaObject4CallEiPPv
	_ZN12QProgressBar11qt_metacastEPKc
	_ZN12QProgressBar11resetFormatEv
	_ZN12QProgressBar12setAlignmentE6QFlagsIN2Qt13AlignmentFlagEE
	_ZN12QProgressBar12valueChangedEi
	_ZN12QProgressBar14setOrientationEN2Qt11OrientationE
	_ZN12QProgressBar14setTextVisibleEb
	_ZN12QProgressBar16setTextDirectionENS_9DirectionE
	_ZN12QProgressBar16staticMetaObjectE
	_ZN12QProgressBar18qt_static_metacallEP7QObjectN11QMetaObject4CallEiPPv
	_ZN12QProgressBar21setInvertedAppearanceEb
	_ZN12QProgressBar5eventEP6QEvent
	_ZN12QProgressBar5resetEv
	_ZN12QProgressBar8setRangeEii
	_ZN12QProgressBar8setValueEi
	_ZN12QProgressBar9setFormatERK7QString
	_ZN12QProgressBarC1EP7QWidget
	_ZN12QProgressBarC2EP7QWidget
	_ZN12QProgressBarD0Ev
	_ZN12QProgressBarD1Ev
	_ZN12QProgressBarD2Ev
	_ZN12QRadioButton10paintEventEP11QPaintEvent
	_ZN12QRadioButton11qt_metacallEN11QMetaObject4CallEiPPv
	_ZN12QRadioButton11qt_metacastEPKc
	_ZN12QRadioButton14mouseMoveEventEP11QMouseEvent
	_ZN12QRadioButton16staticMetaObjectE
	_ZN12QRadioButton18qt_static_metacallEP7QObjectN11QMetaObject4CallEiPPv
	_ZN12QRadioButton5eventEP6QEvent
	_ZN12QRadioButtonC1EP7QWidget
	_ZN12QRadioButtonC1ERK7QStringP7QWidget
	_ZN12QRadioButtonC2EP7QWidget
	_ZN12QRadioButtonC2ERK7QStringP7QWidget
	_ZN12QRadioButtonD0Ev
	_ZN12QRadioButtonD1Ev
	_ZN12QRadioButtonD2Ev
	_ZN12QStyleOption4initEPK7QWidget
	_ZN12QStyleOptionC1ERKS_
	_ZN12QStyleOptionC1Eii
	_ZN12QStyleOptionC2ERKS_
	_ZN12QStyleOptionC2Eii
	_ZN12QStyleOptionD1Ev
	_ZN12QStyleOptionD2Ev
	_ZN12QStyleOptionaSERKS_
	_ZN12QStylePlugin11qt_metacallEN11QMetaObject4CallEiPPv
	_ZN12QStylePlugin11qt_metacastEPKc
	_ZN12QStylePlugin16staticMetaObjectE
	_ZN12QStylePlugin18qt_static_metacallEP7QObjectN11QMetaObject4CallEiPPv
	_ZN12QStylePluginC1EP7QObject
	_ZN12QStylePluginC2EP7QObject
	_ZN12QStylePluginD0Ev
	_ZN12QStylePluginD1Ev
	_ZN12QStylePluginD2Ev
	_ZN12QTableWidget11cellChangedEii
	_ZN12QTableWidget11cellClickedEii
	_ZN12QTableWidget11cellEnteredEii
	_ZN12QTableWidget11cellPressedEii
	_ZN12QTableWidget11itemChangedEP16QTableWidgetItem
	_ZN12QTableWidget11itemClickedEP16QTableWidgetItem
	_ZN12QTableWidget11itemEnteredEP16QTableWidgetItem
	_ZN12QTableWidget11itemPressedEP16QTableWidgetItem
	_ZN12QTableWidget11qt_metacallEN11QMetaObject4CallEiPPv
	_ZN12QTableWidget11qt_metacastEPKc
	_ZN12QTableWidget11setRowCountEi
	_ZN12QTableWidget12dropMimeDataEiiPK9QMimeDataN2Qt10DropActionE
	_ZN12QTableWidget12insertColumnEi
	_ZN12QTableWidget12removeColumnEi
	_ZN12QTableWidget12scrollToItemEPK16QTableWidgetItemN17QAbstractItemView10ScrollHintE
	_ZN12QTableWidget13cellActivatedEii
	_ZN12QTableWidget13clearContentsEv
	_ZN12QTableWidget13itemActivatedEP16QTableWidgetItem
	_ZN12QTableWidget13setCellWidgetEiiP7QWidget
	_ZN12QTableWidget14setColumnCountEi
	_ZN12QTableWidget14setCurrentCellEii
	_ZN12QTableWidget14setCurrentCellEii6QFlagsIN19QItemSelectionModel13SelectionFlagEE
	_ZN12QTableWidget14setCurrentItemEP16QTableWidgetItem
	_ZN12QTableWidget14setCurrentItemEP16QTableWidgetItem6QFlagsIN19QItemSelectionModel13SelectionFlagEE
	_ZN12QTableWidget15setItemSelectedEPK16QTableWidgetItemb
	_ZN12QTableWidget16setItemPrototypeEPK16QTableWidgetItem
	_ZN12QTableWidget16setRangeSelectedERK26QTableWidgetSelectionRangeb
	_ZN12QTableWidget16staticMetaObjectE
	_ZN12QTableWidget17cellDoubleClickedEii
	_ZN12QTableWidget17itemDoubleClickedEP16QTableWidgetItem
	_ZN12QTableWidget17setSortingEnabledEb
	_ZN12QTableWidget18currentCellChangedEiiii
	_ZN12QTableWidget18currentItemChangedEP16QTableWidgetItemS1_
	_ZN12QTableWidget18qt_static_metacallEP7QObjectN11QMetaObject4CallEiPPv
	_ZN12QTableWidget20itemSelectionChangedEv
	_ZN12QTableWidget20openPersistentEditorEP16QTableWidgetItem
	_ZN12QTableWidget21closePersistentEditorEP16QTableWidgetItem
	_ZN12QTableWidget21setVerticalHeaderItemEiP16QTableWidgetItem
	_ZN12QTableWidget22takeVerticalHeaderItemEi
	_ZN12QTableWidget23setHorizontalHeaderItemEiP16QTableWidgetItem
	_ZN12QTableWidget23setVerticalHeaderLabelsERK11QStringList
	_ZN12QTableWidget24takeHorizontalHeaderItemEi
	_ZN12QTableWidget25setHorizontalHeaderLabelsERK11QStringList
	_ZN12QTableWidget5clearEv
	_ZN12QTableWidget5eventEP6QEvent
	_ZN12QTableWidget7setItemEiiP16QTableWidgetItem
	_ZN12QTableWidget8editItemEP16QTableWidgetItem
	_ZN12QTableWidget8setModelEP18QAbstractItemModel
	_ZN12QTableWidget8takeItemEii
	_ZN12QTableWidget9dropEventEP10QDropEvent
	_ZN12QTableWidget9insertRowEi
	_ZN12QTableWidget9removeRowEi
	_ZN12QTableWidget9sortItemsEiN2Qt9SortOrderE
	_ZN12QTableWidgetC1EP7QWidget
	_ZN12QTableWidgetC1EiiP7QWidget
	_ZN12QTableWidgetC2EP7QWidget
	_ZN12QTableWidgetC2EiiP7QWidget
	_ZN12QTableWidgetD0Ev
	_ZN12QTableWidgetD1Ev
	_ZN12QTableWidgetD2Ev
	_ZN12QTextBrowser10paintEventEP11QPaintEvent
	_ZN12QTextBrowser11highlightedERK4QUrl
	_ZN12QTextBrowser11highlightedERK7QString
	_ZN12QTextBrowser11qt_metacallEN11QMetaObject4CallEiPPv
	_ZN12QTextBrowser11qt_metacastEPKc
	_ZN12QTextBrowser12clearHistoryEv
	_ZN12QTextBrowser12loadResourceEiRK4QUrl
	_ZN12QTextBrowser12setOpenLinksEb
	_ZN12QTextBrowser13anchorClickedERK4QUrl
	_ZN12QTextBrowser13focusOutEventEP11QFocusEvent
	_ZN12QTextBrowser13keyPressEventEP9QKeyEvent
	_ZN12QTextBrowser13sourceChangedERK4QUrl
	_ZN12QTextBrowser14historyChangedEv
	_ZN12QTextBrowser14mouseMoveEventEP11QMouseEvent
	_ZN12QTextBrowser14setSearchPathsERK11QStringList
	_ZN12QTextBrowser15mousePressEventEP11QMouseEvent
	_ZN12QTextBrowser16forwardAvailableEb
	_ZN12QTextBrowser16staticMetaObjectE
	_ZN12QTextBrowser17backwardAvailableEb
	_ZN12QTextBrowser17mouseReleaseEventEP11QMouseEvent
	_ZN12QTextBrowser18focusNextPrevChildEb
	_ZN12QTextBrowser18qt_static_metacallEP7QObjectN11QMetaObject4CallEiPPv
	_ZN12QTextBrowser20setOpenExternalLinksEb
	_ZN12QTextBrowser4homeEv
	_ZN12QTextBrowser5eventEP6QEvent
	_ZN12QTextBrowser6reloadEv
	_ZN12QTextBrowser7forwardEv
	_ZN12QTextBrowser8backwardEv
	_ZN12QTextBrowser9setSourceERK4QUrl
	_ZN12QTextBrowserC1EP7QWidget
	_ZN12QTextBrowserC2EP7QWidget
	_ZN12QTextBrowserD0Ev
	_ZN12QTextBrowserD1Ev
	_ZN12QTextBrowserD2Ev
	_ZN12QUndoCommand4redoEv
	_ZN12QUndoCommand4undoEv
	_ZN12QUndoCommand7setTextERK7QString
	_ZN12QUndoCommand9mergeWithEPKS_
	_ZN12QUndoCommandC1EPS_
	_ZN12QUndoCommandC1ERK7QStringPS_
	_ZN12QUndoCommandC2EPS_
	_ZN12QUndoCommandC2ERK7QStringPS_
	_ZN12QUndoCommandD0Ev
	_ZN12QUndoCommandD1Ev
	_ZN12QUndoCommandD2Ev
	_ZN13QDateTimeEdit10paintEventEP11QPaintEvent
	_ZN13QDateTimeEdit10wheelEventEP11QWheelEvent
	_ZN13QDateTimeEdit11dateChangedERK5QDate
	_ZN13QDateTimeEdit11qt_metacallEN11QMetaObject4CallEiPPv
	_ZN13QDateTimeEdit11qt_metacastEPKc
	_ZN13QDateTimeEdit11setDateTimeERK9QDateTime
	_ZN13QDateTimeEdit11setTimeSpecEN2Qt8TimeSpecE
	_ZN13QDateTimeEdit11timeChangedERK5QTime
	_ZN13QDateTimeEdit12focusInEventEP11QFocusEvent
	_ZN13QDateTimeEdit12setDateRangeERK5QDateS2_
	_ZN13QDateTimeEdit12setTimeRangeERK5QTimeS2_
	_ZN13QDateTimeEdit13keyPressEventEP9QKeyEvent
	_ZN13QDateTimeEdit14setMaximumDateERK5QDate
	_ZN13QDateTimeEdit14setMaximumTimeERK5QTime
	_ZN13QDateTimeEdit14setMinimumDateERK5QDate
	_ZN13QDateTimeEdit14setMinimumTimeERK5QTime
	_ZN13QDateTimeEdit15dateTimeChangedERK9QDateTime
	_ZN13QDateTimeEdit15mousePressEventEP11QMouseEvent
	_ZN13QDateTimeEdit16clearMaximumDateEv
	_ZN13QDateTimeEdit16clearMaximumTimeEv
	_ZN13QDateTimeEdit16clearMinimumDateEv
	_ZN13QDateTimeEdit16clearMinimumTimeEv
	_ZN13QDateTimeEdit16setCalendarPopupEb
	_ZN13QDateTimeEdit16setDateTimeRangeERK9QDateTimeS2_
	_ZN13QDateTimeEdit16setDisplayFormatERK7QString
	_ZN13QDateTimeEdit16staticMetaObjectE
	_ZN13QDateTimeEdit17setCalendarWidgetEP15QCalendarWidget
	_ZN13QDateTimeEdit17setCurrentSectionENS_7SectionE
	_ZN13QDateTimeEdit18focusNextPrevChildEb
	_ZN13QDateTimeEdit18qt_static_metacallEP7QObjectN11QMetaObject4CallEiPPv
	_ZN13QDateTimeEdit18setMaximumDateTimeERK9QDateTime
	_ZN13QDateTimeEdit18setMinimumDateTimeERK9QDateTime
	_ZN13QDateTimeEdit18setSelectedSectionENS_7SectionE
	_ZN13QDateTimeEdit20clearMaximumDateTimeEv
	_ZN13QDateTimeEdit20clearMinimumDateTimeEv
	_ZN13QDateTimeEdit22setCurrentSectionIndexEi
	_ZN13QDateTimeEdit5clearEv
	_ZN13QDateTimeEdit5eventEP6QEvent
	_ZN13QDateTimeEdit6stepByEi
	_ZN13QDateTimeEdit7setDateERK5QDate
	_ZN13QDateTimeEdit7setTimeERK5QTime
	_ZN13QDateTimeEditC1EP7QWidget
	_ZN13QDateTimeEditC1ERK5QDateP7QWidget
	_ZN13QDateTimeEditC1ERK5QTimeP7QWidget
	_ZN13QDateTimeEditC1ERK8QVariantNS0_4TypeEP7QWidget
	_ZN13QDateTimeEditC1ERK9QDateTimeP7QWidget
	_ZN13QDateTimeEditC2EP7QWidget
	_ZN13QDateTimeEditC2ERK5QDateP7QWidget
	_ZN13QDateTimeEditC2ERK5QTimeP7QWidget
	_ZN13QDateTimeEditC2ERK8QVariantNS0_4TypeEP7QWidget
	_ZN13QDateTimeEditC2ERK9QDateTimeP7QWidget
	_ZN13QDateTimeEditD0Ev
	_ZN13QDateTimeEditD1Ev
	_ZN13QDateTimeEditD2Ev
	_ZN13QErrorMessage11changeEventEP6QEvent
	_ZN13QErrorMessage11qt_metacallEN11QMetaObject4CallEiPPv
	_ZN13QErrorMessage11qt_metacastEPKc
	_ZN13QErrorMessage11showMessageERK7QString
	_ZN13QErrorMessage11showMessageERK7QStringS2_
	_ZN13QErrorMessage16staticMetaObjectE
	_ZN13QErrorMessage18qt_static_metacallEP7QObjectN11QMetaObject4CallEiPPv
	_ZN13QErrorMessage4doneEi
	_ZN13QErrorMessage9qtHandlerEv
	_ZN13QErrorMessageC1EP7QWidget
	_ZN13QErrorMessageC2EP7QWidget
	_ZN13QErrorMessageD0Ev
	_ZN13QErrorMessageD1Ev
	_ZN13QErrorMessageD2Ev
	_ZN13QFlickGesture11qt_metacallEN11QMetaObject4CallEiPPv
	_ZN13QFlickGesture11qt_metacastEPKc
	_ZN13QFlickGesture16staticMetaObjectE
	_ZN13QFlickGesture18qt_static_metacallEP7QObjectN11QMetaObject4CallEiPPv
	_ZN13QFlickGestureC1EP7QObjectN2Qt11MouseButtonES1_
	_ZN13QFlickGestureC2EP7QObjectN2Qt11MouseButtonES1_
	_ZN13QFlickGestureD0Ev
	_ZN13QFlickGestureD1Ev
	_ZN13QFlickGestureD2Ev
	_ZN13QFontComboBox11qt_metacallEN11QMetaObject4CallEiPPv
	_ZN13QFontComboBox11qt_metacastEPKc
	_ZN13QFontComboBox14setCurrentFontERK5QFont
	_ZN13QFontComboBox14setFontFiltersE6QFlagsINS_10FontFilterEE
	_ZN13QFontComboBox16setWritingSystemEN13QFontDatabase13WritingSystemE
	_ZN13QFontComboBox16staticMetaObjectE
	_ZN13QFontComboBox18currentFontChangedERK5QFont
	_ZN13QFontComboBox18qt_static_metacallEP7QObjectN11QMetaObject4CallEiPPv
	_ZN13QFontComboBox5eventEP6QEvent
	_ZN13QFontComboBoxC1EP7QWidget
	_ZN13QFontComboBoxC2EP7QWidget
	_ZN13QFontComboBoxD0Ev
	_ZN13QFontComboBoxD1Ev
	_ZN13QFontComboBoxD2Ev
	_ZN13QGestureEvent11setAcceptedEN2Qt11GestureTypeEb
	_ZN13QGestureEvent11setAcceptedEP8QGestureb
	_ZN13QGestureEvent6acceptEN2Qt11GestureTypeE
	_ZN13QGestureEvent6acceptEP8QGesture
	_ZN13QGestureEvent6ignoreEN2Qt11GestureTypeE
	_ZN13QGestureEvent6ignoreEP8QGesture
	_ZN13QGestureEvent9setWidgetEP7QWidget
	_ZN13QGestureEventC1ERK5QListIP8QGestureE
	_ZN13QGestureEventC2ERK5QListIP8QGestureE
	_ZN13QGestureEventD0Ev
	_ZN13QGestureEventD1Ev
	_ZN13QGestureEventD2Ev
	_ZN13QGraphicsItem10addToIndexEv
	_ZN13QGraphicsItem10clearFocusEv
	_ZN13QGraphicsItem10itemChangeENS_18GraphicsItemChangeERK8QVariant
	_ZN13QGraphicsItem10sceneEventEP6QEvent
	_ZN13QGraphicsItem10setEnabledEb
	_ZN13QGraphicsItem10setOpacityEd
	_ZN13QGraphicsItem10setToolTipERK7QString
	_ZN13QGraphicsItem10setVisibleEb
	_ZN13QGraphicsItem10wheelEventEP24QGraphicsSceneWheelEvent
	_ZN13QGraphicsItem11resetMatrixEv
	_ZN13QGraphicsItem11setRotationEd
	_ZN13QGraphicsItem11setSelectedEb
	_ZN13QGraphicsItem11stackBeforeEPKS_
	_ZN13QGraphicsItem11ungrabMouseEv
	_ZN13QGraphicsItem11unsetCursorEv
	_ZN13QGraphicsItem12focusInEventEP11QFocusEvent
	_ZN13QGraphicsItem12grabKeyboardEv
	_ZN13QGraphicsItem12setCacheModeENS_9CacheModeERK5QSize
	_ZN13QGraphicsItem12setExtensionENS_9ExtensionERK8QVariant
	_ZN13QGraphicsItem12setTransformERK10QTransformb
	_ZN13QGraphicsItem13dragMoveEventEP27QGraphicsSceneDragDropEvent
	_ZN13QGraphicsItem13ensureVisibleERK6QRectFii
	_ZN13QGraphicsItem13focusOutEventEP11QFocusEvent
	_ZN13QGraphicsItem13keyPressEventEP9QKeyEvent
	_ZN13QGraphicsItem13setFocusProxyEPS_
	_ZN13QGraphicsItem13setParentItemEPS_
	_ZN13QGraphicsItem14dragEnterEventEP27QGraphicsSceneDragDropEvent
	_ZN13QGraphicsItem14dragLeaveEventEP27QGraphicsSceneDragDropEvent
	_ZN13QGraphicsItem14hoverMoveEventEP24QGraphicsSceneHoverEvent
	_ZN13QGraphicsItem14mouseMoveEventEP24QGraphicsSceneMouseEvent
	_ZN13QGraphicsItem14resetTransformEv
	_ZN13QGraphicsItem14setAcceptDropsEb
	_ZN13QGraphicsItem14ungrabKeyboardEv
	_ZN13QGraphicsItem15hoverEnterEventEP24QGraphicsSceneHoverEvent
	_ZN13QGraphicsItem15hoverLeaveEventEP24QGraphicsSceneHoverEvent
	_ZN13QGraphicsItem15keyReleaseEventEP9QKeyEvent
	_ZN13QGraphicsItem15mousePressEventEP24QGraphicsSceneMouseEvent
	_ZN13QGraphicsItem15removeFromIndexEv
	_ZN13QGraphicsItem16contextMenuEventEP30QGraphicsSceneContextMenuEvent
	_ZN13QGraphicsItem16inputMethodEventEP17QInputMethodEvent
	_ZN13QGraphicsItem16sceneEventFilterEPS_P6QEvent
	_ZN13QGraphicsItem16setPanelModalityENS_13PanelModalityE
	_ZN13QGraphicsItem16toGraphicsObjectEv
	_ZN13QGraphicsItem16updateMicroFocusEv
	_ZN13QGraphicsItem17mouseReleaseEventEP24QGraphicsSceneMouseEvent
	_ZN13QGraphicsItem17setGraphicsEffectEP15QGraphicsEffect
	_ZN13QGraphicsItem18setTransformationsERK5QListIP18QGraphicsTransformE
	_ZN13QGraphicsItem19setInputMethodHintsE6QFlagsIN2Qt15InputMethodHintEE
	_ZN13QGraphicsItem20setAcceptHoverEventsEb
	_ZN13QGraphicsItem20setAcceptTouchEventsEb
	_ZN13QGraphicsItem21mouseDoubleClickEventEP24QGraphicsSceneMouseEvent
	_ZN13QGraphicsItem21prepareGeometryChangeEv
	_ZN13QGraphicsItem21setFiltersChildEventsEb
	_ZN13QGraphicsItem21setHandlesChildEventsEb
	_ZN13QGraphicsItem22removeSceneEventFilterEPS_
	_ZN13QGraphicsItem23installSceneEventFilterEPS_
	_ZN13QGraphicsItem23setAcceptedMouseButtonsE6QFlagsIN2Qt11MouseButtonEE
	_ZN13QGraphicsItem23setTransformOriginPointERK7QPointF
	_ZN13QGraphicsItem28setBoundingRegionGranularityEd
	_ZN13QGraphicsItem4setXEd
	_ZN13QGraphicsItem4setYEd
	_ZN13QGraphicsItem6scrollEddRK6QRectF
	_ZN13QGraphicsItem6setPosERK7QPointF
	_ZN13QGraphicsItem6updateERK6QRectF
	_ZN13QGraphicsItem7advanceEi
	_ZN13QGraphicsItem7setDataEiRK8QVariant
	_ZN13QGraphicsItem7setFlagENS_16GraphicsItemFlagEb
	_ZN13QGraphicsItem8setFlagsE6QFlagsINS_16GraphicsItemFlagEE
	_ZN13QGraphicsItem8setFocusEN2Qt11FocusReasonE
	_ZN13QGraphicsItem8setGroupEP18QGraphicsItemGroup
	_ZN13QGraphicsItem8setScaleEd
	_ZN13QGraphicsItem9dropEventEP27QGraphicsSceneDragDropEvent
	_ZN13QGraphicsItem9grabMouseEv
	_ZN13QGraphicsItem9setActiveEb
	_ZN13QGraphicsItem9setCursorERK7QCursor
	_ZN13QGraphicsItem9setMatrixERK7QMatrixb
	_ZN13QGraphicsItem9setZValueEd
	_ZN13QGraphicsItemC1EPS_
	_ZN13QGraphicsItemC1ER20QGraphicsItemPrivatePS_
	_ZN13QGraphicsItemC2EPS_
	_ZN13QGraphicsItemC2ER20QGraphicsItemPrivatePS_
	_ZN13QGraphicsItemD0Ev
	_ZN13QGraphicsItemD1Ev
	_ZN13QGraphicsItemD2Ev
	_ZN13QGraphicsView10paintEventEP11QPaintEvent
	_ZN13QGraphicsView10wheelEventEP11QWheelEvent
	_ZN13QGraphicsView11qt_metacallEN11QMetaObject4CallEiPPv
	_ZN13QGraphicsView11qt_metacastEPKc
	_ZN13QGraphicsView11resetMatrixEv
	_ZN13QGraphicsView11resizeEventEP12QResizeEvent
	_ZN13QGraphicsView11setDragModeENS_8DragModeE
	_ZN13QGraphicsView11updateSceneERK5QListI6QRectFE
	_ZN13QGraphicsView12focusInEventEP11QFocusEvent
	_ZN13QGraphicsView12setAlignmentE6QFlagsIN2Qt13AlignmentFlagEE
	_ZN13QGraphicsView12setCacheModeE6QFlagsINS_13CacheModeFlagEE
	_ZN13QGraphicsView12setSceneRectERK6QRectF
	_ZN13QGraphicsView12setTransformERK10QTransformb
	_ZN13QGraphicsView13dragMoveEventEP14QDragMoveEvent
	_ZN13QGraphicsView13ensureVisibleEPK13QGraphicsItemii
	_ZN13QGraphicsView13ensureVisibleERK6QRectFii
	_ZN13QGraphicsView13focusOutEventEP11QFocusEvent
	_ZN13QGraphicsView13keyPressEventEP9QKeyEvent
	_ZN13QGraphicsView13setRenderHintEN8QPainter10RenderHintEb
	_ZN13QGraphicsView13setupViewportEP7QWidget
	_ZN13QGraphicsView13viewportEventEP6QEvent
	_ZN13QGraphicsView14dragEnterEventEP15QDragEnterEvent
	_ZN13QGraphicsView14dragLeaveEventEP15QDragLeaveEvent
	_ZN13QGraphicsView14drawBackgroundEP8QPainterRK6QRectF
	_ZN13QGraphicsView14drawForegroundEP8QPainterRK6QRectF
	_ZN13QGraphicsView14mouseMoveEventEP11QMouseEvent
	_ZN13QGraphicsView14resetTransformEv
	_ZN13QGraphicsView14setInteractiveEb
	_ZN13QGraphicsView14setRenderHintsE6QFlagsIN8QPainter10RenderHintEE
	_ZN13QGraphicsView15invalidateSceneERK6QRectF6QFlagsIN14QGraphicsScene10SceneLayerEE
	_ZN13QGraphicsView15keyReleaseEventEP9QKeyEvent
	_ZN13QGraphicsView15mousePressEventEP11QMouseEvent
	_ZN13QGraphicsView15setResizeAnchorENS_14ViewportAnchorE
	_ZN13QGraphicsView15updateSceneRectERK6QRectF
	_ZN13QGraphicsView16contextMenuEventEP17QContextMenuEvent
	_ZN13QGraphicsView16inputMethodEventEP17QInputMethodEvent
	_ZN13QGraphicsView16scrollContentsByEii
	_ZN13QGraphicsView16staticMetaObjectE
	_ZN13QGraphicsView17mouseReleaseEventEP11QMouseEvent
	_ZN13QGraphicsView17rubberBandChangedE5QRect7QPointFS1_
	_ZN13QGraphicsView18focusNextPrevChildEb
	_ZN13QGraphicsView18qt_static_metacallEP7QObjectN11QMetaObject4CallEiPPv
	_ZN13QGraphicsView18resetCachedContentEv
	_ZN13QGraphicsView18setBackgroundBrushERK6QBrush
	_ZN13QGraphicsView18setForegroundBrushERK6QBrush
	_ZN13QGraphicsView19setOptimizationFlagENS_16OptimizationFlagEb
	_ZN13QGraphicsView20setOptimizationFlagsE6QFlagsINS_16OptimizationFlagEE
	_ZN13QGraphicsView21mouseDoubleClickEventEP11QMouseEvent
	_ZN13QGraphicsView21setViewportUpdateModeENS_18ViewportUpdateModeE
	_ZN13QGraphicsView23setTransformationAnchorENS_14ViewportAnchorE
	_ZN13QGraphicsView26setRubberBandSelectionModeEN2Qt17ItemSelectionModeE
	_ZN13QGraphicsView5eventEP6QEvent
	_ZN13QGraphicsView5scaleEdd
	_ZN13QGraphicsView5shearEdd
	_ZN13QGraphicsView6renderEP8QPainterRK6QRectFRK5QRectN2Qt15AspectRatioModeE
	_ZN13QGraphicsView6rotateEd
	_ZN13QGraphicsView8centerOnEPK13QGraphicsItem
	_ZN13QGraphicsView8centerOnERK7QPointF
	_ZN13QGraphicsView8setSceneEP14QGraphicsScene
	_ZN13QGraphicsView9drawItemsEP8QPainteriPP13QGraphicsItemPK24QStyleOptionGraphicsItem
	_ZN13QGraphicsView9dropEventEP10QDropEvent
	_ZN13QGraphicsView9fitInViewEPK13QGraphicsItemN2Qt15AspectRatioModeE
	_ZN13QGraphicsView9fitInViewERK6QRectFN2Qt15AspectRatioModeE
	_ZN13QGraphicsView9setMatrixERK7QMatrixb
	_ZN13QGraphicsView9showEventEP10QShowEvent
	_ZN13QGraphicsView9translateEdd
	_ZN13QGraphicsViewC1EP14QGraphicsSceneP7QWidget
	_ZN13QGraphicsViewC1EP7QWidget
	_ZN13QGraphicsViewC1ER20QGraphicsViewPrivateP7QWidget
	_ZN13QGraphicsViewC2EP14QGraphicsSceneP7QWidget
	_ZN13QGraphicsViewC2EP7QWidget
	_ZN13QGraphicsViewC2ER20QGraphicsViewPrivateP7QWidget
	_ZN13QGraphicsViewD0Ev
	_ZN13QGraphicsViewD1Ev
	_ZN13QGraphicsViewD2Ev
	_ZN13QItemDelegate11editorEventEP6QEventP18QAbstractItemModelRK20QStyleOptionViewItemRK11QModelIndex
	_ZN13QItemDelegate11eventFilterEP7QObjectP6QEvent
	_ZN13QItemDelegate11qt_metacallEN11QMetaObject4CallEiPPv
	_ZN13QItemDelegate11qt_metacastEPKc
	_ZN13QItemDelegate11setClippingEb
	_ZN13QItemDelegate16staticMetaObjectE
	_ZN13QItemDelegate18qt_static_metacallEP7QObjectN11QMetaObject4CallEiPPv
	_ZN13QItemDelegate20setItemEditorFactoryEP18QItemEditorFactory
	_ZN13QItemDelegateC1EP7QObject
	_ZN13QItemDelegateC2EP7QObject
	_ZN13QItemDelegateD0Ev
	_ZN13QItemDelegateD1Ev
	_ZN13QItemDelegateD2Ev
	_ZN13QMdiSubWindow10childEventEP11QChildEvent
	_ZN13QMdiSubWindow10closeEventEP11QCloseEvent
	_ZN13QMdiSubWindow10leaveEventEP6QEvent
	_ZN13QMdiSubWindow10paintEventEP11QPaintEvent
	_ZN13QMdiSubWindow10showShadedEv
	_ZN13QMdiSubWindow10timerEventEP11QTimerEvent
	_ZN13QMdiSubWindow11changeEventEP6QEvent
	_ZN13QMdiSubWindow11eventFilterEP7QObjectP6QEvent
	_ZN13QMdiSubWindow11qt_metacallEN11QMetaObject4CallEiPPv
	_ZN13QMdiSubWindow11qt_metacastEPKc
	_ZN13QMdiSubWindow11resizeEventEP12QResizeEvent
	_ZN13QMdiSubWindow12focusInEventEP11QFocusEvent
	_ZN13QMdiSubWindow13focusOutEventEP11QFocusEvent
	_ZN13QMdiSubWindow13keyPressEventEP9QKeyEvent
	_ZN13QMdiSubWindow13setSystemMenuEP5QMenu
	_ZN13QMdiSubWindow14mouseMoveEventEP11QMouseEvent
	_ZN13QMdiSubWindow14showSystemMenuEv
	_ZN13QMdiSubWindow15aboutToActivateEv
	_ZN13QMdiSubWindow15mousePressEventEP11QMouseEvent
	_ZN13QMdiSubWindow16contextMenuEventEP17QContextMenuEvent
	_ZN13QMdiSubWindow16staticMetaObjectE
	_ZN13QMdiSubWindow17mouseReleaseEventEP11QMouseEvent
	_ZN13QMdiSubWindow18qt_static_metacallEP7QObjectN11QMetaObject4CallEiPPv
	_ZN13QMdiSubWindow18windowStateChangedE6QFlagsIN2Qt11WindowStateEES3_
	_ZN13QMdiSubWindow19setKeyboardPageStepEi
	_ZN13QMdiSubWindow21mouseDoubleClickEventEP11QMouseEvent
	_ZN13QMdiSubWindow21setKeyboardSingleStepEi
	_ZN13QMdiSubWindow5eventEP6QEvent
	_ZN13QMdiSubWindow9hideEventEP10QHideEvent
	_ZN13QMdiSubWindow9moveEventEP10QMoveEvent
	_ZN13QMdiSubWindow9setOptionENS_15SubWindowOptionEb
	_ZN13QMdiSubWindow9setWidgetEP7QWidget
	_ZN13QMdiSubWindow9showEventEP10QShowEvent
	_ZN13QMdiSubWindowC1EP7QWidget6QFlagsIN2Qt10WindowTypeEE
	_ZN13QMdiSubWindowC2EP7QWidget6QFlagsIN2Qt10WindowTypeEE
	_ZN13QMdiSubWindowD0Ev
	_ZN13QMdiSubWindowD1Ev
	_ZN13QMdiSubWindowD2Ev
	_ZN13QOpenGLWidget10paintEventEP11QPaintEvent
	_ZN13QOpenGLWidget11doneCurrentEv
	_ZN13QOpenGLWidget11makeCurrentEv
	_ZN13QOpenGLWidget11qt_metacallEN11QMetaObject4CallEiPPv
	_ZN13QOpenGLWidget11qt_metacastEPKc
	_ZN13QOpenGLWidget11resizeEventEP12QResizeEvent
	_ZN13QOpenGLWidget12initializeGLEv
	_ZN13QOpenGLWidget16staticMetaObjectE
	_ZN13QOpenGLWidget18qt_static_metacallEP7QObjectN11QMetaObject4CallEiPPv
	_ZN13QOpenGLWidget7paintGLEv
	_ZN13QOpenGLWidget8resizeGLEii
	_ZN13QOpenGLWidget8updateGLEv
	_ZN13QOpenGLWidgetC1EP7QWidget6QFlagsIN2Qt10WindowTypeEE
	_ZN13QOpenGLWidgetC2EP7QWidget6QFlagsIN2Qt10WindowTypeEE
	_ZN13QOpenGLWidgetD0Ev
	_ZN13QOpenGLWidgetD1Ev
	_ZN13QOpenGLWidgetD2Ev
	_ZN13QPinchGesture11qt_metacallEN11QMetaObject4CallEiPPv
	_ZN13QPinchGesture11qt_metacastEPKc
	_ZN13QPinchGesture14setCenterPointERK7QPointF
	_ZN13QPinchGesture14setChangeFlagsE6QFlagsINS_10ChangeFlagEE
	_ZN13QPinchGesture14setScaleFactorEd
	_ZN13QPinchGesture16setRotationAngleEd
	_ZN13QPinchGesture16staticMetaObjectE
	_ZN13QPinchGesture18qt_static_metacallEP7QObjectN11QMetaObject4CallEiPPv
	_ZN13QPinchGesture18setLastCenterPointERK7QPointF
	_ZN13QPinchGesture18setLastScaleFactorEd
	_ZN13QPinchGesture19setStartCenterPointERK7QPointF
	_ZN13QPinchGesture19setTotalChangeFlagsE6QFlagsINS_10ChangeFlagEE
	_ZN13QPinchGesture19setTotalScaleFactorEd
	_ZN13QPinchGesture20setLastRotationAngleEd
	_ZN13QPinchGesture21setTotalRotationAngleEd
	_ZN13QPinchGestureC1EP7QObject
	_ZN13QPinchGestureC2EP7QObject
	_ZN13QPinchGestureD0Ev
	_ZN13QPinchGestureD1Ev
	_ZN13QPinchGestureD2Ev
	_ZN13QPixmapFilter11qt_metacallEN11QMetaObject4CallEiPPv
	_ZN13QPixmapFilter11qt_metacastEPKc
	_ZN13QPixmapFilter16staticMetaObjectE
	_ZN13QPixmapFilter18qt_static_metacallEP7QObjectN11QMetaObject4CallEiPPv
	_ZN13QPixmapFilterC1ENS_10FilterTypeEP7QObject
	_ZN13QPixmapFilterC1ER20QPixmapFilterPrivateNS_10FilterTypeEP7QObject
	_ZN13QPixmapFilterC2ENS_10FilterTypeEP7QObject
	_ZN13QPixmapFilterC2ER20QPixmapFilterPrivateNS_10FilterTypeEP7QObject
	_ZN13QPixmapFilterD0Ev
	_ZN13QPixmapFilterD1Ev
	_ZN13QPixmapFilterD2Ev
	_ZN13QSplashScreen11qt_metacallEN11QMetaObject4CallEiPPv
	_ZN13QSplashScreen11qt_metacastEPKc
	_ZN13QSplashScreen11showMessageERK7QStringiRK6QColor
	_ZN13QSplashScreen12clearMessageEv
	_ZN13QSplashScreen12drawContentsEP8QPainter
	_ZN13QSplashScreen14messageChangedERK7QString
	_ZN13QSplashScreen15mousePressEventEP11QMouseEvent
	_ZN13QSplashScreen16staticMetaObjectE
	_ZN13QSplashScreen18qt_static_metacallEP7QObjectN11QMetaObject4CallEiPPv
	_ZN13QSplashScreen5eventEP6QEvent
	_ZN13QSplashScreen6finishEP7QWidget
	_ZN13QSplashScreen7repaintEv
	_ZN13QSplashScreen9setPixmapERK7QPixmap
	_ZN13QSplashScreenC1EP7QWidgetRK7QPixmap6QFlagsIN2Qt10WindowTypeEE
	_ZN13QSplashScreenC1ERK7QPixmap6QFlagsIN2Qt10WindowTypeEE
	_ZN13QSplashScreenC2EP7QWidgetRK7QPixmap6QFlagsIN2Qt10WindowTypeEE
	_ZN13QSplashScreenC2ERK7QPixmap6QFlagsIN2Qt10WindowTypeEE
	_ZN13QSplashScreenD0Ev
	_ZN13QSplashScreenD1Ev
	_ZN13QSplashScreenD2Ev
	_ZN13QStyleFactory4keysEv
	_ZN13QStyleFactory6createERK7QString
	_ZN13QSwipeGesture11qt_metacallEN11QMetaObject4CallEiPPv
	_ZN13QSwipeGesture11qt_metacastEPKc
	_ZN13QSwipeGesture13setSwipeAngleEd
	_ZN13QSwipeGesture16staticMetaObjectE
	_ZN13QSwipeGesture18qt_static_metacallEP7QObjectN11QMetaObject4CallEiPPv
	_ZN13QSwipeGestureC1EP7QObject
	_ZN13QSwipeGestureC2EP7QObject
	_ZN13QSwipeGestureD0Ev
	_ZN13QSwipeGestureD1Ev
	_ZN13QSwipeGestureD2Ev
	_ZN13QWidgetAction11eventFilterEP7QObjectP6QEvent
	_ZN13QWidgetAction11qt_metacallEN11QMetaObject4CallEiPPv
	_ZN13QWidgetAction11qt_metacastEPKc
	_ZN13QWidgetAction12createWidgetEP7QWidget
	_ZN13QWidgetAction12deleteWidgetEP7QWidget
	_ZN13QWidgetAction13releaseWidgetEP7QWidget
	_ZN13QWidgetAction13requestWidgetEP7QWidget
	_ZN13QWidgetAction16setDefaultWidgetEP7QWidget
	_ZN13QWidgetAction16staticMetaObjectE
	_ZN13QWidgetAction18qt_static_metacallEP7QObjectN11QMetaObject4CallEiPPv
	_ZN13QWidgetAction5eventEP6QEvent
	_ZN13QWidgetActionC1EP7QObject
	_ZN13QWidgetActionC2EP7QObject
	_ZN13QWidgetActionD0Ev
	_ZN13QWidgetActionD1Ev
	_ZN13QWidgetActionD2Ev
	_ZN13QWidgetItemV2C1EP7QWidget
	_ZN13QWidgetItemV2C2EP7QWidget
	_ZN13QWidgetItemV2D0Ev
	_ZN13QWidgetItemV2D1Ev
	_ZN13QWidgetItemV2D2Ev
	_ZN14QActionPrivate14showStatusTextEP7QWidgetRK7QString
	_ZN14QActionPrivate15sendDataChangedEv
	_ZN14QActionPrivate17redoGrabAlternateER12QShortcutMap
	_ZN14QActionPrivate18setShortcutEnabledEbR12QShortcutMap
	_ZN14QActionPrivate8redoGrabER12QShortcutMap
	_ZN14QActionPrivateC1Ev
	_ZN14QActionPrivateC2Ev
	_ZN14QActionPrivateD0Ev
	_ZN14QActionPrivateD1Ev
	_ZN14QActionPrivateD2Ev
	_ZN14QDesktopWidget11qt_metacallEN11QMetaObject4CallEiPPv
	_ZN14QDesktopWidget11qt_metacastEPKc
	_ZN14QDesktopWidget11resizeEventEP12QResizeEvent
	_ZN14QDesktopWidget15workAreaResizedEi
	_ZN14QDesktopWidget16staticMetaObjectE
	_ZN14QDesktopWidget18qt_static_metacallEP7QObjectN11QMetaObject4CallEiPPv
	_ZN14QDesktopWidget18screenCountChangedEi
	_ZN14QDesktopWidget6screenEi
	_ZN14QDesktopWidget7resizedEi
	_ZN14QDesktopWidgetC1Ev
	_ZN14QDesktopWidgetC2Ev
	_ZN14QDesktopWidgetD0Ev
	_ZN14QDesktopWidgetD1Ev
	_ZN14QDesktopWidgetD2Ev
	_ZN14QDialogPrivate10helperDoneEN7QDialog10DialogCodeEP21QPlatformDialogHelper
	_ZN14QDialogPrivate10initHelperEP21QPlatformDialogHelper
	_ZN14QDialogPrivate10setDefaultEP11QPushButton
	_ZN14QDialogPrivate11hideDefaultEv
	_ZN14QDialogPrivate14setMainDefaultEP11QPushButton
	_ZN14QDialogPrivate17helperPrepareShowEP21QPlatformDialogHelper
	_ZN14QDialogPrivate20deletePlatformHelperEv
	_ZN14QDialogPrivate22resetModalitySetByOpenEv
	_ZN14QDialogPrivate22setNativeDialogVisibleEb
	_ZN14QDialogPrivateD0Ev
	_ZN14QDialogPrivateD1Ev
	_ZN14QDoubleSpinBox10setMaximumEd
	_ZN14QDoubleSpinBox10setMinimumEd
	_ZN14QDoubleSpinBox11qt_metacallEN11QMetaObject4CallEiPPv
	_ZN14QDoubleSpinBox11qt_metacastEPKc
	_ZN14QDoubleSpinBox11setDecimalsEi
	_ZN14QDoubleSpinBox12valueChangedERK7QString
	_ZN14QDoubleSpinBox12valueChangedEd
	_ZN14QDoubleSpinBox13setSingleStepEd
	_ZN14QDoubleSpinBox16staticMetaObjectE
	_ZN14QDoubleSpinBox18qt_static_metacallEP7QObjectN11QMetaObject4CallEiPPv
	_ZN14QDoubleSpinBox8setRangeEdd
	_ZN14QDoubleSpinBox8setValueEd
	_ZN14QDoubleSpinBox9setPrefixERK7QString
	_ZN14QDoubleSpinBox9setSuffixERK7QString
	_ZN14QDoubleSpinBoxC1EP7QWidget
	_ZN14QDoubleSpinBoxC2EP7QWidget
	_ZN14QDoubleSpinBoxD0Ev
	_ZN14QDoubleSpinBoxD1Ev
	_ZN14QDoubleSpinBoxD2Ev
	_ZN14QGraphicsScale11qt_metacallEN11QMetaObject4CallEiPPv
	_ZN14QGraphicsScale11qt_metacastEPKc
	_ZN14QGraphicsScale12scaleChangedEv
	_ZN14QGraphicsScale13originChangedEv
	_ZN14QGraphicsScale13xScaleChangedEv
	_ZN14QGraphicsScale13yScaleChangedEv
	_ZN14QGraphicsScale13zScaleChangedEv
	_ZN14QGraphicsScale16staticMetaObjectE
	_ZN14QGraphicsScale18qt_static_metacallEP7QObjectN11QMetaObject4CallEiPPv
	_ZN14QGraphicsScale9setOriginERK9QVector3D
	_ZN14QGraphicsScale9setXScaleEd
	_ZN14QGraphicsScale9setYScaleEd
	_ZN14QGraphicsScale9setZScaleEd
	_ZN14QGraphicsScaleC1EP7QObject
	_ZN14QGraphicsScaleC2EP7QObject
	_ZN14QGraphicsScaleD0Ev
	_ZN14QGraphicsScaleD1Ev
	_ZN14QGraphicsScaleD2Ev
	_ZN14QGraphicsScene10addEllipseERK6QRectFRK4QPenRK6QBrush
	_ZN14QGraphicsScene10addPolygonERK9QPolygonFRK4QPenRK6QBrush
	_ZN14QGraphicsScene10clearFocusEv
	_ZN14QGraphicsScene10invalidateERK6QRectF6QFlagsINS_10SceneLayerEE
	_ZN14QGraphicsScene10removeItemEP13QGraphicsItem
	_ZN14QGraphicsScene10setPaletteERK8QPalette
	_ZN14QGraphicsScene10wheelEventEP24QGraphicsSceneWheelEvent
	_ZN14QGraphicsScene11eventFilterEP7QObjectP6QEvent
	_ZN14QGraphicsScene11qt_metacallEN11QMetaObject4CallEiPPv
	_ZN14QGraphicsScene11qt_metacastEPKc
	_ZN14QGraphicsScene12focusInEventEP11QFocusEvent
	_ZN14QGraphicsScene12setFocusItemEP13QGraphicsItemN2Qt11FocusReasonE
	_ZN14QGraphicsScene12setSceneRectERK6QRectF
	_ZN14QGraphicsScene13addSimpleTextERK7QStringRK5QFont
	_ZN14QGraphicsScene13dragMoveEventEP27QGraphicsSceneDragDropEvent
	_ZN14QGraphicsScene13focusOutEventEP11QFocusEvent
	_ZN14QGraphicsScene13keyPressEventEP9QKeyEvent
	_ZN14QGraphicsScene14clearSelectionEv
	_ZN14QGraphicsScene14dragEnterEventEP27QGraphicsSceneDragDropEvent
	_ZN14QGraphicsScene14dragLeaveEventEP27QGraphicsSceneDragDropEvent
	_ZN14QGraphicsScene14drawBackgroundEP8QPainterRK6QRectF
	_ZN14QGraphicsScene14drawForegroundEP8QPainterRK6QRectF
	_ZN14QGraphicsScene14mouseMoveEventEP24QGraphicsSceneMouseEvent
	_ZN14QGraphicsScene14setActivePanelEP13QGraphicsItem
	_ZN14QGraphicsScene14setStickyFocusEb
	_ZN14QGraphicsScene15createItemGroupERK5QListIP13QGraphicsItemE
	_ZN14QGraphicsScene15keyReleaseEventEP9QKeyEvent
	_ZN14QGraphicsScene15mousePressEventEP24QGraphicsSceneMouseEvent
	_ZN14QGraphicsScene15setActiveWindowEP15QGraphicsWidget
	_ZN14QGraphicsScene15setBspTreeDepthEi
	_ZN14QGraphicsScene16contextMenuEventEP30QGraphicsSceneContextMenuEvent
	_ZN14QGraphicsScene16destroyItemGroupEP18QGraphicsItemGroup
	_ZN14QGraphicsScene16focusItemChangedEP13QGraphicsItemS1_N2Qt11FocusReasonE
	_ZN14QGraphicsScene16inputMethodEventEP17QInputMethodEvent
	_ZN14QGraphicsScene16sceneRectChangedERK6QRectF
	_ZN14QGraphicsScene16selectionChangedEv
	_ZN14QGraphicsScene16setSelectionAreaERK12QPainterPathN2Qt17ItemSelectionModeERK10QTransform
	_ZN14QGraphicsScene16setSelectionAreaERK12QPainterPathRK10QTransform
	_ZN14QGraphicsScene16staticMetaObjectE
	_ZN14QGraphicsScene17mouseReleaseEventEP24QGraphicsSceneMouseEvent
	_ZN14QGraphicsScene18focusNextPrevChildEb
	_ZN14QGraphicsScene18qt_static_metacallEP7QObjectN11QMetaObject4CallEiPPv
	_ZN14QGraphicsScene18setBackgroundBrushERK6QBrush
	_ZN14QGraphicsScene18setForegroundBrushERK6QBrush
	_ZN14QGraphicsScene18setItemIndexMethodENS_15ItemIndexMethodE
	_ZN14QGraphicsScene19setSortCacheEnabledEb
	_ZN14QGraphicsScene21mouseDoubleClickEventEP24QGraphicsSceneMouseEvent
	_ZN14QGraphicsScene5clearEv
	_ZN14QGraphicsScene5eventEP6QEvent
	_ZN14QGraphicsScene6renderEP8QPainterRK6QRectFS4_N2Qt15AspectRatioModeE
	_ZN14QGraphicsScene6updateERK6QRectF
	_ZN14QGraphicsScene7addItemEP13QGraphicsItem
	_ZN14QGraphicsScene7addLineERK6QLineFRK4QPen
	_ZN14QGraphicsScene7addPathERK12QPainterPathRK4QPenRK6QBrush
	_ZN14QGraphicsScene7addRectERK6QRectFRK4QPenRK6QBrush
	_ZN14QGraphicsScene7addTextERK7QStringRK5QFont
	_ZN14QGraphicsScene7advanceEv
	_ZN14QGraphicsScene7changedERK5QListI6QRectFE
	_ZN14QGraphicsScene7setFontERK5QFont
	_ZN14QGraphicsScene8setFocusEN2Qt11FocusReasonE
	_ZN14QGraphicsScene8setStyleEP6QStyle
	_ZN14QGraphicsScene9addPixmapERK7QPixmap
	_ZN14QGraphicsScene9addWidgetEP7QWidget6QFlagsIN2Qt10WindowTypeEE
	_ZN14QGraphicsScene9drawItemsEP8QPainteriPP13QGraphicsItemPK24QStyleOptionGraphicsItemP7QWidget
	_ZN14QGraphicsScene9dropEventEP27QGraphicsSceneDragDropEvent
	_ZN14QGraphicsScene9helpEventEP23QGraphicsSceneHelpEvent
	_ZN14QGraphicsScene9sendEventEP13QGraphicsItemP6QEvent
	_ZN14QGraphicsSceneC1EP7QObject
	_ZN14QGraphicsSceneC1ERK6QRectFP7QObject
	_ZN14QGraphicsSceneC1EddddP7QObject
	_ZN14QGraphicsSceneC2EP7QObject
	_ZN14QGraphicsSceneC2ERK6QRectFP7QObject
	_ZN14QGraphicsSceneC2EddddP7QObject
	_ZN14QGraphicsSceneD0Ev
	_ZN14QGraphicsSceneD1Ev
	_ZN14QGraphicsSceneD2Ev
	_ZN14QLayoutPrivate16createSpacerItemEPK7QLayoutiiN11QSizePolicy6PolicyES4_
	_ZN14QLayoutPrivate16createWidgetItemEPK7QLayoutP7QWidget
	_ZN14QLayoutPrivate20reparentChildWidgetsEP7QWidget
	_ZN14QLayoutPrivate23spacerItemFactoryMethodE
	_ZN14QLayoutPrivate23widgetItemFactoryMethodE
	_ZN14QLayoutPrivate8doResizeERK5QSize
	_ZN14QLayoutPrivate9replaceAtEiP11QLayoutItem
	_ZN14QLayoutPrivateC1Ev
	_ZN14QLayoutPrivateC2Ev
	_ZN14QPlainTextEdit10appendHtmlERK7QString
	_ZN14QPlainTextEdit10moveCursorEN11QTextCursor13MoveOperationENS0_8MoveModeE
	_ZN14QPlainTextEdit10paintEventEP11QPaintEvent
	_ZN14QPlainTextEdit10timerEventEP11QTimerEvent
	_ZN14QPlainTextEdit10wheelEventEP11QWheelEvent
	_ZN14QPlainTextEdit11changeEventEP6QEvent
	_ZN14QPlainTextEdit11qt_metacallEN11QMetaObject4CallEiPPv
	_ZN14QPlainTextEdit11qt_metacastEPKc
	_ZN14QPlainTextEdit11resizeEventEP12QResizeEvent
	_ZN14QPlainTextEdit11setDocumentEP13QTextDocument
	_ZN14QPlainTextEdit11setReadOnlyEb
	_ZN14QPlainTextEdit11textChangedEv
	_ZN14QPlainTextEdit12centerCursorEv
	_ZN14QPlainTextEdit12focusInEventEP11QFocusEvent
	_ZN14QPlainTextEdit12loadResourceEiRK4QUrl
	_ZN14QPlainTextEdit12setPlainTextERK7QString
	_ZN14QPlainTextEdit13copyAvailableEb
	_ZN14QPlainTextEdit13dragMoveEventEP14QDragMoveEvent
	_ZN14QPlainTextEdit13focusOutEventEP11QFocusEvent
	_ZN14QPlainTextEdit13keyPressEventEP9QKeyEvent
	_ZN14QPlainTextEdit13redoAvailableEb
	_ZN14QPlainTextEdit13setTextCursorERK11QTextCursor
	_ZN14QPlainTextEdit13undoAvailableEb
	_ZN14QPlainTextEdit13updateRequestERK5QRecti
	_ZN14QPlainTextEdit14dragEnterEventEP15QDragEnterEvent
	_ZN14QPlainTextEdit14dragLeaveEventEP15QDragLeaveEvent
	_ZN14QPlainTextEdit14mouseMoveEventEP11QMouseEvent
	_ZN14QPlainTextEdit14setCursorWidthEi
	_ZN14QPlainTextEdit15appendPlainTextERK7QString
	_ZN14QPlainTextEdit15doSetTextCursorERK11QTextCursor
	_ZN14QPlainTextEdit15insertPlainTextERK7QString
	_ZN14QPlainTextEdit15keyReleaseEventEP9QKeyEvent
	_ZN14QPlainTextEdit15mousePressEventEP11QMouseEvent
	_ZN14QPlainTextEdit15setLineWrapModeENS_12LineWrapModeE
	_ZN14QPlainTextEdit15setTabStopWidthEi
	_ZN14QPlainTextEdit15setWordWrapModeEN11QTextOption8WrapModeE
	_ZN14QPlainTextEdit16contextMenuEventEP17QContextMenuEvent
	_ZN14QPlainTextEdit16inputMethodEventEP17QInputMethodEvent
	_ZN14QPlainTextEdit16scrollContentsByEii
	_ZN14QPlainTextEdit16selectionChangedEv
	_ZN14QPlainTextEdit16setOverwriteModeEb
	_ZN14QPlainTextEdit16staticMetaObjectE
	_ZN14QPlainTextEdit17blockCountChangedEi
	_ZN14QPlainTextEdit17mouseReleaseEventEP11QMouseEvent
	_ZN14QPlainTextEdit17setCenterOnScrollEb
	_ZN14QPlainTextEdit18focusNextPrevChildEb
	_ZN14QPlainTextEdit18insertFromMimeDataEPK9QMimeData
	_ZN14QPlainTextEdit18qt_static_metacallEP7QObjectN11QMetaObject4CallEiPPv
	_ZN14QPlainTextEdit18setExtraSelectionsERK5QListIN9QTextEdit14ExtraSelectionEE
	_ZN14QPlainTextEdit18setPlaceholderTextERK7QString
	_ZN14QPlainTextEdit18setTabChangesFocusEb
	_ZN14QPlainTextEdit19ensureCursorVisibleEv
	_ZN14QPlainTextEdit19modificationChangedEb
	_ZN14QPlainTextEdit20setBackgroundVisibleEb
	_ZN14QPlainTextEdit20setCurrentCharFormatERK15QTextCharFormat
	_ZN14QPlainTextEdit21cursorPositionChangedEv
	_ZN14QPlainTextEdit21mouseDoubleClickEventEP11QMouseEvent
	_ZN14QPlainTextEdit22mergeCurrentCharFormatERK15QTextCharFormat
	_ZN14QPlainTextEdit23setTextInteractionFlagsE6QFlagsIN2Qt19TextInteractionFlagEE
	_ZN14QPlainTextEdit25createStandardContextMenuEv
	_ZN14QPlainTextEdit3cutEv
	_ZN14QPlainTextEdit4copyEv
	_ZN14QPlainTextEdit4findERK7QRegExp6QFlagsIN13QTextDocument8FindFlagEE
	_ZN14QPlainTextEdit4findERK7QString6QFlagsIN13QTextDocument8FindFlagEE
	_ZN14QPlainTextEdit4redoEv
	_ZN14QPlainTextEdit4undoEv
	_ZN14QPlainTextEdit5clearEv
	_ZN14QPlainTextEdit5eventEP6QEvent
	_ZN14QPlainTextEdit5pasteEv
	_ZN14QPlainTextEdit6zoomInEi
	_ZN14QPlainTextEdit7zoomOutEi
	_ZN14QPlainTextEdit9dropEventEP10QDropEvent
	_ZN14QPlainTextEdit9selectAllEv
	_ZN14QPlainTextEdit9showEventEP10QShowEvent
	_ZN14QPlainTextEditC1EP7QWidget
	_ZN14QPlainTextEditC1ER21QPlainTextEditPrivateP7QWidget
	_ZN14QPlainTextEditC1ERK7QStringP7QWidget
	_ZN14QPlainTextEditC2EP7QWidget
	_ZN14QPlainTextEditC2ER21QPlainTextEditPrivateP7QWidget
	_ZN14QPlainTextEditC2ERK7QStringP7QWidget
	_ZN14QPlainTextEditD0Ev
	_ZN14QPlainTextEditD1Ev
	_ZN14QPlainTextEditD2Ev
	_ZN14QStackedLayout11qt_metacallEN11QMetaObject4CallEiPPv
	_ZN14QStackedLayout11qt_metacastEPKc
	_ZN14QStackedLayout11setGeometryERK5QRect
	_ZN14QStackedLayout12insertWidgetEiP7QWidget
	_ZN14QStackedLayout13widgetRemovedEi
	_ZN14QStackedLayout14currentChangedEi
	_ZN14QStackedLayout15setCurrentIndexEi
	_ZN14QStackedLayout15setStackingModeENS_12StackingModeE
	_ZN14QStackedLayout16setCurrentWidgetEP7QWidget
	_ZN14QStackedLayout16staticMetaObjectE
	_ZN14QStackedLayout18qt_static_metacallEP7QObjectN11QMetaObject4CallEiPPv
	_ZN14QStackedLayout6takeAtEi
	_ZN14QStackedLayout7addItemEP11QLayoutItem
	_ZN14QStackedLayout9addWidgetEP7QWidget
	_ZN14QStackedLayoutC1EP7QLayout
	_ZN14QStackedLayoutC1EP7QWidget
	_ZN14QStackedLayoutC1Ev
	_ZN14QStackedLayoutC2EP7QLayout
	_ZN14QStackedLayoutC2EP7QWidget
	_ZN14QStackedLayoutC2Ev
	_ZN14QStackedLayoutD0Ev
	_ZN14QStackedLayoutD1Ev
	_ZN14QStackedLayoutD2Ev
	_ZN14QStackedWidget11qt_metacallEN11QMetaObject4CallEiPPv
	_ZN14QStackedWidget11qt_metacastEPKc
	_ZN14QStackedWidget12insertWidgetEiP7QWidget
	_ZN14QStackedWidget12removeWidgetEP7QWidget
	_ZN14QStackedWidget13widgetRemovedEi
	_ZN14QStackedWidget14currentChangedEi
	_ZN14QStackedWidget15setCurrentIndexEi
	_ZN14QStackedWidget16setCurrentWidgetEP7QWidget
	_ZN14QStackedWidget16staticMetaObjectE
	_ZN14QStackedWidget18qt_static_metacallEP7QObjectN11QMetaObject4CallEiPPv
	_ZN14QStackedWidget5eventEP6QEvent
	_ZN14QStackedWidget9addWidgetEP7QWidget
	_ZN14QStackedWidgetC1EP7QWidget
	_ZN14QStackedWidgetC2EP7QWidget
	_ZN14QStackedWidgetD0Ev
	_ZN14QStackedWidgetD1Ev
	_ZN14QStackedWidgetD2Ev
	_ZN14QWidgetPrivate10allWidgetsE
	_ZN14QWidgetPrivate10create_sysEybb
	_ZN14QWidgetPrivate10drawWidgetEP12QPaintDeviceRK7QRegionRK6QPointiP8QPainterP19QWidgetBackingStore
	_ZN14QWidgetPrivate10scrollRectERK5QRectii
	_ZN14QWidgetPrivate10scroll_sysEii
	_ZN14QWidgetPrivate10scroll_sysEiiRK5QRect
	_ZN14QWidgetPrivate10updateFontERK5QFont
	_ZN14QWidgetPrivate11adjustFlagsER6QFlagsIN2Qt10WindowTypeEEP7QWidget
	_ZN14QWidgetPrivate11createExtraEv
	_ZN14QWidgetPrivate11createWinIdEy
	_ZN14QWidgetPrivate11deleteExtraEv
	_ZN14QWidgetPrivate11hide_helperEv
	_ZN14QWidgetPrivate11pointToRectERK6QPointRK5QRect
	_ZN14QWidgetPrivate11repaint_sysERK7QRegion
	_ZN14QWidgetPrivate11resolveFontEv
	_ZN14QWidgetPrivate11setMask_sysERK7QRegion
	_ZN14QWidgetPrivate11show_helperEv
	_ZN14QWidgetPrivate12close_helperENS_9CloseModeE
	_ZN14QWidgetPrivate12hideChildrenEb
	_ZN14QWidgetPrivate12inheritStyleEv
	_ZN14QWidgetPrivate12maxInstancesE
	_ZN14QWidgetPrivate12setFocus_sysEv
	_ZN14QWidgetPrivate12setModal_sysEv
	_ZN14QWidgetPrivate12showChildrenEb
	_ZN14QWidgetPrivate13createTLExtraEv
	_ZN14QWidgetPrivate13render_helperEP8QPainterRK6QPointRK7QRegion6QFlagsIN7QWidget10RenderFlagEE
	_ZN14QWidgetPrivate13resolveLocaleEv
	_ZN14QWidgetPrivate13setCursor_sysERK7QCursor
	_ZN14QWidgetPrivate13setParent_sysEP7QWidget6QFlagsIN2Qt10WindowTypeEE
	_ZN14QWidgetPrivate13setSystemClipEP12QPaintDeviceRK7QRegion
	_ZN14QWidgetPrivate13setWSGeometryEv
	_ZN14QWidgetPrivate14aboutToDestroyEv
	_ZN14QWidgetPrivate14createSysExtraEv
	_ZN14QWidgetPrivate14deleteSysExtraEv
	_ZN14QWidgetPrivate14resolvePaletteEv
	_ZN14QWidgetPrivate14scrollChildrenEii
	_ZN14QWidgetPrivate14setWindowFlagsE6QFlagsIN2Qt10WindowTypeEE
	_ZN14QWidgetPrivate14show_recursiveEv
	_ZN14QWidgetPrivate14stackUnder_sysEP7QWidget
	_ZN14QWidgetPrivate14stealMouseGrabEb
	_ZN14QWidgetPrivate14updateIsOpaqueEv
	_ZN14QWidgetPrivate15instanceCounterE
	_ZN14QWidgetPrivate15prepareToRenderERK7QRegion6QFlagsIN7QWidget10RenderFlagEE
	_ZN14QWidgetPrivate15setGeometry_sysEiiiib
	_ZN14QWidgetPrivate15setStyle_helperEP6QStylebb
	_ZN14QWidgetPrivate15unsetCursor_sysEv
	_ZN14QWidgetPrivate16createTLSysExtraEv
	_ZN14QWidgetPrivate16deleteTLSysExtraEv
	_ZN14QWidgetPrivate16invalidateBufferERK5QRect
	_ZN14QWidgetPrivate16invalidateBufferERK7QRegion
	_ZN14QWidgetPrivate16registerDropSiteEb
	_ZN14QWidgetPrivate16setLocale_helperERK7QLocaleb
	_ZN14QWidgetPrivate16syncBackingStoreERK7QRegion
	_ZN14QWidgetPrivate16syncBackingStoreEv
	_ZN14QWidgetPrivate16updateFocusChildEv
	_ZN14QWidgetPrivate16updateFrameStrutEv
	_ZN14QWidgetPrivate17createRecursivelyEv
	_ZN14QWidgetPrivate17setEnabled_helperEb
	_ZN14QWidgetPrivate17setPalette_helperERK8QPalette
	_ZN14QWidgetPrivate17setWindowIcon_sysEv
	_ZN14QWidgetPrivate17stealKeyboardGrabEb
	_ZN14QWidgetPrivate18_q_showIfNotHiddenEv
	_ZN14QWidgetPrivate18setConstraints_sysEv
	_ZN14QWidgetPrivate18setWindowTitle_sysERK7QString
	_ZN14QWidgetPrivate19fixPosIncludesFrameEv
	_ZN14QWidgetPrivate19updateIsTranslucentEv
	_ZN14QWidgetPrivate20reparentFocusWidgetsEP7QWidget
	_ZN14QWidgetPrivate20setDirtyOpaqueRegionEv
	_ZN14QWidgetPrivate20setLayoutItemMarginsEN6QStyle10SubElementEPK12QStyleOption
	_ZN14QWidgetPrivate20setLayoutItemMarginsEiiii
	_ZN14QWidgetPrivate20setWindowIcon_helperEv
	_ZN14QWidgetPrivate20setWindowOpacity_sysEd
	_ZN14QWidgetPrivate21setMaximumSize_helperERiS0_
	_ZN14QWidgetPrivate21setMinimumSize_helperERiS0_
	_ZN14QWidgetPrivate21setWindowFilePath_sysERK7QString
	_ZN14QWidgetPrivate21setWindowIconText_sysERK7QString
	_ZN14QWidgetPrivate21setWindowTitle_helperERK7QString
	_ZN14QWidgetPrivate21updateGeometry_helperEb
	_ZN14QWidgetPrivate21updateWidgetTransformEP6QEvent
	_ZN14QWidgetPrivate22paintSiblingsRecursiveEP12QPaintDeviceRK5QListIP7QObjectEiRK7QRegionRK6QPointiP8QPainterP19QWidgetBackingStore
	_ZN14QWidgetPrivate22propagatePaletteChangeEv
	_ZN14QWidgetPrivate22resolveLayoutDirectionEv
	_ZN14QWidgetPrivate22updateSystemBackgroundEv
	_ZN14QWidgetPrivate23deactivateWidgetCleanupEv
	_ZN14QWidgetPrivate24setUpdatesEnabled_helperEb
	_ZN14QWidgetPrivate24setWindowFilePath_helperERK7QString
	_ZN14QWidgetPrivate24setWindowIconText_helperERK7QString
	_ZN14QWidgetPrivate24setWindowModified_helperEv
	_ZN14QWidgetPrivate25setLayoutDirection_helperEN2Qt15LayoutDirectionE
	_ZN14QWidgetPrivate26adjustQuitOnCloseAttributeEv
	_ZN14QWidgetPrivate26nearestGraphicsProxyWidgetEPK7QWidget
	_ZN14QWidgetPrivate29invalidateBuffer_resizeHelperERK6QPointRK5QSize
	_ZN14QWidgetPrivate30sendPendingMoveAndResizeEventsEbb
	_ZN14QWidgetPrivate31activateChildLayoutsRecursivelyEv
	_ZN14QWidgetPrivate36invalidateGraphicsEffectsRecursivelyEv
	_ZN14QWidgetPrivate4initEP7QWidget6QFlagsIN2Qt10WindowTypeEE
	_ZN14QWidgetPrivate6mapperE
	_ZN14QWidgetPrivate6renderEP12QPaintDeviceRK6QPointRK7QRegion6QFlagsIN7QWidget10RenderFlagEE
	_ZN14QWidgetPrivate8hide_sysEv
	_ZN14QWidgetPrivate8moveRectERK5QRectii
	_ZN14QWidgetPrivate8setWinIdEy
	_ZN14QWidgetPrivate8show_sysEv
	_ZN14QWidgetPrivate9lower_sysEv
	_ZN14QWidgetPrivate9raise_sysEv
	_ZN14QWidgetPrivate9setOpaqueEb
	_ZN14QWidgetPrivateC1Ei
	_ZN14QWidgetPrivateC2Ei
	_ZN14QWidgetPrivateD0Ev
	_ZN14QWidgetPrivateD1Ev
	_ZN14QWidgetPrivateD2Ev
	_ZN15QAbstractButton10setCheckedEb
	_ZN15QAbstractButton10timerEventEP11QTimerEvent
	_ZN15QAbstractButton11changeEventEP6QEvent
	_ZN15QAbstractButton11qt_metacallEN11QMetaObject4CallEiPPv
	_ZN15QAbstractButton11qt_metacastEPKc
	_ZN15QAbstractButton11setIconSizeERK5QSize
	_ZN15QAbstractButton11setShortcutERK12QKeySequence
	_ZN15QAbstractButton12animateClickEi
	_ZN15QAbstractButton12focusInEventEP11QFocusEvent
	_ZN15QAbstractButton12setCheckableEb
	_ZN15QAbstractButton13checkStateSetEv
	_ZN15QAbstractButton13focusOutEventEP11QFocusEvent
	_ZN15QAbstractButton13keyPressEventEP9QKeyEvent
	_ZN15QAbstractButton13setAutoRepeatEb
	_ZN15QAbstractButton14mouseMoveEventEP11QMouseEvent
	_ZN15QAbstractButton14nextCheckStateEv
	_ZN15QAbstractButton15keyReleaseEventEP9QKeyEvent
	_ZN15QAbstractButton15mousePressEventEP11QMouseEvent
	_ZN15QAbstractButton16setAutoExclusiveEb
	_ZN15QAbstractButton16staticMetaObjectE
	_ZN15QAbstractButton17mouseReleaseEventEP11QMouseEvent
	_ZN15QAbstractButton18qt_static_metacallEP7QObjectN11QMetaObject4CallEiPPv
	_ZN15QAbstractButton18setAutoRepeatDelayEi
	_ZN15QAbstractButton21setAutoRepeatIntervalEi
	_ZN15QAbstractButton5clickEv
	_ZN15QAbstractButton5eventEP6QEvent
	_ZN15QAbstractButton6toggleEv
	_ZN15QAbstractButton7clickedEb
	_ZN15QAbstractButton7pressedEv
	_ZN15QAbstractButton7setDownEb
	_ZN15QAbstractButton7setIconERK5QIcon
	_ZN15QAbstractButton7setTextERK7QString
	_ZN15QAbstractButton7toggledEb
	_ZN15QAbstractButton8releasedEv
	_ZN15QAbstractButtonC1EP7QWidget
	_ZN15QAbstractButtonC1ER22QAbstractButtonPrivateP7QWidget
	_ZN15QAbstractButtonC2EP7QWidget
	_ZN15QAbstractButtonC2ER22QAbstractButtonPrivateP7QWidget
	_ZN15QAbstractButtonD0Ev
	_ZN15QAbstractButtonD1Ev
	_ZN15QAbstractButtonD2Ev
	_ZN15QAbstractSlider10setMaximumEi
	_ZN15QAbstractSlider10setMinimumEi
	_ZN15QAbstractSlider10timerEventEP11QTimerEvent
	_ZN15QAbstractSlider10wheelEventEP11QWheelEvent
	_ZN15QAbstractSlider11changeEventEP6QEvent
	_ZN15QAbstractSlider11qt_metacallEN11QMetaObject4CallEiPPv
	_ZN15QAbstractSlider11qt_metacastEPKc
	_ZN15QAbstractSlider11setPageStepEi
	_ZN15QAbstractSlider11setTrackingEb
	_ZN15QAbstractSlider11sliderMovedEi
	_ZN15QAbstractSlider12rangeChangedEii
	_ZN15QAbstractSlider12sliderChangeENS_12SliderChangeE
	_ZN15QAbstractSlider12valueChangedEi
	_ZN15QAbstractSlider13keyPressEventEP9QKeyEvent
	_ZN15QAbstractSlider13setSingleStepEi
	_ZN15QAbstractSlider13setSliderDownEb
	_ZN15QAbstractSlider13sliderPressedEv
	_ZN15QAbstractSlider13triggerActionENS_12SliderActionE
	_ZN15QAbstractSlider14setOrientationEN2Qt11OrientationE
	_ZN15QAbstractSlider14sliderReleasedEv
	_ZN15QAbstractSlider15actionTriggeredEi
	_ZN15QAbstractSlider15setRepeatActionENS_12SliderActionEii
	_ZN15QAbstractSlider16staticMetaObjectE
	_ZN15QAbstractSlider17setSliderPositionEi
	_ZN15QAbstractSlider18qt_static_metacallEP7QObjectN11QMetaObject4CallEiPPv
	_ZN15QAbstractSlider19setInvertedControlsEb
	_ZN15QAbstractSlider21setInvertedAppearanceEb
	_ZN15QAbstractSlider5eventEP6QEvent
	_ZN15QAbstractSlider8setRangeEii
	_ZN15QAbstractSlider8setValueEi
	_ZN15QAbstractSliderC1EP7QWidget
	_ZN15QAbstractSliderC1ER22QAbstractSliderPrivateP7QWidget
	_ZN15QAbstractSliderC2EP7QWidget
	_ZN15QAbstractSliderC2ER22QAbstractSliderPrivateP7QWidget
	_ZN15QAbstractSliderD0Ev
	_ZN15QAbstractSliderD1Ev
	_ZN15QAbstractSliderD2Ev
	_ZN15QCalendarWidget10updateCellERK5QDate
	_ZN15QCalendarWidget11eventFilterEP7QObjectP6QEvent
	_ZN15QCalendarWidget11qt_metacallEN11QMetaObject4CallEiPPv
	_ZN15QCalendarWidget11qt_metacastEPKc
	_ZN15QCalendarWidget11resizeEventEP12QResizeEvent
	_ZN15QCalendarWidget11updateCellsEv
	_ZN15QCalendarWidget12setDateRangeERK5QDateS2_
	_ZN15QCalendarWidget12showNextYearEv
	_ZN15QCalendarWidget13keyPressEventEP9QKeyEvent
	_ZN15QCalendarWidget13showNextMonthEv
	_ZN15QCalendarWidget14setCurrentPageEii
	_ZN15QCalendarWidget14setGridVisibleEb
	_ZN15QCalendarWidget14setMaximumDateERK5QDate
	_ZN15QCalendarWidget14setMinimumDateERK5QDate
	_ZN15QCalendarWidget15mousePressEventEP11QMouseEvent
	_ZN15QCalendarWidget15setSelectedDateERK5QDate
	_ZN15QCalendarWidget16selectionChangedEv
	_ZN15QCalendarWidget16setSelectionModeENS_13SelectionModeE
	_ZN15QCalendarWidget16showPreviousYearEv
	_ZN15QCalendarWidget16showSelectedDateEv
	_ZN15QCalendarWidget16staticMetaObjectE
	_ZN15QCalendarWidget17setDateTextFormatERK5QDateRK15QTextCharFormat
	_ZN15QCalendarWidget17setFirstDayOfWeekEN2Qt9DayOfWeekE
	_ZN15QCalendarWidget17showPreviousMonthEv
	_ZN15QCalendarWidget18currentPageChangedEii
	_ZN15QCalendarWidget18qt_static_metacallEP7QObjectN11QMetaObject4CallEiPPv
	_ZN15QCalendarWidget18setDateEditEnabledEb
	_ZN15QCalendarWidget19setHeaderTextFormatERK15QTextCharFormat
	_ZN15QCalendarWidget20setWeekdayTextFormatEN2Qt9DayOfWeekERK15QTextCharFormat
	_ZN15QCalendarWidget22setDateEditAcceptDelayEi
	_ZN15QCalendarWidget23setNavigationBarVisibleEb
	_ZN15QCalendarWidget23setVerticalHeaderFormatENS_20VerticalHeaderFormatE
	_ZN15QCalendarWidget25setHorizontalHeaderFormatENS_22HorizontalHeaderFormatE
	_ZN15QCalendarWidget5eventEP6QEvent
	_ZN15QCalendarWidget7clickedERK5QDate
	_ZN15QCalendarWidget9activatedERK5QDate
	_ZN15QCalendarWidget9showTodayEv
	_ZN15QCalendarWidgetC1EP7QWidget
	_ZN15QCalendarWidgetC2EP7QWidget
	_ZN15QCalendarWidgetD0Ev
	_ZN15QCalendarWidgetD1Ev
	_ZN15QCalendarWidgetD2Ev
	_ZN15QGraphicsAnchor10setSpacingEd
	_ZN15QGraphicsAnchor11qt_metacallEN11QMetaObject4CallEiPPv
	_ZN15QGraphicsAnchor11qt_metacastEPKc
	_ZN15QGraphicsAnchor12unsetSpacingEv
	_ZN15QGraphicsAnchor13setSizePolicyEN11QSizePolicy6PolicyE
	_ZN15QGraphicsAnchor16staticMetaObjectE
	_ZN15QGraphicsAnchor18qt_static_metacallEP7QObjectN11QMetaObject4CallEiPPv
	_ZN15QGraphicsAnchorC1EP21QGraphicsAnchorLayout
	_ZN15QGraphicsAnchorC2EP21QGraphicsAnchorLayout
	_ZN15QGraphicsAnchorD0Ev
	_ZN15QGraphicsAnchorD1Ev
	_ZN15QGraphicsAnchorD2Ev
	_ZN15QGraphicsEffect10drawSourceEP8QPainter
	_ZN15QGraphicsEffect10setEnabledEb
	_ZN15QGraphicsEffect11qt_metacallEN11QMetaObject4CallEiPPv
	_ZN15QGraphicsEffect11qt_metacastEPKc
	_ZN15QGraphicsEffect13sourceChangedE6QFlagsINS_10ChangeFlagEE
	_ZN15QGraphicsEffect14enabledChangedEb
	_ZN15QGraphicsEffect16staticMetaObjectE
	_ZN15QGraphicsEffect18qt_static_metacallEP7QObjectN11QMetaObject4CallEiPPv
	_ZN15QGraphicsEffect18updateBoundingRectEv
	_ZN15QGraphicsEffect6updateEv
	_ZN15QGraphicsEffectC1EP7QObject
	_ZN15QGraphicsEffectC1ER22QGraphicsEffectPrivateP7QObject
	_ZN15QGraphicsEffectC2EP7QObject
	_ZN15QGraphicsEffectC2ER22QGraphicsEffectPrivateP7QObject
	_ZN15QGraphicsEffectD0Ev
	_ZN15QGraphicsEffectD1Ev
	_ZN15QGraphicsEffectD2Ev
	_ZN15QGraphicsLayout10invalidateEv
	_ZN15QGraphicsLayout11widgetEventEP6QEvent
	_ZN15QGraphicsLayout14updateGeometryEv
	_ZN15QGraphicsLayout18addChildLayoutItemEP19QGraphicsLayoutItem
	_ZN15QGraphicsLayout18setContentsMarginsEdddd
	_ZN15QGraphicsLayout28instantInvalidatePropagationEv
	_ZN15QGraphicsLayout31setInstantInvalidatePropagationEb
	_ZN15QGraphicsLayout8activateEv
	_ZN15QGraphicsLayoutC1EP19QGraphicsLayoutItem
	_ZN15QGraphicsLayoutC1ER22QGraphicsLayoutPrivateP19QGraphicsLayoutItem
	_ZN15QGraphicsLayoutC2EP19QGraphicsLayoutItem
	_ZN15QGraphicsLayoutC2ER22QGraphicsLayoutPrivateP19QGraphicsLayoutItem
	_ZN15QGraphicsLayoutD0Ev
	_ZN15QGraphicsLayoutD1Ev
	_ZN15QGraphicsLayoutD2Ev
	_ZN15QGraphicsObject11grabGestureEN2Qt11GestureTypeE6QFlagsINS0_11GestureFlagEE
	_ZN15QGraphicsObject11qt_metacallEN11QMetaObject4CallEiPPv
	_ZN15QGraphicsObject11qt_metacastEPKc
	_ZN15QGraphicsObject12scaleChangedEv
	_ZN15QGraphicsObject12widthChangedEv
	_ZN15QGraphicsObject13heightChangedEv
	_ZN15QGraphicsObject13parentChangedEv
	_ZN15QGraphicsObject13ungrabGestureEN2Qt11GestureTypeE
	_ZN15QGraphicsObject14enabledChangedEv
	_ZN15QGraphicsObject14opacityChangedEv
	_ZN15QGraphicsObject14visibleChangedEv
	_ZN15QGraphicsObject15childrenChangedEv
	_ZN15QGraphicsObject15rotationChangedEv
	_ZN15QGraphicsObject16staticMetaObjectE
	_ZN15QGraphicsObject16updateMicroFocusEv
	_ZN15QGraphicsObject18qt_static_metacallEP7QObjectN11QMetaObject4CallEiPPv
	_ZN15QGraphicsObject5eventEP6QEvent
	_ZN15QGraphicsObject8xChangedEv
	_ZN15QGraphicsObject8yChangedEv
	_ZN15QGraphicsObject8zChangedEv
	_ZN15QGraphicsObjectC1EP13QGraphicsItem
	_ZN15QGraphicsObjectC1ER20QGraphicsItemPrivateP13QGraphicsItem
	_ZN15QGraphicsObjectC2EP13QGraphicsItem
	_ZN15QGraphicsObjectC2ER20QGraphicsItemPrivateP13QGraphicsItem
	_ZN15QGraphicsObjectD0Ev
	_ZN15QGraphicsObjectD1Ev
	_ZN15QGraphicsObjectD2Ev
	_ZN15QGraphicsWidget10addActionsE5QListIP7QActionE
	_ZN15QGraphicsWidget10adjustSizeEv
	_ZN15QGraphicsWidget10closeEventEP11QCloseEvent
	_ZN15QGraphicsWidget10itemChangeEN13QGraphicsItem18GraphicsItemChangeERK8QVariant
	_ZN15QGraphicsWidget10sceneEventEP6QEvent
	_ZN15QGraphicsWidget10setPaletteERK8QPalette
	_ZN15QGraphicsWidget11changeEventEP6QEvent
	_ZN15QGraphicsWidget11polishEventEv
	_ZN15QGraphicsWidget11qt_metacallEN11QMetaObject4CallEiPPv
	_ZN15QGraphicsWidget11qt_metacastEPKc
	_ZN15QGraphicsWidget11resizeEventEP25QGraphicsSceneResizeEvent
	_ZN15QGraphicsWidget11setGeometryERK6QRectF
	_ZN15QGraphicsWidget11setTabOrderEPS_S0_
	_ZN15QGraphicsWidget12focusInEventEP11QFocusEvent
	_ZN15QGraphicsWidget12grabShortcutERK12QKeySequenceN2Qt15ShortcutContextE
	_ZN15QGraphicsWidget12insertActionEP7QActionS1_
	_ZN15QGraphicsWidget12removeActionEP7QAction
	_ZN15QGraphicsWidget12setAttributeEN2Qt15WidgetAttributeEb
	_ZN15QGraphicsWidget13focusOutEventEP11QFocusEvent
	_ZN15QGraphicsWidget13insertActionsEP7QAction5QListIS1_E
	_ZN15QGraphicsWidget13layoutChangedEv
	_ZN15QGraphicsWidget14grabMouseEventEP6QEvent
	_ZN15QGraphicsWidget14hoverMoveEventEP24QGraphicsSceneHoverEvent
	_ZN15QGraphicsWidget14propertyChangeERK7QStringRK8QVariant
	_ZN15QGraphicsWidget14setFocusPolicyEN2Qt11FocusPolicyE
	_ZN15QGraphicsWidget14setWindowFlagsE6QFlagsIN2Qt10WindowTypeEE
	_ZN15QGraphicsWidget14setWindowTitleERK7QString
	_ZN15QGraphicsWidget14updateGeometryEv
	_ZN15QGraphicsWidget15geometryChangedEv
	_ZN15QGraphicsWidget15hoverLeaveEventEP24QGraphicsSceneHoverEvent
	_ZN15QGraphicsWidget15releaseShortcutEi
	_ZN15QGraphicsWidget16paintWindowFrameEP8QPainterPK24QStyleOptionGraphicsItemP7QWidget
	_ZN15QGraphicsWidget16staticMetaObjectE
	_ZN15QGraphicsWidget16ungrabMouseEventEP6QEvent
	_ZN15QGraphicsWidget16windowFrameEventEP6QEvent
	_ZN15QGraphicsWidget17grabKeyboardEventEP6QEvent
	_ZN15QGraphicsWidget18focusNextPrevChildEb
	_ZN15QGraphicsWidget18qt_static_metacallEP7QObjectN11QMetaObject4CallEiPPv
	_ZN15QGraphicsWidget18setContentsMarginsEdddd
	_ZN15QGraphicsWidget18setLayoutDirectionEN2Qt15LayoutDirectionE
	_ZN15QGraphicsWidget18setShortcutEnabledEib
	_ZN15QGraphicsWidget19ungrabKeyboardEventEP6QEvent
	_ZN15QGraphicsWidget20unsetLayoutDirectionEv
	_ZN15QGraphicsWidget21setAutoFillBackgroundEb
	_ZN15QGraphicsWidget21setShortcutAutoRepeatEib
	_ZN15QGraphicsWidget21setWindowFrameMarginsEdddd
	_ZN15QGraphicsWidget23unsetWindowFrameMarginsEv
	_ZN15QGraphicsWidget5closeEv
	_ZN15QGraphicsWidget5eventEP6QEvent
	_ZN15QGraphicsWidget5paintEP8QPainterPK24QStyleOptionGraphicsItemP7QWidget
	_ZN15QGraphicsWidget6resizeERK6QSizeF
	_ZN15QGraphicsWidget7setFontERK5QFont
	_ZN15QGraphicsWidget8setStyleEP6QStyle
	_ZN15QGraphicsWidget9addActionEP7QAction
	_ZN15QGraphicsWidget9hideEventEP10QHideEvent
	_ZN15QGraphicsWidget9moveEventEP23QGraphicsSceneMoveEvent
	_ZN15QGraphicsWidget9setLayoutEP15QGraphicsLayout
	_ZN15QGraphicsWidget9showEventEP10QShowEvent
	_ZN15QGraphicsWidgetC1EP13QGraphicsItem6QFlagsIN2Qt10WindowTypeEE
	_ZN15QGraphicsWidgetC1ER22QGraphicsWidgetPrivateP13QGraphicsItem6QFlagsIN2Qt10WindowTypeEE
	_ZN15QGraphicsWidgetC2EP13QGraphicsItem6QFlagsIN2Qt10WindowTypeEE
	_ZN15QGraphicsWidgetC2ER22QGraphicsWidgetPrivateP13QGraphicsItem6QFlagsIN2Qt10WindowTypeEE
	_ZN15QGraphicsWidgetD0Ev
	_ZN15QGraphicsWidgetD1Ev
	_ZN15QGraphicsWidgetD2Ev
	_ZN15QListWidgetItem18setBackgroundColorERK6QColor
	_ZN15QListWidgetItem4readER11QDataStream
	_ZN15QListWidgetItem7setDataEiRK8QVariant
	_ZN15QListWidgetItem8setFlagsE6QFlagsIN2Qt8ItemFlagEE
	_ZN15QListWidgetItemC1EP11QListWidgeti
	_ZN15QListWidgetItemC1ERK5QIconRK7QStringP11QListWidgeti
	_ZN15QListWidgetItemC1ERK7QStringP11QListWidgeti
	_ZN15QListWidgetItemC1ERKS_
	_ZN15QListWidgetItemC2EP11QListWidgeti
	_ZN15QListWidgetItemC2ERK5QIconRK7QStringP11QListWidgeti
	_ZN15QListWidgetItemC2ERK7QStringP11QListWidgeti
	_ZN15QListWidgetItemC2ERKS_
	_ZN15QListWidgetItemD0Ev
	_ZN15QListWidgetItemD1Ev
	_ZN15QListWidgetItemD2Ev
	_ZN15QListWidgetItemaSERKS_
	_ZN15QProgressDialog10closeEventEP11QCloseEvent
	_ZN15QProgressDialog10setMaximumEi
	_ZN15QProgressDialog10setMinimumEi
	_ZN15QProgressDialog11changeEventEP6QEvent
	_ZN15QProgressDialog11qt_metacallEN11QMetaObject4CallEiPPv
	_ZN15QProgressDialog11qt_metacastEPKc
	_ZN15QProgressDialog11resizeEventEP12QResizeEvent
	_ZN15QProgressDialog12setAutoCloseEb
	_ZN15QProgressDialog12setAutoResetEb
	_ZN15QProgressDialog12setLabelTextERK7QString
	_ZN15QProgressDialog15setCancelButtonEP11QPushButton
	_ZN15QProgressDialog16staticMetaObjectE
	_ZN15QProgressDialog18qt_static_metacallEP7QObjectN11QMetaObject4CallEiPPv
	_ZN15QProgressDialog18setMinimumDurationEi
	_ZN15QProgressDialog19setCancelButtonTextERK7QString
	_ZN15QProgressDialog4openEP7QObjectPKc
	_ZN15QProgressDialog5resetEv
	_ZN15QProgressDialog6cancelEv
	_ZN15QProgressDialog6setBarEP12QProgressBar
	_ZN15QProgressDialog8canceledEv
	_ZN15QProgressDialog8setLabelEP6QLabel
	_ZN15QProgressDialog8setRangeEii
	_ZN15QProgressDialog8setValueEi
	_ZN15QProgressDialog9forceShowEv
	_ZN15QProgressDialog9showEventEP10QShowEvent
	_ZN15QProgressDialogC1EP7QWidget6QFlagsIN2Qt10WindowTypeEE
	_ZN15QProgressDialogC1ERK7QStringS2_iiP7QWidget6QFlagsIN2Qt10WindowTypeEE
	_ZN15QProgressDialogC2EP7QWidget6QFlagsIN2Qt10WindowTypeEE
	_ZN15QProgressDialogC2ERK7QStringS2_iiP7QWidget6QFlagsIN2Qt10WindowTypeEE
	_ZN15QProgressDialogD0Ev
	_ZN15QProgressDialogD1Ev
	_ZN15QProgressDialogD2Ev
	_ZN15QSplitterHandle10paintEventEP11QPaintEvent
	_ZN15QSplitterHandle11qt_metacallEN11QMetaObject4CallEiPPv
	_ZN15QSplitterHandle11qt_metacastEPKc
	_ZN15QSplitterHandle11resizeEventEP12QResizeEvent
	_ZN15QSplitterHandle12moveSplitterEi
	_ZN15QSplitterHandle14mouseMoveEventEP11QMouseEvent
	_ZN15QSplitterHandle14setOrientationEN2Qt11OrientationE
	_ZN15QSplitterHandle15mousePressEventEP11QMouseEvent
	_ZN15QSplitterHandle16staticMetaObjectE
	_ZN15QSplitterHandle17mouseReleaseEventEP11QMouseEvent
	_ZN15QSplitterHandle18qt_static_metacallEP7QObjectN11QMetaObject4CallEiPPv
	_ZN15QSplitterHandle20closestLegalPositionEi
	_ZN15QSplitterHandle5eventEP6QEvent
	_ZN15QSplitterHandleC1EN2Qt11OrientationEP9QSplitter
	_ZN15QSplitterHandleC2EN2Qt11OrientationEP9QSplitter
	_ZN15QSplitterHandleD0Ev
	_ZN15QSplitterHandleD1Ev
	_ZN15QSplitterHandleD2Ev
	_ZN15QStyleOptionTabC1Ei
	_ZN15QStyleOptionTabC1Ev
	_ZN15QStyleOptionTabC2Ei
	_ZN15QStyleOptionTabC2Ev
	_ZN15QSystemTrayIcon10setToolTipERK7QString
	_ZN15QSystemTrayIcon10setVisibleEb
	_ZN15QSystemTrayIcon11qt_metacallEN11QMetaObject4CallEiPPv
	_ZN15QSystemTrayIcon11qt_metacastEPKc
	_ZN15QSystemTrayIcon11showMessageERK7QStringS2_NS_11MessageIconEi
	_ZN15QSystemTrayIcon14messageClickedEv
	_ZN15QSystemTrayIcon14setContextMenuEP5QMenu
	_ZN15QSystemTrayIcon16staticMetaObjectE
	_ZN15QSystemTrayIcon16supportsMessagesEv
	_ZN15QSystemTrayIcon18qt_static_metacallEP7QObjectN11QMetaObject4CallEiPPv
	_ZN15QSystemTrayIcon21isSystemTrayAvailableEv
	_ZN15QSystemTrayIcon5eventEP6QEvent
	_ZN15QSystemTrayIcon7setIconERK5QIcon
	_ZN15QSystemTrayIcon9activatedENS_16ActivationReasonE
	_ZN15QSystemTrayIconC1EP7QObject
	_ZN15QSystemTrayIconC1ERK5QIconP7QObject
	_ZN15QSystemTrayIconC2EP7QObject
	_ZN15QSystemTrayIconC2ERK5QIconP7QObject
	_ZN15QSystemTrayIconD0Ev
	_ZN15QSystemTrayIconD1Ev
	_ZN15QSystemTrayIconD2Ev
	_ZN15QTreeWidgetItem11addChildrenERK5QListIPS_E
	_ZN15QTreeWidgetItem11insertChildEiPS_
	_ZN15QTreeWidgetItem11itemChangedEv
	_ZN15QTreeWidgetItem11removeChildEPS_
	_ZN15QTreeWidgetItem12sortChildrenEiN2Qt9SortOrderEb
	_ZN15QTreeWidgetItem12takeChildrenEv
	_ZN15QTreeWidgetItem14insertChildrenEiRK5QListIPS_E
	_ZN15QTreeWidgetItem15emitDataChangedEv
	_ZN15QTreeWidgetItem23setChildIndicatorPolicyENS_20ChildIndicatorPolicyE
	_ZN15QTreeWidgetItem4readER11QDataStream
	_ZN15QTreeWidgetItem7setDataEiiRK8QVariant
	_ZN15QTreeWidgetItem8addChildEPS_
	_ZN15QTreeWidgetItem8setFlagsE6QFlagsIN2Qt8ItemFlagEE
	_ZN15QTreeWidgetItem9takeChildEi
	_ZN15QTreeWidgetItemC1EP11QTreeWidgetPS_i
	_ZN15QTreeWidgetItemC1EP11QTreeWidgetRK11QStringListi
	_ZN15QTreeWidgetItemC1EP11QTreeWidgeti
	_ZN15QTreeWidgetItemC1EPS_RK11QStringListi
	_ZN15QTreeWidgetItemC1EPS_S0_i
	_ZN15QTreeWidgetItemC1EPS_i
	_ZN15QTreeWidgetItemC1ERK11QStringListi
	_ZN15QTreeWidgetItemC1ERKS_
	_ZN15QTreeWidgetItemC1Ei
	_ZN15QTreeWidgetItemC2EP11QTreeWidgetPS_i
	_ZN15QTreeWidgetItemC2EP11QTreeWidgetRK11QStringListi
	_ZN15QTreeWidgetItemC2EP11QTreeWidgeti
	_ZN15QTreeWidgetItemC2EPS_RK11QStringListi
	_ZN15QTreeWidgetItemC2EPS_S0_i
	_ZN15QTreeWidgetItemC2EPS_i
	_ZN15QTreeWidgetItemC2ERK11QStringListi
	_ZN15QTreeWidgetItemC2ERKS_
	_ZN15QTreeWidgetItemC2Ei
	_ZN15QTreeWidgetItemD0Ev
	_ZN15QTreeWidgetItemD1Ev
	_ZN15QTreeWidgetItemD2Ev
	_ZN15QTreeWidgetItemaSERKS_
	_ZN16QAbstractSpinBox10closeEventEP11QCloseEvent
	_ZN16QAbstractSpinBox10paintEventEP11QPaintEvent
	_ZN16QAbstractSpinBox10timerEventEP11QTimerEvent
	_ZN16QAbstractSpinBox10wheelEventEP11QWheelEvent
	_ZN16QAbstractSpinBox11changeEventEP6QEvent
	_ZN16QAbstractSpinBox11qt_metacallEN11QMetaObject4CallEiPPv
	_ZN16QAbstractSpinBox11qt_metacastEPKc
	_ZN16QAbstractSpinBox11resizeEventEP12QResizeEvent
	_ZN16QAbstractSpinBox11setLineEditEP9QLineEdit
	_ZN16QAbstractSpinBox11setReadOnlyEb
	_ZN16QAbstractSpinBox11setWrappingEb
	_ZN16QAbstractSpinBox12focusInEventEP11QFocusEvent
	_ZN16QAbstractSpinBox12setAlignmentE6QFlagsIN2Qt13AlignmentFlagEE
	_ZN16QAbstractSpinBox13focusOutEventEP11QFocusEvent
	_ZN16QAbstractSpinBox13interpretTextEv
	_ZN16QAbstractSpinBox13keyPressEventEP9QKeyEvent
	_ZN16QAbstractSpinBox14mouseMoveEventEP11QMouseEvent
	_ZN16QAbstractSpinBox14setAcceleratedEb
	_ZN16QAbstractSpinBox15editingFinishedEv
	_ZN16QAbstractSpinBox15keyReleaseEventEP9QKeyEvent
	_ZN16QAbstractSpinBox15mousePressEventEP11QMouseEvent
	_ZN16QAbstractSpinBox16contextMenuEventEP17QContextMenuEvent
	_ZN16QAbstractSpinBox16setButtonSymbolsENS_13ButtonSymbolsE
	_ZN16QAbstractSpinBox16staticMetaObjectE
	_ZN16QAbstractSpinBox17mouseReleaseEventEP11QMouseEvent
	_ZN16QAbstractSpinBox17setCorrectionModeENS_14CorrectionModeE
	_ZN16QAbstractSpinBox18qt_static_metacallEP7QObjectN11QMetaObject4CallEiPPv
	_ZN16QAbstractSpinBox19setKeyboardTrackingEb
	_ZN16QAbstractSpinBox19setSpecialValueTextERK7QString
	_ZN16QAbstractSpinBox22setGroupSeparatorShownEb
	_ZN16QAbstractSpinBox5clearEv
	_ZN16QAbstractSpinBox5eventEP6QEvent
	_ZN16QAbstractSpinBox6stepByEi
	_ZN16QAbstractSpinBox6stepUpEv
	_ZN16QAbstractSpinBox8setFrameEb
	_ZN16QAbstractSpinBox8stepDownEv
	_ZN16QAbstractSpinBox9hideEventEP10QHideEvent
	_ZN16QAbstractSpinBox9selectAllEv
	_ZN16QAbstractSpinBox9showEventEP10QShowEvent
	_ZN16QAbstractSpinBoxC1EP7QWidget
	_ZN16QAbstractSpinBoxC1ER23QAbstractSpinBoxPrivateP7QWidget
	_ZN16QAbstractSpinBoxC2EP7QWidget
	_ZN16QAbstractSpinBoxC2ER23QAbstractSpinBoxPrivateP7QWidget
	_ZN16QAbstractSpinBoxD0Ev
	_ZN16QAbstractSpinBoxD1Ev
	_ZN16QAbstractSpinBoxD2Ev
	_ZN16QDialogButtonBox11changeEventEP6QEvent
	_ZN16QDialogButtonBox11qt_metacallEN11QMetaObject4CallEiPPv
	_ZN16QDialogButtonBox11qt_metacastEPKc
	_ZN16QDialogButtonBox12removeButtonEP15QAbstractButton
	_ZN16QDialogButtonBox13helpRequestedEv
	_ZN16QDialogButtonBox14setOrientationEN2Qt11OrientationE
	_ZN16QDialogButtonBox16setCenterButtonsEb
	_ZN16QDialogButtonBox16staticMetaObjectE
	_ZN16QDialogButtonBox18qt_static_metacallEP7QObjectN11QMetaObject4CallEiPPv
	_ZN16QDialogButtonBox18setStandardButtonsE6QFlagsINS_14StandardButtonEE
	_ZN16QDialogButtonBox5clearEv
	_ZN16QDialogButtonBox5eventEP6QEvent
	_ZN16QDialogButtonBox7clickedEP15QAbstractButton
	_ZN16QDialogButtonBox8acceptedEv
	_ZN16QDialogButtonBox8rejectedEv
	_ZN16QDialogButtonBox9addButtonENS_14StandardButtonE
	_ZN16QDialogButtonBox9addButtonEP15QAbstractButtonNS_10ButtonRoleE
	_ZN16QDialogButtonBox9addButtonERK7QStringNS_10ButtonRoleE
	_ZN16QDialogButtonBoxC1E6QFlagsINS_14StandardButtonEEN2Qt11OrientationEP7QWidget
	_ZN16QDialogButtonBoxC1E6QFlagsINS_14StandardButtonEEP7QWidget
	_ZN16QDialogButtonBoxC1EN2Qt11OrientationEP7QWidget
	_ZN16QDialogButtonBoxC1EP7QWidget
	_ZN16QDialogButtonBoxC2E6QFlagsINS_14StandardButtonEEN2Qt11OrientationEP7QWidget
	_ZN16QDialogButtonBoxC2E6QFlagsINS_14StandardButtonEEP7QWidget
	_ZN16QDialogButtonBoxC2EN2Qt11OrientationEP7QWidget
	_ZN16QDialogButtonBoxC2EP7QWidget
	_ZN16QDialogButtonBoxD0Ev
	_ZN16QDialogButtonBoxD1Ev
	_ZN16QDialogButtonBoxD2Ev
	_ZN16QFileSystemModel10timerEventEP11QTimerEvent
	_ZN16QFileSystemModel11fileRenamedERK7QStringS2_S2_
	_ZN16QFileSystemModel11qt_metacallEN11QMetaObject4CallEiPPv
	_ZN16QFileSystemModel11qt_metacastEPKc
	_ZN16QFileSystemModel11setReadOnlyEb
	_ZN16QFileSystemModel11setRootPathERK7QString
	_ZN16QFileSystemModel12dropMimeDataEPK9QMimeDataN2Qt10DropActionEiiRK11QModelIndex
	_ZN16QFileSystemModel14setNameFiltersERK11QStringList
	_ZN16QFileSystemModel15directoryLoadedERK7QString
	_ZN16QFileSystemModel15rootPathChangedERK7QString
	_ZN16QFileSystemModel15setIconProviderEP17QFileIconProvider
	_ZN16QFileSystemModel16staticMetaObjectE
	_ZN16QFileSystemModel18qt_static_metacallEP7QObjectN11QMetaObject4CallEiPPv
	_ZN16QFileSystemModel18setResolveSymlinksEb
	_ZN16QFileSystemModel21setNameFilterDisablesEb
	_ZN16QFileSystemModel4sortEiN2Qt9SortOrderE
	_ZN16QFileSystemModel5eventEP6QEvent
	_ZN16QFileSystemModel5mkdirERK11QModelIndexRK7QString
	_ZN16QFileSystemModel5rmdirERK11QModelIndex
	_ZN16QFileSystemModel6removeERK11QModelIndex
	_ZN16QFileSystemModel7setDataERK11QModelIndexRK8QVarianti
	_ZN16QFileSystemModel9fetchMoreERK11QModelIndex
	_ZN16QFileSystemModel9setFilterE6QFlagsIN4QDir6FilterEE
	_ZN16QFileSystemModelC1EP7QObject
	_ZN16QFileSystemModelC1ER23QFileSystemModelPrivateP7QObject
	_ZN16QFileSystemModelC2EP7QObject
	_ZN16QFileSystemModelC2ER23QFileSystemModelPrivateP7QObject
	_ZN16QFileSystemModelD0Ev
	_ZN16QFileSystemModelD1Ev
	_ZN16QFileSystemModelD2Ev
	_ZN16QKeySequenceEdit10timerEventEP11QTimerEvent
	_ZN16QKeySequenceEdit11qt_metacallEN11QMetaObject4CallEiPPv
	_ZN16QKeySequenceEdit11qt_metacastEPKc
	_ZN16QKeySequenceEdit13keyPressEventEP9QKeyEvent
	_ZN16QKeySequenceEdit14setKeySequenceERK12QKeySequence
	_ZN16QKeySequenceEdit15editingFinishedEv
	_ZN16QKeySequenceEdit15keyReleaseEventEP9QKeyEvent
	_ZN16QKeySequenceEdit16staticMetaObjectE
	_ZN16QKeySequenceEdit18keySequenceChangedERK12QKeySequence
	_ZN16QKeySequenceEdit18qt_static_metacallEP7QObjectN11QMetaObject4CallEiPPv
	_ZN16QKeySequenceEdit5clearEv
	_ZN16QKeySequenceEdit5eventEP6QEvent
	_ZN16QKeySequenceEditC1EP7QWidget
	_ZN16QKeySequenceEditC1ER23QKeySequenceEditPrivateP7QWidget6QFlagsIN2Qt10WindowTypeEE
	_ZN16QKeySequenceEditC1ERK12QKeySequenceP7QWidget
	_ZN16QKeySequenceEditC2EP7QWidget
	_ZN16QKeySequenceEditC2ER23QKeySequenceEditPrivateP7QWidget6QFlagsIN2Qt10WindowTypeEE
	_ZN16QKeySequenceEditC2ERK12QKeySequenceP7QWidget
	_ZN16QKeySequenceEditD0Ev
	_ZN16QKeySequenceEditD1Ev
	_ZN16QKeySequenceEditD2Ev
	_ZN16QStyleHintReturnC1Eii
	_ZN16QStyleHintReturnC2Eii
	_ZN16QStyleHintReturnD1Ev
	_ZN16QStyleHintReturnD2Ev
	_ZN16QTableWidgetItem4readER11QDataStream
	_ZN16QTableWidgetItem7setDataEiRK8QVariant
	_ZN16QTableWidgetItem8setFlagsE6QFlagsIN2Qt8ItemFlagEE
	_ZN16QTableWidgetItemC1ERK5QIconRK7QStringi
	_ZN16QTableWidgetItemC1ERK7QStringi
	_ZN16QTableWidgetItemC1ERKS_
	_ZN16QTableWidgetItemC1Ei
	_ZN16QTableWidgetItemC2ERK5QIconRK7QStringi
	_ZN16QTableWidgetItemC2ERK7QStringi
	_ZN16QTableWidgetItemC2ERKS_
	_ZN16QTableWidgetItemC2Ei
	_ZN16QTableWidgetItemD0Ev
	_ZN16QTableWidgetItemD1Ev
	_ZN16QTableWidgetItemD2Ev
	_ZN16QTableWidgetItemaSERKS_
	_ZN16QTreeViewPrivate10initializeEv
	_ZN16QTreeViewPrivate15insertViewItemsEiiRK13QTreeViewItem
	_ZN16QTreeViewPrivate15removeViewItemsEii
	_ZN16QTreeViewPrivate16updateScrollBarsEv
	_ZN16QTreeViewPrivate17_q_columnsRemovedERK11QModelIndexii
	_ZN16QTreeViewPrivate17_q_modelDestroyedEv
	_ZN16QTreeViewPrivate22_q_modelAboutToBeResetEv
	_ZN16QTreeViewPrivate22beginAnimatedOperationEv
	_ZN16QTreeViewPrivate23_q_endAnimatedOperationEv
	_ZN16QTreeViewPrivate23_q_sortIndicatorChangedEiN2Qt9SortOrderE
	_ZN16QTreeViewPrivate24prepareAnimatedOperationEiN18QAbstractAnimation9DirectionE
	_ZN16QTreeViewPrivate25expandOrCollapseItemAtPosERK6QPoint
	_ZN16QTreeViewPrivate26_q_columnsAboutToBeRemovedERK11QModelIndexii
	_ZN16QTreeViewPrivate6expandEib
	_ZN16QTreeViewPrivate6layoutEibb
	_ZN16QTreeViewPrivate6selectERK11QModelIndexS2_6QFlagsIN19QItemSelectionModel13SelectionFlagEE
	_ZN16QTreeViewPrivate8collapseEib
	_ZN16QTreeViewPrivateD0Ev
	_ZN16QTreeViewPrivateD1Ev
	_ZN16QWindowContainer11qt_metacallEN11QMetaObject4CallEiPPv
	_ZN16QWindowContainer11qt_metacastEPKc
	_ZN16QWindowContainer14parentWasMovedEP7QWidget
	_ZN16QWindowContainer15parentWasRaisedEP7QWidget
	_ZN16QWindowContainer16parentWasChangedEP7QWidget
	_ZN16QWindowContainer16parentWasLoweredEP7QWidget
	_ZN16QWindowContainer16staticMetaObjectE
	_ZN16QWindowContainer18focusWindowChangedEP7QWindow
	_ZN16QWindowContainer18qt_static_metacallEP7QObjectN11QMetaObject4CallEiPPv
	_ZN16QWindowContainer26toplevelAboutToBeDestroyedEP7QWidget
	_ZN16QWindowContainer5eventEP6QEvent
	_ZN16QWindowContainerC1EP7QWindowP7QWidget6QFlagsIN2Qt10WindowTypeEE
	_ZN16QWindowContainerC2EP7QWindowP7QWidget6QFlagsIN2Qt10WindowTypeEE
	_ZN16QWindowContainerD0Ev
	_ZN16QWindowContainerD1Ev
	_ZN16QWindowContainerD2Ev
	_ZN17QAbstractItemView10commitDataEP7QWidget
	_ZN17QAbstractItemView10timerEventEP11QTimerEvent
	_ZN17QAbstractItemView11closeEditorEP7QWidgetN21QAbstractItemDelegate11EndEditHintE
	_ZN17QAbstractItemView11dataChangedERK11QModelIndexS2_RK7QVectorIiE
	_ZN17QAbstractItemView11qt_metacallEN11QMetaObject4CallEiPPv
	_ZN17QAbstractItemView11qt_metacastEPKc
	_ZN17QAbstractItemView11resizeEventEP12QResizeEvent
	_ZN17QAbstractItemView11scrollToTopEv
	_ZN17QAbstractItemView11setIconSizeERK5QSize
	_ZN17QAbstractItemView12doAutoScrollEv
	_ZN17QAbstractItemView12focusInEventEP11QFocusEvent
	_ZN17QAbstractItemView12rowsInsertedERK11QModelIndexii
	_ZN17QAbstractItemView12setRootIndexERK11QModelIndex
	_ZN17QAbstractItemView13doItemsLayoutEv
	_ZN17QAbstractItemView13doubleClickedERK11QModelIndex
	_ZN17QAbstractItemView13dragMoveEventEP14QDragMoveEvent
	_ZN17QAbstractItemView13focusOutEventEP11QFocusEvent
	_ZN17QAbstractItemView13keyPressEventEP9QKeyEvent
	_ZN17QAbstractItemView13setAutoScrollEb
	_ZN17QAbstractItemView13viewportEventEP6QEvent
	_ZN17QAbstractItemView14clearSelectionEv
	_ZN17QAbstractItemView14currentChangedERK11QModelIndexS2_
	_ZN17QAbstractItemView14dragEnterEventEP15QDragEnterEvent
	_ZN17QAbstractItemView14dragLeaveEventEP15QDragLeaveEvent
	_ZN17QAbstractItemView14keyboardSearchERK7QString
	_ZN17QAbstractItemView14mouseMoveEventEP11QMouseEvent
	_ZN17QAbstractItemView14scrollToBottomEv
	_ZN17QAbstractItemView14setDirtyRegionERK7QRegion
	_ZN17QAbstractItemView14setDragEnabledEb
	_ZN17QAbstractItemView14setIndexWidgetERK11QModelIndexP7QWidget
	_ZN17QAbstractItemView14stopAutoScrollEv
	_ZN17QAbstractItemView15editorDestroyedEP7QObject
	_ZN17QAbstractItemView15mousePressEventEP11QMouseEvent
	_ZN17QAbstractItemView15setCurrentIndexERK11QModelIndex
	_ZN17QAbstractItemView15setDragDropModeENS_12DragDropModeE
	_ZN17QAbstractItemView15setEditTriggersE6QFlagsINS_11EditTriggerEE
	_ZN17QAbstractItemView15setItemDelegateEP21QAbstractItemDelegate
	_ZN17QAbstractItemView15startAutoScrollEv
	_ZN17QAbstractItemView15viewportEnteredEv
	_ZN17QAbstractItemView16inputMethodEventEP17QInputMethodEvent
	_ZN17QAbstractItemView16selectionChangedERK14QItemSelectionS2_
	_ZN17QAbstractItemView16setSelectionModeENS_13SelectionModeE
	_ZN17QAbstractItemView16setTextElideModeEN2Qt13TextElideModeE
	_ZN17QAbstractItemView16staticMetaObjectE
	_ZN17QAbstractItemView16updateEditorDataEv
	_ZN17QAbstractItemView16updateGeometriesEv
	_ZN17QAbstractItemView17mouseReleaseEventEP11QMouseEvent
	_ZN17QAbstractItemView17scrollDirtyRegionEii
	_ZN17QAbstractItemView17setSelectionModelEP19QItemSelectionModel
	_ZN17QAbstractItemView18focusNextPrevChildEb
	_ZN17QAbstractItemView18qt_static_metacallEP7QObjectN11QMetaObject4CallEiPPv
	_ZN17QAbstractItemView19setAutoScrollMarginEi
	_ZN17QAbstractItemView19setTabKeyNavigationEb
	_ZN17QAbstractItemView20openPersistentEditorERK11QModelIndex
	_ZN17QAbstractItemView20rowsAboutToBeRemovedERK11QModelIndexii
	_ZN17QAbstractItemView20setDefaultDropActionEN2Qt10DropActionE
	_ZN17QAbstractItemView20setSelectionBehaviorENS_17SelectionBehaviorE
	_ZN17QAbstractItemView21closePersistentEditorERK11QModelIndex
	_ZN17QAbstractItemView21mouseDoubleClickEventEP11QMouseEvent
	_ZN17QAbstractItemView21setDropIndicatorShownEb
	_ZN17QAbstractItemView21setItemDelegateForRowEiP21QAbstractItemDelegate
	_ZN17QAbstractItemView21setVerticalScrollModeENS_10ScrollModeE
	_ZN17QAbstractItemView22updateEditorGeometriesEv
	_ZN17QAbstractItemView23setAlternatingRowColorsEb
	_ZN17QAbstractItemView23setHorizontalScrollModeENS_10ScrollModeE
	_ZN17QAbstractItemView23setVerticalStepsPerItemEi
	_ZN17QAbstractItemView23verticalScrollbarActionEi
	_ZN17QAbstractItemView24setDragDropOverwriteModeEb
	_ZN17QAbstractItemView24setItemDelegateForColumnEiP21QAbstractItemDelegate
	_ZN17QAbstractItemView25executeDelayedItemsLayoutEv
	_ZN17QAbstractItemView25horizontalScrollbarActionEi
	_ZN17QAbstractItemView25setHorizontalStepsPerItemEi
	_ZN17QAbstractItemView26scheduleDelayedItemsLayoutEv
	_ZN17QAbstractItemView29verticalScrollbarValueChangedEi
	_ZN17QAbstractItemView31horizontalScrollbarValueChangedEi
	_ZN17QAbstractItemView4editERK11QModelIndex
	_ZN17QAbstractItemView4editERK11QModelIndexNS_11EditTriggerEP6QEvent
	_ZN17QAbstractItemView5eventEP6QEvent
	_ZN17QAbstractItemView5resetEv
	_ZN17QAbstractItemView6updateERK11QModelIndex
	_ZN17QAbstractItemView7clickedERK11QModelIndex
	_ZN17QAbstractItemView7enteredERK11QModelIndex
	_ZN17QAbstractItemView7pressedERK11QModelIndex
	_ZN17QAbstractItemView8setModelEP18QAbstractItemModel
	_ZN17QAbstractItemView8setStateENS_5StateE
	_ZN17QAbstractItemView9activatedERK11QModelIndex
	_ZN17QAbstractItemView9dropEventEP10QDropEvent
	_ZN17QAbstractItemView9selectAllEv
	_ZN17QAbstractItemView9startDragE6QFlagsIN2Qt10DropActionEE
	_ZN17QAbstractItemViewC1EP7QWidget
	_ZN17QAbstractItemViewC1ER24QAbstractItemViewPrivateP7QWidget
	_ZN17QAbstractItemViewC2EP7QWidget
	_ZN17QAbstractItemViewC2ER24QAbstractItemViewPrivateP7QWidget
	_ZN17QAbstractItemViewD0Ev
	_ZN17QAbstractItemViewD1Ev
	_ZN17QAbstractItemViewD2Ev
	_ZN17QAccessibleWidget14interface_castEN11QAccessible13InterfaceTypeE
	_ZN17QAccessibleWidget20addControllingSignalERK7QString
	_ZN17QAccessibleWidget8doActionERK7QString
	_ZN17QAccessibleWidgetC1EP7QWidgetN11QAccessible4RoleERK7QString
	_ZN17QAccessibleWidgetC2EP7QWidgetN11QAccessible4RoleERK7QString
	_ZN17QAccessibleWidgetD0Ev
	_ZN17QAccessibleWidgetD1Ev
	_ZN17QAccessibleWidgetD2Ev
	_ZN17QDataWidgetMapper10addMappingEP7QWidgeti
	_ZN17QDataWidgetMapper10addMappingEP7QWidgetiRK10QByteArray
	_ZN17QDataWidgetMapper10toPreviousEv
	_ZN17QDataWidgetMapper11qt_metacallEN11QMetaObject4CallEiPPv
	_ZN17QDataWidgetMapper11qt_metacastEPKc
	_ZN17QDataWidgetMapper12clearMappingEv
	_ZN17QDataWidgetMapper12setRootIndexERK11QModelIndex
	_ZN17QDataWidgetMapper13removeMappingEP7QWidget
	_ZN17QDataWidgetMapper14setOrientationEN2Qt11OrientationE
	_ZN17QDataWidgetMapper15setCurrentIndexEi
	_ZN17QDataWidgetMapper15setItemDelegateEP21QAbstractItemDelegate
	_ZN17QDataWidgetMapper15setSubmitPolicyENS_12SubmitPolicyE
	_ZN17QDataWidgetMapper16staticMetaObjectE
	_ZN17QDataWidgetMapper18qt_static_metacallEP7QObjectN11QMetaObject4CallEiPPv
	_ZN17QDataWidgetMapper19currentIndexChangedEi
	_ZN17QDataWidgetMapper20setCurrentModelIndexERK11QModelIndex
	_ZN17QDataWidgetMapper6revertEv
	_ZN17QDataWidgetMapper6submitEv
	_ZN17QDataWidgetMapper6toLastEv
	_ZN17QDataWidgetMapper6toNextEv
	_ZN17QDataWidgetMapper7toFirstEv
	_ZN17QDataWidgetMapper8setModelEP18QAbstractItemModel
	_ZN17QDataWidgetMapperC1EP7QObject
	_ZN17QDataWidgetMapperC2EP7QObject
	_ZN17QDataWidgetMapperD0Ev
	_ZN17QDataWidgetMapperD1Ev
	_ZN17QDataWidgetMapperD2Ev
	_ZN17QDockWidgetLayout11qt_metacallEN11QMetaObject4CallEiPPv
	_ZN17QDockWidgetLayout11qt_metacastEPKc
	_ZN17QDockWidgetLayout11setGeometryERK5QRect
	_ZN17QDockWidgetLayout16setWidgetForRoleENS_4RoleEP7QWidget
	_ZN17QDockWidgetLayout16staticMetaObjectE
	_ZN17QDockWidgetLayout18qt_static_metacallEP7QObjectN11QMetaObject4CallEiPPv
	_ZN17QDockWidgetLayout19setVerticalTitleBarEb
	_ZN17QDockWidgetLayout6takeAtEi
	_ZN17QDockWidgetLayout7addItemEP11QLayoutItem
	_ZN17QDockWidgetLayoutC1EP7QWidget
	_ZN17QDockWidgetLayoutC2EP7QWidget
	_ZN17QDockWidgetLayoutD0Ev
	_ZN17QDockWidgetLayoutD1Ev
	_ZN17QDockWidgetLayoutD2Ev
	_ZN17QFileIconProvider10setOptionsE6QFlagsINS_6OptionEE
	_ZN17QFileIconProviderC1Ev
	_ZN17QFileIconProviderC2Ev
	_ZN17QFileIconProviderD0Ev
	_ZN17QFileIconProviderD1Ev
	_ZN17QFileIconProviderD2Ev
	_ZN17QGraphicsLineItem12setExtensionEN13QGraphicsItem9ExtensionERK8QVariant
	_ZN17QGraphicsLineItem5paintEP8QPainterPK24QStyleOptionGraphicsItemP7QWidget
	_ZN17QGraphicsLineItem6setPenERK4QPen
	_ZN17QGraphicsLineItem7setLineERK6QLineF
	_ZN17QGraphicsLineItemC1EP13QGraphicsItem
	_ZN17QGraphicsLineItemC1ERK6QLineFP13QGraphicsItem
	_ZN17QGraphicsLineItemC1EddddP13QGraphicsItem
	_ZN17QGraphicsLineItemC2EP13QGraphicsItem
	_ZN17QGraphicsLineItemC2ERK6QLineFP13QGraphicsItem
	_ZN17QGraphicsLineItemC2EddddP13QGraphicsItem
	_ZN17QGraphicsLineItemD0Ev
	_ZN17QGraphicsLineItemD1Ev
	_ZN17QGraphicsLineItemD2Ev
	_ZN17QGraphicsPathItem12setExtensionEN13QGraphicsItem9ExtensionERK8QVariant
	_ZN17QGraphicsPathItem5paintEP8QPainterPK24QStyleOptionGraphicsItemP7QWidget
	_ZN17QGraphicsPathItem7setPathERK12QPainterPath
	_ZN17QGraphicsPathItemC1EP13QGraphicsItem
	_ZN17QGraphicsPathItemC1ERK12QPainterPathP13QGraphicsItem
	_ZN17QGraphicsPathItemC2EP13QGraphicsItem
	_ZN17QGraphicsPathItemC2ERK12QPainterPathP13QGraphicsItem
	_ZN17QGraphicsPathItemD0Ev
	_ZN17QGraphicsPathItemD1Ev
	_ZN17QGraphicsPathItemD2Ev
	_ZN17QGraphicsRectItem12setExtensionEN13QGraphicsItem9ExtensionERK8QVariant
	_ZN17QGraphicsRectItem5paintEP8QPainterPK24QStyleOptionGraphicsItemP7QWidget
	_ZN17QGraphicsRectItem7setRectERK6QRectF
	_ZN17QGraphicsRectItemC1EP13QGraphicsItem
	_ZN17QGraphicsRectItemC1ERK6QRectFP13QGraphicsItem
	_ZN17QGraphicsRectItemC1EddddP13QGraphicsItem
	_ZN17QGraphicsRectItemC2EP13QGraphicsItem
	_ZN17QGraphicsRectItemC2ERK6QRectFP13QGraphicsItem
	_ZN17QGraphicsRectItemC2EddddP13QGraphicsItem
	_ZN17QGraphicsRectItemD0Ev
	_ZN17QGraphicsRectItemD1Ev
	_ZN17QGraphicsRectItemD2Ev
	_ZN17QGraphicsRotation11axisChangedEv
	_ZN17QGraphicsRotation11qt_metacallEN11QMetaObject4CallEiPPv
	_ZN17QGraphicsRotation11qt_metacastEPKc
	_ZN17QGraphicsRotation12angleChangedEv
	_ZN17QGraphicsRotation13originChangedEv
	_ZN17QGraphicsRotation16staticMetaObjectE
	_ZN17QGraphicsRotation18qt_static_metacallEP7QObjectN11QMetaObject4CallEiPPv
	_ZN17QGraphicsRotation7setAxisEN2Qt4AxisE
	_ZN17QGraphicsRotation7setAxisERK9QVector3D
	_ZN17QGraphicsRotation8setAngleEd
	_ZN17QGraphicsRotation9setOriginERK9QVector3D
	_ZN17QGraphicsRotationC1EP7QObject
	_ZN17QGraphicsRotationC2EP7QObject
	_ZN17QGraphicsRotationD0Ev
	_ZN17QGraphicsRotationD1Ev
	_ZN17QGraphicsRotationD2Ev
	_ZN17QGraphicsTextItem10adjustSizeEv
	_ZN17QGraphicsTextItem10sceneEventEP6QEvent
	_ZN17QGraphicsTextItem11linkHoveredERK7QString
	_ZN17QGraphicsTextItem11qt_metacallEN11QMetaObject4CallEiPPv
	_ZN17QGraphicsTextItem11qt_metacastEPKc
	_ZN17QGraphicsTextItem11setDocumentEP13QTextDocument
	_ZN17QGraphicsTextItem12focusInEventEP11QFocusEvent
	_ZN17QGraphicsTextItem12setExtensionEN13QGraphicsItem9ExtensionERK8QVariant
	_ZN17QGraphicsTextItem12setPlainTextERK7QString
	_ZN17QGraphicsTextItem12setTextWidthEd
	_ZN17QGraphicsTextItem13dragMoveEventEP27QGraphicsSceneDragDropEvent
	_ZN17QGraphicsTextItem13focusOutEventEP11QFocusEvent
	_ZN17QGraphicsTextItem13keyPressEventEP9QKeyEvent
	_ZN17QGraphicsTextItem13linkActivatedERK7QString
	_ZN17QGraphicsTextItem13setTextCursorERK11QTextCursor
	_ZN17QGraphicsTextItem14dragEnterEventEP27QGraphicsSceneDragDropEvent
	_ZN17QGraphicsTextItem14dragLeaveEventEP27QGraphicsSceneDragDropEvent
	_ZN17QGraphicsTextItem14hoverMoveEventEP24QGraphicsSceneHoverEvent
	_ZN17QGraphicsTextItem14mouseMoveEventEP24QGraphicsSceneMouseEvent
	_ZN17QGraphicsTextItem15hoverEnterEventEP24QGraphicsSceneHoverEvent
	_ZN17QGraphicsTextItem15hoverLeaveEventEP24QGraphicsSceneHoverEvent
	_ZN17QGraphicsTextItem15keyReleaseEventEP9QKeyEvent
	_ZN17QGraphicsTextItem15mousePressEventEP24QGraphicsSceneMouseEvent
	_ZN17QGraphicsTextItem16contextMenuEventEP30QGraphicsSceneContextMenuEvent
	_ZN17QGraphicsTextItem16inputMethodEventEP17QInputMethodEvent
	_ZN17QGraphicsTextItem16staticMetaObjectE
	_ZN17QGraphicsTextItem17mouseReleaseEventEP24QGraphicsSceneMouseEvent
	_ZN17QGraphicsTextItem18qt_static_metacallEP7QObjectN11QMetaObject4CallEiPPv
	_ZN17QGraphicsTextItem18setTabChangesFocusEb
	_ZN17QGraphicsTextItem19setDefaultTextColorERK6QColor
	_ZN17QGraphicsTextItem20setOpenExternalLinksEb
	_ZN17QGraphicsTextItem21mouseDoubleClickEventEP24QGraphicsSceneMouseEvent
	_ZN17QGraphicsTextItem23setTextInteractionFlagsE6QFlagsIN2Qt19TextInteractionFlagEE
	_ZN17QGraphicsTextItem5paintEP8QPainterPK24QStyleOptionGraphicsItemP7QWidget
	_ZN17QGraphicsTextItem7setFontERK5QFont
	_ZN17QGraphicsTextItem7setHtmlERK7QString
	_ZN17QGraphicsTextItem9dropEventEP27QGraphicsSceneDragDropEvent
	_ZN17QGraphicsTextItemC1EP13QGraphicsItem
	_ZN17QGraphicsTextItemC1ERK7QStringP13QGraphicsItem
	_ZN17QGraphicsTextItemC2EP13QGraphicsItem
	_ZN17QGraphicsTextItemC2ERK7QStringP13QGraphicsItem
	_ZN17QGraphicsTextItemD0Ev
	_ZN17QGraphicsTextItemD1Ev
	_ZN17QGraphicsTextItemD2Ev
	_ZN17QPixmapBlurFilter11qt_metacallEN11QMetaObject4CallEiPPv
	_ZN17QPixmapBlurFilter11qt_metacastEPKc
	_ZN17QPixmapBlurFilter12setBlurHintsE6QFlagsIN19QGraphicsBlurEffect8BlurHintEE
	_ZN17QPixmapBlurFilter16staticMetaObjectE
	_ZN17QPixmapBlurFilter18qt_static_metacallEP7QObjectN11QMetaObject4CallEiPPv
	_ZN17QPixmapBlurFilter9setRadiusEd
	_ZN17QPixmapBlurFilterC1EP7QObject
	_ZN17QPixmapBlurFilterC2EP7QObject
	_ZN17QPixmapBlurFilterD0Ev
	_ZN17QPixmapBlurFilterD1Ev
	_ZN17QPixmapBlurFilterD2Ev
	_ZN17QStyleOptionFrameC1ERKS_
	_ZN17QStyleOptionFrameC1Ei
	_ZN17QStyleOptionFrameC1Ev
	_ZN17QStyleOptionFrameC2Ei
	_ZN17QStyleOptionFrameC2Ev
	_ZN18QCommandLinkButton10paintEventEP11QPaintEvent
	_ZN18QCommandLinkButton11qt_metacallEN11QMetaObject4CallEiPPv
	_ZN18QCommandLinkButton11qt_metacastEPKc
	_ZN18QCommandLinkButton14setDescriptionERK7QString
	_ZN18QCommandLinkButton16staticMetaObjectE
	_ZN18QCommandLinkButton18qt_static_metacallEP7QObjectN11QMetaObject4CallEiPPv
	_ZN18QCommandLinkButton5eventEP6QEvent
	_ZN18QCommandLinkButtonC1EP7QWidget
	_ZN18QCommandLinkButtonC1ERK7QStringP7QWidget
	_ZN18QCommandLinkButtonC1ERK7QStringS2_P7QWidget
	_ZN18QCommandLinkButtonC2EP7QWidget
	_ZN18QCommandLinkButtonC2ERK7QStringP7QWidget
	_ZN18QCommandLinkButtonC2ERK7QStringS2_P7QWidget
	_ZN18QCommandLinkButtonD0Ev
	_ZN18QCommandLinkButtonD1Ev
	_ZN18QCommandLinkButtonD2Ev
	_ZN18QFileDialogPrivate10_q_goToUrlERK4QUrl
	_ZN18QFileDialogPrivate10helperDoneEN7QDialog10DialogCodeEP21QPlatformDialogHelper
	_ZN18QFileDialogPrivate10initHelperEP21QPlatformDialogHelper
	_ZN18QFileDialogPrivate13_q_showHeaderEP7QAction
	_ZN18QFileDialogPrivate13_q_showHiddenEv
	_ZN18QFileDialogPrivate13createWidgetsEv
	_ZN18QFileDialogPrivate13maxNameLengthERK7QString
	_ZN18QFileDialogPrivate14_q_fileRenamedERK7QStringS0_S0_
	_ZN18QFileDialogPrivate14_q_pathChangedERK7QString
	_ZN18QFileDialogPrivate15_q_rowsInsertedERK11QModelIndex
	_ZN18QFileDialogPrivate15_q_showListViewEv
	_ZN18QFileDialogPrivate15removeDirectoryERK7QString
	_ZN18QFileDialogPrivate16_q_deleteCurrentEv
	_ZN18QFileDialogPrivate16_q_goToDirectoryERK7QString
	_ZN18QFileDialogPrivate16_q_renameCurrentEv
	_ZN18QFileDialogPrivate16_q_useNameFilterEi
	_ZN18QFileDialogPrivate16initialSelectionERK7QString
	_ZN18QFileDialogPrivate16workingDirectoryERK7QString
	_ZN18QFileDialogPrivate17_q_currentChangedERK11QModelIndex
	_ZN18QFileDialogPrivate17_q_enterDirectoryERK11QModelIndex
	_ZN18QFileDialogPrivate17_q_updateOkButtonEv
	_ZN18QFileDialogPrivate17createMenuActionsEv
	_ZN18QFileDialogPrivate17createToolButtonsEv
	_ZN18QFileDialogPrivate17emitFilesSelectedERK11QStringList
	_ZN18QFileDialogPrivate17helperPrepareShowEP21QPlatformDialogHelper
	_ZN18QFileDialogPrivate18_q_createDirectoryEv
	_ZN18QFileDialogPrivate18_q_navigateForwardEv
	_ZN18QFileDialogPrivate18_q_showContextMenuERK6QPoint
	_ZN18QFileDialogPrivate18_q_showDetailsViewEv
	_ZN18QFileDialogPrivate18retranslateStringsEv
	_ZN18QFileDialogPrivate18updateOkButtonTextEb
	_ZN18QFileDialogPrivate19_q_navigateBackwardEv
	_ZN18QFileDialogPrivate19_q_navigateToParentEv
	_ZN18QFileDialogPrivate19_q_selectionChangedEv
	_ZN18QFileDialogPrivate19setLabelTextControlEN11QFileDialog11DialogLabelERK7QString
	_ZN18QFileDialogPrivate21_q_nativeFileSelectedERK4QUrl
	_ZN18QFileDialogPrivate21itemViewKeyboardEventEP9QKeyEvent
	_ZN18QFileDialogPrivate22_q_nativeFilesSelectedERK5QListI4QUrlE
	_ZN18QFileDialogPrivate22getEnvironmentVariableERK7QString
	_ZN18QFileDialogPrivate22retranslateWindowTitleEv
	_ZN18QFileDialogPrivate22updateCancelButtonTextEv
	_ZN18QFileDialogPrivate23_q_autoCompleteFileNameERK7QString
	_ZN18QFileDialogPrivate23_q_nativeCurrentChangedERK4QUrl
	_ZN18QFileDialogPrivate23_q_nativeEnterDirectoryERK4QUrl
	_ZN18QFileDialogPrivate23setLastVisitedDirectoryERK7QString
	_ZN18QFileDialogPrivate4initERK7QStringS2_S2_
	_ZN18QFileDialogPrivate9_q_goHomeEv
	_ZN18QFileDialogPrivateC1Ev
	_ZN18QFileDialogPrivateC2Ev
	_ZN18QFileDialogPrivateD0Ev
	_ZN18QFileDialogPrivateD1Ev
	_ZN18QFileDialogPrivateD2Ev
	_ZN18QGestureRecognizer18registerRecognizerEPS_
	_ZN18QGestureRecognizer20unregisterRecognizerEN2Qt11GestureTypeE
	_ZN18QGestureRecognizer5resetEP8QGesture
	_ZN18QGestureRecognizer6createEP7QObject
	_ZN18QGestureRecognizerC1Ev
	_ZN18QGestureRecognizerC2Ev
	_ZN18QGestureRecognizerD0Ev
	_ZN18QGestureRecognizerD1Ev
	_ZN18QGestureRecognizerD2Ev
	_ZN18QGraphicsItemGroup10addToGroupEP13QGraphicsItem
	_ZN18QGraphicsItemGroup15removeFromGroupEP13QGraphicsItem
	_ZN18QGraphicsItemGroup5paintEP8QPainterPK24QStyleOptionGraphicsItemP7QWidget
	_ZN18QGraphicsItemGroupC1EP13QGraphicsItem
	_ZN18QGraphicsItemGroupC2EP13QGraphicsItem
	_ZN18QGraphicsItemGroupD0Ev
	_ZN18QGraphicsItemGroupD1Ev
	_ZN18QGraphicsItemGroupD2Ev
	_ZN18QGraphicsTransform11qt_metacallEN11QMetaObject4CallEiPPv
	_ZN18QGraphicsTransform11qt_metacastEPKc
	_ZN18QGraphicsTransform16staticMetaObjectE
	_ZN18QGraphicsTransform18qt_static_metacallEP7QObjectN11QMetaObject4CallEiPPv
	_ZN18QGraphicsTransform6updateEv
	_ZN18QGraphicsTransformC1EP7QObject
	_ZN18QGraphicsTransformC1ER25QGraphicsTransformPrivateP7QObject
	_ZN18QGraphicsTransformC2EP7QObject
	_ZN18QGraphicsTransformC2ER25QGraphicsTransformPrivateP7QObject
	_ZN18QGraphicsTransformD0Ev
	_ZN18QGraphicsTransformD1Ev
	_ZN18QGraphicsTransformD2Ev
	_ZN18QItemEditorFactory14defaultFactoryEv
	_ZN18QItemEditorFactory14registerEditorEiP22QItemEditorCreatorBase
	_ZN18QItemEditorFactory17setDefaultFactoryEPS_
	_ZN18QItemEditorFactoryD0Ev
	_ZN18QItemEditorFactoryD1Ev
	_ZN18QItemEditorFactoryD2Ev
	_ZN18QStyleOptionButtonC1ERKS_
	_ZN18QStyleOptionButtonC1Ei
	_ZN18QStyleOptionButtonC1Ev
	_ZN18QStyleOptionButtonC2Ei
	_ZN18QStyleOptionButtonC2Ev
	_ZN18QStyleOptionHeaderC1ERKS_
	_ZN18QStyleOptionHeaderC1Ei
	_ZN18QStyleOptionHeaderC1Ev
	_ZN18QStyleOptionHeaderC2Ei
	_ZN18QStyleOptionHeaderC2Ev
	_ZN18QStyleOptionSliderC1ERKS_
	_ZN18QStyleOptionSliderC1Ei
	_ZN18QStyleOptionSliderC1Ev
	_ZN18QStyleOptionSliderC2Ei
	_ZN18QStyleOptionSliderC2Ev
	_ZN18QTapAndHoldGesture10setTimeoutEi
	_ZN18QTapAndHoldGesture11qt_metacallEN11QMetaObject4CallEiPPv
	_ZN18QTapAndHoldGesture11qt_metacastEPKc
	_ZN18QTapAndHoldGesture11setPositionERK7QPointF
	_ZN18QTapAndHoldGesture16staticMetaObjectE
	_ZN18QTapAndHoldGesture18qt_static_metacallEP7QObjectN11QMetaObject4CallEiPPv
	_ZN18QTapAndHoldGesture7timeoutEv
	_ZN18QTapAndHoldGestureC1EP7QObject
	_ZN18QTapAndHoldGestureC2EP7QObject
	_ZN18QTapAndHoldGestureD0Ev
	_ZN18QTapAndHoldGestureD1Ev
	_ZN18QTapAndHoldGestureD2Ev
	_ZN18QWidgetLineControl10addCommandERKNS_7CommandE
	_ZN18QWidgetLineControl10moveCursorEib
	_ZN18QWidgetLineControl10textEditedERK7QString
	_ZN18QWidgetLineControl10timerEventEP11QTimerEvent
	_ZN18QWidgetLineControl11qt_metacallEN11QMetaObject4CallEiPPv
	_ZN18QWidgetLineControl11qt_metacastEPKc
	_ZN18QWidgetLineControl11setReadOnlyEb
	_ZN18QWidgetLineControl11textChangedERK7QString
	_ZN18QWidgetLineControl12finishChangeEibb
	_ZN18QWidgetLineControl12internalRedoEv
	_ZN18QWidgetLineControl12internalUndoEi
	_ZN18QWidgetLineControl12setSelectionEii
	_ZN18QWidgetLineControl12updateNeededERK5QRect
	_ZN18QWidgetLineControl13commitPreeditEv
	_ZN18QWidgetLineControl13cursorForwardEbi
	_ZN18QWidgetLineControl14internalDeleteEb
	_ZN18QWidgetLineControl14internalInsertERK7QString
	_ZN18QWidgetLineControl14parseInputMaskERK7QString
	_ZN18QWidgetLineControl15editingFinishedEv
	_ZN18QWidgetLineControl15internalSetTextERK7QStringib
	_ZN18QWidgetLineControl15processKeyEventEP9QKeyEvent
	_ZN18QWidgetLineControl15selectWordAtPosEi
	_ZN18QWidgetLineControl16selectionChangedEv
	_ZN18QWidgetLineControl16staticMetaObjectE
	_ZN18QWidgetLineControl16updateMicroFocusEv
	_ZN18QWidgetLineControl17_q_deleteSelectedEv
	_ZN18QWidgetLineControl17cursorWordForwardEb
	_ZN18QWidgetLineControl17resetInputContextEv
	_ZN18QWidgetLineControl17updateDisplayTextEb
	_ZN18QWidgetLineControl18cursorWordBackwardEb
	_ZN18QWidgetLineControl18displayTextChangedERK7QString
	_ZN18QWidgetLineControl18qt_static_metacallEP7QObjectN11QMetaObject4CallEiPPv
	_ZN18QWidgetLineControl18removeSelectedTextEv
	_ZN18QWidgetLineControl19_q_clipboardChangedEv
	_ZN18QWidgetLineControl20advanceToEnabledItemEi
	_ZN18QWidgetLineControl20setCursorBlinkPeriodEi
	_ZN18QWidgetLineControl21cursorPositionChangedEii
	_ZN18QWidgetLineControl21resetCursorBlinkTimerEv
	_ZN18QWidgetLineControl23processInputMethodEventEP17QInputMethodEvent
	_ZN18QWidgetLineControl25emitCursorPositionChangedEv
	_ZN18QWidgetLineControl25updatePasswordEchoEditingEb
	_ZN18QWidgetLineControl28processShortcutOverrideEventEP9QKeyEvent
	_ZN18QWidgetLineControl3delEv
	_ZN18QWidgetLineControl3endEb
	_ZN18QWidgetLineControl4drawEP8QPainterRK6QPointRK5QRecti
	_ZN18QWidgetLineControl4initERK7QString
	_ZN18QWidgetLineControl5clearEv
	_ZN18QWidgetLineControl5fixupEv
	_ZN18QWidgetLineControl5pasteEN10QClipboard4ModeE
	_ZN18QWidgetLineControl6insertERK7QString
	_ZN18QWidgetLineControl8acceptedEv
	_ZN18QWidgetLineControl8completeEi
	_ZN18QWidgetLineControl9backspaceEv
	_ZN18QWidgetLineControlD0Ev
	_ZN18QWidgetLineControlD1Ev
	_ZN18QWidgetTextControl10adjustSizeEv
	_ZN18QWidgetTextControl10appendHtmlERK7QString
	_ZN18QWidgetTextControl10insertHtmlERK7QString
	_ZN18QWidgetTextControl10moveCursorEN11QTextCursor13MoveOperationENS0_8MoveModeE
	_ZN18QWidgetTextControl10setPaletteERK8QPalette
	_ZN18QWidgetTextControl10timerEventEP11QTimerEvent
	_ZN18QWidgetTextControl11linkHoveredERK7QString
	_ZN18QWidgetTextControl11qt_metacallEN11QMetaObject4CallEiPPv
	_ZN18QWidgetTextControl11qt_metacastEPKc
	_ZN18QWidgetTextControl11setDocumentEP13QTextDocument
	_ZN18QWidgetTextControl11textChangedEv
	_ZN18QWidgetTextControl12drawContentsEP8QPainterRK6QRectFP7QWidget
	_ZN18QWidgetTextControl12loadResourceEiRK4QUrl
	_ZN18QWidgetTextControl12processEventEP6QEventRK7QMatrixP7QWidget
	_ZN18QWidgetTextControl12processEventEP6QEventRK7QPointFP7QWidget
	_ZN18QWidgetTextControl12setPlainTextERK7QString
	_ZN18QWidgetTextControl12setTextWidthEd
	_ZN18QWidgetTextControl13copyAvailableEb
	_ZN18QWidgetTextControl13linkActivatedERK7QString
	_ZN18QWidgetTextControl13redoAvailableEb
	_ZN18QWidgetTextControl13setTextCursorERK11QTextCursor
	_ZN18QWidgetTextControl13undoAvailableEb
	_ZN18QWidgetTextControl13updateRequestERK6QRectF
	_ZN18QWidgetTextControl14setCursorWidthEi
	_ZN18QWidgetTextControl14setDragEnabledEb
	_ZN18QWidgetTextControl15appendPlainTextERK7QString
	_ZN18QWidgetTextControl15insertPlainTextERK7QString
	_ZN18QWidgetTextControl16selectionChangedEv
	_ZN18QWidgetTextControl16setFocusToAnchorERK11QTextCursor
	_ZN18QWidgetTextControl16setOverwriteModeEb
	_ZN18QWidgetTextControl16staticMetaObjectE
	_ZN18QWidgetTextControl17blockCountChangedEi
	_ZN18QWidgetTextControl17microFocusChangedEv
	_ZN18QWidgetTextControl17setAcceptRichTextEb
	_ZN18QWidgetTextControl17visibilityRequestERK6QRectF
	_ZN18QWidgetTextControl18findNextPrevAnchorERK11QTextCursorbRS0_
	_ZN18QWidgetTextControl18insertFromMimeDataEPK9QMimeData
	_ZN18QWidgetTextControl18qt_static_metacallEP7QObjectN11QMetaObject4CallEiPPv
	_ZN18QWidgetTextControl18setExtraSelectionsERK5QListIN9QTextEdit14ExtraSelectionEE
	_ZN18QWidgetTextControl19documentSizeChangedERK6QSizeF
	_ZN18QWidgetTextControl19ensureCursorVisibleEv
	_ZN18QWidgetTextControl19modificationChangedEb
	_ZN18QWidgetTextControl20setCurrentCharFormatERK15QTextCharFormat
	_ZN18QWidgetTextControl20setOpenExternalLinksEb
	_ZN18QWidgetTextControl21cursorPositionChangedEv
	_ZN18QWidgetTextControl22mergeCurrentCharFormatERK15QTextCharFormat
	_ZN18QWidgetTextControl23setTextInteractionFlagsE6QFlagsIN2Qt19TextInteractionFlagEE
	_ZN18QWidgetTextControl23setWordSelectionEnabledEb
	_ZN18QWidgetTextControl24currentCharFormatChangedERK15QTextCharFormat
	_ZN18QWidgetTextControl25createStandardContextMenuERK7QPointFP7QWidget
	_ZN18QWidgetTextControl25setCursorIsFocusIndicatorEb
	_ZN18QWidgetTextControl30setFocusToNextOrPreviousAnchorEb
	_ZN18QWidgetTextControl31setIgnoreUnusedNavigationEventsEb
	_ZN18QWidgetTextControl3cutEv
	_ZN18QWidgetTextControl4copyEv
	_ZN18QWidgetTextControl4findERK7QRegExp6QFlagsIN13QTextDocument8FindFlagEE
	_ZN18QWidgetTextControl4findERK7QString6QFlagsIN13QTextDocument8FindFlagEE
	_ZN18QWidgetTextControl4redoEv
	_ZN18QWidgetTextControl4undoEv
	_ZN18QWidgetTextControl5clearEv
	_ZN18QWidgetTextControl5eventEP6QEvent
	_ZN18QWidgetTextControl5pasteEN10QClipboard4ModeE
	_ZN18QWidgetTextControl6appendERK7QString
	_ZN18QWidgetTextControl7setHtmlERK7QString
	_ZN18QWidgetTextControl8setFocusEbN2Qt11FocusReasonE
	_ZN18QWidgetTextControl9selectAllEv
	_ZN18QWidgetTextControlC1EP13QTextDocumentP7QObject
	_ZN18QWidgetTextControlC1EP7QObject
	_ZN18QWidgetTextControlC1ERK7QStringP7QObject
	_ZN18QWidgetTextControlC2EP13QTextDocumentP7QObject
	_ZN18QWidgetTextControlC2EP7QObject
	_ZN18QWidgetTextControlC2ERK7QStringP7QObject
	_ZN18QWidgetTextControlD0Ev
	_ZN18QWidgetTextControlD1Ev
	_ZN18QWidgetTextControlD2Ev
	_ZN19QAbstractScrollArea10paintEventEP11QPaintEvent
	_ZN19QAbstractScrollArea10wheelEventEP11QWheelEvent
	_ZN19QAbstractScrollArea11eventFilterEP7QObjectP6QEvent
	_ZN19QAbstractScrollArea11qt_metacallEN11QMetaObject4CallEiPPv
	_ZN19QAbstractScrollArea11qt_metacastEPKc
	_ZN19QAbstractScrollArea11resizeEventEP12QResizeEvent
	_ZN19QAbstractScrollArea11setViewportEP7QWidget
	_ZN19QAbstractScrollArea13dragMoveEventEP14QDragMoveEvent
	_ZN19QAbstractScrollArea13keyPressEventEP9QKeyEvent
	_ZN19QAbstractScrollArea13setupViewportEP7QWidget
	_ZN19QAbstractScrollArea13viewportEventEP6QEvent
	_ZN19QAbstractScrollArea14dragEnterEventEP15QDragEnterEvent
	_ZN19QAbstractScrollArea14dragLeaveEventEP15QDragLeaveEvent
	_ZN19QAbstractScrollArea14mouseMoveEventEP11QMouseEvent
	_ZN19QAbstractScrollArea15mousePressEventEP11QMouseEvent
	_ZN19QAbstractScrollArea15setCornerWidgetEP7QWidget
	_ZN19QAbstractScrollArea16contextMenuEventEP17QContextMenuEvent
	_ZN19QAbstractScrollArea16scrollBarWidgetsE6QFlagsIN2Qt13AlignmentFlagEE
	_ZN19QAbstractScrollArea16scrollContentsByEii
	_ZN19QAbstractScrollArea16staticMetaObjectE
	_ZN19QAbstractScrollArea17mouseReleaseEventEP11QMouseEvent
	_ZN19QAbstractScrollArea18addScrollBarWidgetEP7QWidget6QFlagsIN2Qt13AlignmentFlagEE
	_ZN19QAbstractScrollArea18qt_static_metacallEP7QObjectN11QMetaObject4CallEiPPv
	_ZN19QAbstractScrollArea18setViewportMarginsERK8QMargins
	_ZN19QAbstractScrollArea18setViewportMarginsEiiii
	_ZN19QAbstractScrollArea19setSizeAdjustPolicyENS_16SizeAdjustPolicyE
	_ZN19QAbstractScrollArea20setVerticalScrollBarEP10QScrollBar
	_ZN19QAbstractScrollArea21mouseDoubleClickEventEP11QMouseEvent
	_ZN19QAbstractScrollArea22setHorizontalScrollBarEP10QScrollBar
	_ZN19QAbstractScrollArea26setVerticalScrollBarPolicyEN2Qt15ScrollBarPolicyE
	_ZN19QAbstractScrollArea28setHorizontalScrollBarPolicyEN2Qt15ScrollBarPolicyE
	_ZN19QAbstractScrollArea5eventEP6QEvent
	_ZN19QAbstractScrollArea9dropEventEP10QDropEvent
	_ZN19QAbstractScrollAreaC1EP7QWidget
	_ZN19QAbstractScrollAreaC1ER26QAbstractScrollAreaPrivateP7QWidget
	_ZN19QAbstractScrollAreaC2EP7QWidget
	_ZN19QAbstractScrollAreaC2ER26QAbstractScrollAreaPrivateP7QWidget
	_ZN19QAbstractScrollAreaD0Ev
	_ZN19QAbstractScrollAreaD1Ev
	_ZN19QAbstractScrollAreaD2Ev
	_ZN19QApplicationPrivate10closePopupEP7QWidget
	_ZN19QApplicationPrivate10initializeEv
	_ZN19QApplicationPrivate10modalStateEv
	_ZN19QApplicationPrivate10shouldQuitEv
	_ZN19QApplicationPrivate10styleSheetE
	_ZN19QApplicationPrivate11inPopupModeEv
	_ZN19QApplicationPrivate11main_widgetE
	_ZN19QApplicationPrivate11widgetCountE
	_ZN19QApplicationPrivate12focus_widgetE
	_ZN19QApplicationPrivate12popupWidgetsE
	_ZN19QApplicationPrivate13active_windowE
	_ZN19QApplicationPrivate13notify_helperEP7QObjectP6QEvent
	_ZN19QApplicationPrivate13setSystemFontERK5QFont
	_ZN19QApplicationPrivate13styleOverrideE
	_ZN19QApplicationPrivate14autoSipEnabledE
	_ZN19QApplicationPrivate14sendMouseEventEP7QWidgetP11QMouseEventS1_S1_PS1_R8QPointerIS0_Eb
	_ZN19QApplicationPrivate14setFocusWidgetEP7QWidgetN2Qt11FocusReasonE
	_ZN19QApplicationPrivate14shouldSetFocusEP7QWidgetN2Qt11FocusPolicyE
	_ZN19QApplicationPrivate14tryModalHelperEP7QWidgetPS1_
	_ZN19QApplicationPrivate15desktopStyleKeyEv
	_ZN19QApplicationPrivate15process_cmdlineEv
	_ZN19QApplicationPrivate16isBlockedByModalEP7QWidget
	_ZN19QApplicationPrivate16load_testabilityE
	_ZN19QApplicationPrivate16setSystemPaletteERK8QPalette
	_ZN19QApplicationPrivate17cleanupMultitouchEv
	_ZN19QApplicationPrivate17enabledAnimationsE
	_ZN19QApplicationPrivate17leaveAfterReleaseE
	_ZN19QApplicationPrivate17notifyDragStartedEPK5QDrag
	_ZN19QApplicationPrivate17pickMouseReceiverEP7QWidgetRK6QPointPS2_N6QEvent4TypeE6QFlagsIN2Qt11MouseButtonEES1_S1_
	_ZN19QApplicationPrivate17setPalette_helperERK8QPalettePKcb
	_ZN19QApplicationPrivate18dispatchEnterLeaveEP7QWidgetS1_RK7QPointF
	_ZN19QApplicationPrivate18notifyThemeChangedEv
	_ZN19QApplicationPrivate18tryCloseAllWindowsEv
	_ZN19QApplicationPrivate18wheel_scroll_linesE
	_ZN19QApplicationPrivate19hidden_focus_widgetE
	_ZN19QApplicationPrivate20initializeMultitouchEv
	_ZN19QApplicationPrivate20translateTouchCancelEP12QTouchDevicem
	_ZN19QApplicationPrivate21cleanupMultitouch_sysEv
	_ZN19QApplicationPrivate21createEventDispatcherEv
	_ZN19QApplicationPrivate22overrides_native_styleE
	_ZN19QApplicationPrivate22translateRawTouchEventEP7QWidgetP12QTouchDeviceRK5QListIN11QTouchEvent10TouchPointEEm
	_ZN19QApplicationPrivate23notifyWindowIconChangedEv
	_ZN19QApplicationPrivate23sendSyntheticEnterLeaveEP7QWidget
	_ZN19QApplicationPrivate24initializeMultitouch_sysEv
	_ZN19QApplicationPrivate24initializeWidgetFontHashEv
	_ZN19QApplicationPrivate24notifyActiveWindowChangeEP7QWindow
	_ZN19QApplicationPrivate24tryCloseAllWidgetWindowsEP5QListIP7QWindowE
	_ZN19QApplicationPrivate25focusNextPrevChild_helperEP7QWidgetbPb
	_ZN19QApplicationPrivate26updateTouchPointsForWidgetEP7QWidgetP11QTouchEvent
	_ZN19QApplicationPrivate27findClosestTouchPointTargetEP12QTouchDeviceRK7QPointF
	_ZN19QApplicationPrivate27initializeWidgetPaletteHashEv
	_ZN19QApplicationPrivate27notifyLayoutDirectionChangeEv
	_ZN19QApplicationPrivate31giveFocusAccordingToFocusPolicyEP7QWidgetP6QEvent6QPoint
	_ZN19QApplicationPrivate4selfE
	_ZN19QApplicationPrivate7set_palE
	_ZN19QApplicationPrivate7sys_palE
	_ZN19QApplicationPrivate8set_fontE
	_ZN19QApplicationPrivate8sys_fontE
	_ZN19QApplicationPrivate9app_cspecE
	_ZN19QApplicationPrivate9app_strutE
	_ZN19QApplicationPrivate9app_styleE
	_ZN19QApplicationPrivate9constructEv
	_ZN19QApplicationPrivate9openPopupEP7QWidget
	_ZN19QApplicationPrivateC1ERiPPci
	_ZN19QApplicationPrivateC2ERiPPci
	_ZN19QApplicationPrivateD0Ev
	_ZN19QApplicationPrivateD1Ev
	_ZN19QApplicationPrivateD2Ev
	_ZN19QGraphicsBlurEffect11qt_metacallEN11QMetaObject4CallEiPPv
	_ZN19QGraphicsBlurEffect11qt_metacastEPKc
	_ZN19QGraphicsBlurEffect12setBlurHintsE6QFlagsINS_8BlurHintEE
	_ZN19QGraphicsBlurEffect13setBlurRadiusEd
	_ZN19QGraphicsBlurEffect16blurHintsChangedE6QFlagsINS_8BlurHintEE
	_ZN19QGraphicsBlurEffect16staticMetaObjectE
	_ZN19QGraphicsBlurEffect17blurRadiusChangedEd
	_ZN19QGraphicsBlurEffect18qt_static_metacallEP7QObjectN11QMetaObject4CallEiPPv
	_ZN19QGraphicsBlurEffect4drawEP8QPainter
	_ZN19QGraphicsBlurEffectC1EP7QObject
	_ZN19QGraphicsBlurEffectC2EP7QObject
	_ZN19QGraphicsBlurEffectD0Ev
	_ZN19QGraphicsBlurEffectD1Ev
	_ZN19QGraphicsBlurEffectD2Ev
	_ZN19QGraphicsGridLayout10invalidateEv
	_ZN19QGraphicsGridLayout10removeItemEP19QGraphicsLayoutItem
	_ZN19QGraphicsGridLayout10setSpacingEd
	_ZN19QGraphicsGridLayout11setGeometryERK6QRectF
	_ZN19QGraphicsGridLayout12setAlignmentEP19QGraphicsLayoutItem6QFlagsIN2Qt13AlignmentFlagEE
	_ZN19QGraphicsGridLayout13setRowSpacingEid
	_ZN19QGraphicsGridLayout15setRowAlignmentEi6QFlagsIN2Qt13AlignmentFlagEE
	_ZN19QGraphicsGridLayout16setColumnSpacingEid
	_ZN19QGraphicsGridLayout17setRowFixedHeightEid
	_ZN19QGraphicsGridLayout18setColumnAlignmentEi6QFlagsIN2Qt13AlignmentFlagEE
	_ZN19QGraphicsGridLayout18setVerticalSpacingEd
	_ZN19QGraphicsGridLayout19setColumnFixedWidthEid
	_ZN19QGraphicsGridLayout19setRowMaximumHeightEid
	_ZN19QGraphicsGridLayout19setRowMinimumHeightEid
	_ZN19QGraphicsGridLayout19setRowStretchFactorEii
	_ZN19QGraphicsGridLayout20setHorizontalSpacingEd
	_ZN19QGraphicsGridLayout21setColumnMaximumWidthEid
	_ZN19QGraphicsGridLayout21setColumnMinimumWidthEid
	_ZN19QGraphicsGridLayout21setRowPreferredHeightEid
	_ZN19QGraphicsGridLayout22setColumnStretchFactorEii
	_ZN19QGraphicsGridLayout23setColumnPreferredWidthEid
	_ZN19QGraphicsGridLayout7addItemEP19QGraphicsLayoutItemiiii6QFlagsIN2Qt13AlignmentFlagEE
	_ZN19QGraphicsGridLayout8removeAtEi
	_ZN19QGraphicsGridLayoutC1EP19QGraphicsLayoutItem
	_ZN19QGraphicsGridLayoutC2EP19QGraphicsLayoutItem
	_ZN19QGraphicsGridLayoutD0Ev
	_ZN19QGraphicsGridLayoutD1Ev
	_ZN19QGraphicsGridLayoutD2Ev
	_ZN19QGraphicsLayoutItem11setGeometryERK6QRectF
	_ZN19QGraphicsLayoutItem13setSizePolicyEN11QSizePolicy6PolicyES1_NS0_11ControlTypeE
	_ZN19QGraphicsLayoutItem13setSizePolicyERK11QSizePolicy
	_ZN19QGraphicsLayoutItem14setMaximumSizeERK6QSizeF
	_ZN19QGraphicsLayoutItem14setMinimumSizeERK6QSizeF
	_ZN19QGraphicsLayoutItem14updateGeometryEv
	_ZN19QGraphicsLayoutItem15setGraphicsItemEP13QGraphicsItem
	_ZN19QGraphicsLayoutItem15setMaximumWidthEd
	_ZN19QGraphicsLayoutItem15setMinimumWidthEd
	_ZN19QGraphicsLayoutItem16setMaximumHeightEd
	_ZN19QGraphicsLayoutItem16setMinimumHeightEd
	_ZN19QGraphicsLayoutItem16setOwnedByLayoutEb
	_ZN19QGraphicsLayoutItem16setPreferredSizeERK6QSizeF
	_ZN19QGraphicsLayoutItem17setPreferredWidthEd
	_ZN19QGraphicsLayoutItem18setPreferredHeightEd
	_ZN19QGraphicsLayoutItem19setParentLayoutItemEPS_
	_ZN19QGraphicsLayoutItemC1EPS_b
	_ZN19QGraphicsLayoutItemC1ER26QGraphicsLayoutItemPrivate
	_ZN19QGraphicsLayoutItemC2EPS_b
	_ZN19QGraphicsLayoutItemC2ER26QGraphicsLayoutItemPrivate
	_ZN19QGraphicsLayoutItemD0Ev
	_ZN19QGraphicsLayoutItemD1Ev
	_ZN19QGraphicsLayoutItemD2Ev
	_ZN19QGraphicsPixmapItem12setExtensionEN13QGraphicsItem9ExtensionERK8QVariant
	_ZN19QGraphicsPixmapItem12setShapeModeENS_9ShapeModeE
	_ZN19QGraphicsPixmapItem21setTransformationModeEN2Qt18TransformationModeE
	_ZN19QGraphicsPixmapItem5paintEP8QPainterPK24QStyleOptionGraphicsItemP7QWidget
	_ZN19QGraphicsPixmapItem9setOffsetERK7QPointF
	_ZN19QGraphicsPixmapItem9setPixmapERK7QPixmap
	_ZN19QGraphicsPixmapItemC1EP13QGraphicsItem
	_ZN19QGraphicsPixmapItemC1ERK7QPixmapP13QGraphicsItem
	_ZN19QGraphicsPixmapItemC2EP13QGraphicsItem
	_ZN19QGraphicsPixmapItemC2ERK7QPixmapP13QGraphicsItem
	_ZN19QGraphicsPixmapItemD0Ev
	_ZN19QGraphicsPixmapItemD1Ev
	_ZN19QGraphicsPixmapItemD2Ev
	_ZN19QGraphicsSceneEvent9setWidgetEP7QWidget
	_ZN19QGraphicsSceneEventC1EN6QEvent4TypeE
	_ZN19QGraphicsSceneEventC1ER26QGraphicsSceneEventPrivateN6QEvent4TypeE
	_ZN19QGraphicsSceneEventC2EN6QEvent4TypeE
	_ZN19QGraphicsSceneEventC2ER26QGraphicsSceneEventPrivateN6QEvent4TypeE
	_ZN19QGraphicsSceneEventD0Ev
	_ZN19QGraphicsSceneEventD1Ev
	_ZN19QGraphicsSceneEventD2Ev
	_ZN19QKeyEventTransition11qt_metacallEN11QMetaObject4CallEiPPv
	_ZN19QKeyEventTransition11qt_metacastEPKc
	_ZN19QKeyEventTransition12onTransitionEP6QEvent
	_ZN19QKeyEventTransition15setModifierMaskE6QFlagsIN2Qt16KeyboardModifierEE
	_ZN19QKeyEventTransition16staticMetaObjectE
	_ZN19QKeyEventTransition18qt_static_metacallEP7QObjectN11QMetaObject4CallEiPPv
	_ZN19QKeyEventTransition6setKeyEi
	_ZN19QKeyEventTransition9eventTestEP6QEvent
	_ZN19QKeyEventTransitionC1EP6QState
	_ZN19QKeyEventTransitionC1EP7QObjectN6QEvent4TypeEiP6QState
	_ZN19QKeyEventTransitionC2EP6QState
	_ZN19QKeyEventTransitionC2EP7QObjectN6QEvent4TypeEiP6QState
	_ZN19QKeyEventTransitionD0Ev
	_ZN19QKeyEventTransitionD1Ev
	_ZN19QKeyEventTransitionD2Ev
	_ZN19QScrollerProperties15setScrollMetricENS_12ScrollMetricERK8QVariant
	_ZN19QScrollerProperties28setDefaultScrollerPropertiesERKS_
	_ZN19QScrollerProperties30unsetDefaultScrollerPropertiesEv
	_ZN19QScrollerPropertiesC1ERKS_
	_ZN19QScrollerPropertiesC1Ev
	_ZN19QScrollerPropertiesC2ERKS_
	_ZN19QScrollerPropertiesC2Ev
	_ZN19QScrollerPropertiesD0Ev
	_ZN19QScrollerPropertiesD1Ev
	_ZN19QScrollerPropertiesD2Ev
	_ZN19QScrollerPropertiesaSERKS_
	_ZN19QStyleOptionComplexC1Eii
	_ZN19QStyleOptionComplexC2Eii
	_ZN19QStyleOptionSpinBoxC1Ei
	_ZN19QStyleOptionSpinBoxC1Ev
	_ZN19QStyleOptionSpinBoxC2Ei
	_ZN19QStyleOptionSpinBoxC2Ev
	_ZN19QStyleOptionToolBarC1Ei
	_ZN19QStyleOptionToolBarC1Ev
	_ZN19QStyleOptionToolBarC2Ei
	_ZN19QStyleOptionToolBarC2Ev
	_ZN19QStyleOptionToolBoxC1Ei
	_ZN19QStyleOptionToolBoxC1Ev
	_ZN19QStyleOptionToolBoxC2Ei
	_ZN19QStyleOptionToolBoxC2Ev
	_ZN19QStyledItemDelegate11editorEventEP6QEventP18QAbstractItemModelRK20QStyleOptionViewItemRK11QModelIndex
	_ZN19QStyledItemDelegate11eventFilterEP7QObjectP6QEvent
	_ZN19QStyledItemDelegate11qt_metacallEN11QMetaObject4CallEiPPv
	_ZN19QStyledItemDelegate11qt_metacastEPKc
	_ZN19QStyledItemDelegate16staticMetaObjectE
	_ZN19QStyledItemDelegate18qt_static_metacallEP7QObjectN11QMetaObject4CallEiPPv
	_ZN19QStyledItemDelegate20setItemEditorFactoryEP18QItemEditorFactory
	_ZN19QStyledItemDelegateC1EP7QObject
	_ZN19QStyledItemDelegateC2EP7QObject
	_ZN19QStyledItemDelegateD0Ev
	_ZN19QStyledItemDelegateD1Ev
	_ZN19QStyledItemDelegateD2Ev
	_ZN20QGraphicsEllipseItem12setExtensionEN13QGraphicsItem9ExtensionERK8QVariant
	_ZN20QGraphicsEllipseItem12setSpanAngleEi
	_ZN20QGraphicsEllipseItem13setStartAngleEi
	_ZN20QGraphicsEllipseItem5paintEP8QPainterPK24QStyleOptionGraphicsItemP7QWidget
	_ZN20QGraphicsEllipseItem7setRectERK6QRectF
	_ZN20QGraphicsEllipseItemC1EP13QGraphicsItem
	_ZN20QGraphicsEllipseItemC1ERK6QRectFP13QGraphicsItem
	_ZN20QGraphicsEllipseItemC1EddddP13QGraphicsItem
	_ZN20QGraphicsEllipseItemC2EP13QGraphicsItem
	_ZN20QGraphicsEllipseItemC2ERK6QRectFP13QGraphicsItem
	_ZN20QGraphicsEllipseItemC2EddddP13QGraphicsItem
	_ZN20QGraphicsEllipseItemD0Ev
	_ZN20QGraphicsEllipseItemD1Ev
	_ZN20QGraphicsEllipseItemD2Ev
	_ZN20QGraphicsItemPrivate10resetWidthEv
	_ZN20QGraphicsItemPrivate11children_atEP24QDeclarativeListPropertyI15QGraphicsObjectEi
	_ZN20QGraphicsItemPrivate11removeChildEP13QGraphicsItem
	_ZN20QGraphicsItemPrivate11resetHeightEv
	_ZN20QGraphicsItemPrivate11resolveFontEj
	_ZN20QGraphicsItemPrivate11setSubFocusEP13QGraphicsItemS1_
	_ZN20QGraphicsItemPrivate12childrenListEv
	_ZN20QGraphicsItemPrivate12remapItemPosEP6QEventP13QGraphicsItem
	_ZN20QGraphicsItemPrivate12resolveDepthEv
	_ZN20QGraphicsItemPrivate12setPosHelperERK7QPointF
	_ZN20QGraphicsItemPrivate13clearSubFocusEP13QGraphicsItemS1_
	_ZN20QGraphicsItemPrivate14children_clearEP24QDeclarativeListPropertyI15QGraphicsObjectE
	_ZN20QGraphicsItemPrivate14children_countEP24QDeclarativeListPropertyI15QGraphicsObjectE
	_ZN20QGraphicsItemPrivate14insertionOrderEP13QGraphicsItemS1_
	_ZN20QGraphicsItemPrivate14resolvePaletteEj
	_ZN20QGraphicsItemPrivate14setFocusHelperEN2Qt11FocusReasonEbb
	_ZN20QGraphicsItemPrivate15children_appendEP24QDeclarativeListPropertyI15QGraphicsObjectEPS1_
	_ZN20QGraphicsItemPrivate15resetFocusProxyEv
	_ZN20QGraphicsItemPrivate16clearFocusHelperEbb
	_ZN20QGraphicsItemPrivate16setEnabledHelperEbbb
	_ZN20QGraphicsItemPrivate16setVisibleHelperEbbbb
	_ZN20QGraphicsItemPrivate16transformChangedEv
	_ZN20QGraphicsItemPrivate18setIsMemberOfGroupEb
	_ZN20QGraphicsItemPrivate18setTransformHelperERK10QTransform
	_ZN20QGraphicsItemPrivate18siblingOrderChangeEv
	_ZN20QGraphicsItemPrivate18subFocusItemChangeEv
	_ZN20QGraphicsItemPrivate18updateAncestorFlagEN13QGraphicsItem16GraphicsItemFlagENS_12AncestorFlagEbb
	_ZN20QGraphicsItemPrivate19setParentItemHelperEP13QGraphicsItemPK8QVariantS4_
	_ZN20QGraphicsItemPrivate19updateAncestorFlagsEv
	_ZN20QGraphicsItemPrivate20focusScopeItemChangeEb
	_ZN20QGraphicsItemPrivate20removeExtraItemCacheEv
	_ZN20QGraphicsItemPrivate23appendGraphicsTransformEP18QGraphicsTransform
	_ZN20QGraphicsItemPrivate24prependGraphicsTransformEP18QGraphicsTransform
	_ZN20QGraphicsItemPrivate25movableAncestorIsSelectedEPK13QGraphicsItem
	_ZN20QGraphicsItemPrivate26childrenBoundingRectHelperEP10QTransformP6QRectFP13QGraphicsItem
	_ZN20QGraphicsItemPrivate26invalidateDepthRecursivelyEv
	_ZN20QGraphicsItemPrivate28ensureSequentialSiblingIndexEv
	_ZN20QGraphicsItemPrivate29ensureSceneTransformRecursiveEPP13QGraphicsItem
	_ZN20QGraphicsItemPrivate30updatePaintedViewBoundingRectsEb
	_ZN20QGraphicsItemPrivate30updateSceneTransformFromParentEv
	_ZN20QGraphicsItemPrivate41invalidateChildGraphicsEffectsRecursivelyENS_16InvalidateReasonE
	_ZN20QGraphicsItemPrivate42invalidateParentGraphicsEffectsRecursivelyEv
	_ZN20QGraphicsItemPrivate44updateChildWithGraphicsEffectFlagRecursivelyEv
	_ZN20QGraphicsItemPrivate8addChildEP13QGraphicsItem
	_ZN20QGraphicsItemPrivate8setWidthEd
	_ZN20QGraphicsItemPrivate9setHeightEd
	_ZN20QGraphicsItemPrivateD0Ev
	_ZN20QGraphicsItemPrivateD1Ev
	_ZN20QGraphicsPolygonItem10setPolygonERK9QPolygonF
	_ZN20QGraphicsPolygonItem11setFillRuleEN2Qt8FillRuleE
	_ZN20QGraphicsPolygonItem12setExtensionEN13QGraphicsItem9ExtensionERK8QVariant
	_ZN20QGraphicsPolygonItem5paintEP8QPainterPK24QStyleOptionGraphicsItemP7QWidget
	_ZN20QGraphicsPolygonItemC1EP13QGraphicsItem
	_ZN20QGraphicsPolygonItemC1ERK9QPolygonFP13QGraphicsItem
	_ZN20QGraphicsPolygonItemC2EP13QGraphicsItem
	_ZN20QGraphicsPolygonItemC2ERK9QPolygonFP13QGraphicsItem
	_ZN20QGraphicsPolygonItemD0Ev
	_ZN20QGraphicsPolygonItemD1Ev
	_ZN20QGraphicsPolygonItemD2Ev
	_ZN20QGraphicsProxyWidget10itemChangeEN13QGraphicsItem18GraphicsItemChangeERK8QVariant
	_ZN20QGraphicsProxyWidget10wheelEventEP24QGraphicsSceneWheelEvent
	_ZN20QGraphicsProxyWidget11eventFilterEP7QObjectP6QEvent
	_ZN20QGraphicsProxyWidget11qt_metacallEN11QMetaObject4CallEiPPv
	_ZN20QGraphicsProxyWidget11qt_metacastEPKc
	_ZN20QGraphicsProxyWidget11resizeEventEP25QGraphicsSceneResizeEvent
	_ZN20QGraphicsProxyWidget11setGeometryERK6QRectF
	_ZN20QGraphicsProxyWidget12focusInEventEP11QFocusEvent
	_ZN20QGraphicsProxyWidget13dragMoveEventEP27QGraphicsSceneDragDropEvent
	_ZN20QGraphicsProxyWidget13focusOutEventEP11QFocusEvent
	_ZN20QGraphicsProxyWidget13keyPressEventEP9QKeyEvent
	_ZN20QGraphicsProxyWidget14dragEnterEventEP27QGraphicsSceneDragDropEvent
	_ZN20QGraphicsProxyWidget14dragLeaveEventEP27QGraphicsSceneDragDropEvent
	_ZN20QGraphicsProxyWidget14grabMouseEventEP6QEvent
	_ZN20QGraphicsProxyWidget14hoverMoveEventEP24QGraphicsSceneHoverEvent
	_ZN20QGraphicsProxyWidget14mouseMoveEventEP24QGraphicsSceneMouseEvent
	_ZN20QGraphicsProxyWidget14newProxyWidgetEPK7QWidget
	_ZN20QGraphicsProxyWidget15hoverEnterEventEP24QGraphicsSceneHoverEvent
	_ZN20QGraphicsProxyWidget15hoverLeaveEventEP24QGraphicsSceneHoverEvent
	_ZN20QGraphicsProxyWidget15keyReleaseEventEP9QKeyEvent
	_ZN20QGraphicsProxyWidget15mousePressEventEP24QGraphicsSceneMouseEvent
	_ZN20QGraphicsProxyWidget16contextMenuEventEP30QGraphicsSceneContextMenuEvent
	_ZN20QGraphicsProxyWidget16inputMethodEventEP17QInputMethodEvent
	_ZN20QGraphicsProxyWidget16staticMetaObjectE
	_ZN20QGraphicsProxyWidget16ungrabMouseEventEP6QEvent
	_ZN20QGraphicsProxyWidget17mouseReleaseEventEP24QGraphicsSceneMouseEvent
	_ZN20QGraphicsProxyWidget18focusNextPrevChildEb
	_ZN20QGraphicsProxyWidget18qt_static_metacallEP7QObjectN11QMetaObject4CallEiPPv
	_ZN20QGraphicsProxyWidget21mouseDoubleClickEventEP24QGraphicsSceneMouseEvent
	_ZN20QGraphicsProxyWidget25createProxyForChildWidgetEP7QWidget
	_ZN20QGraphicsProxyWidget5eventEP6QEvent
	_ZN20QGraphicsProxyWidget5paintEP8QPainterPK24QStyleOptionGraphicsItemP7QWidget
	_ZN20QGraphicsProxyWidget9dropEventEP27QGraphicsSceneDragDropEvent
	_ZN20QGraphicsProxyWidget9hideEventEP10QHideEvent
	_ZN20QGraphicsProxyWidget9setWidgetEP7QWidget
	_ZN20QGraphicsProxyWidget9showEventEP10QShowEvent
	_ZN20QGraphicsProxyWidgetC1EP13QGraphicsItem6QFlagsIN2Qt10WindowTypeEE
	_ZN20QGraphicsProxyWidgetC2EP13QGraphicsItem6QFlagsIN2Qt10WindowTypeEE
	_ZN20QGraphicsProxyWidgetD0Ev
	_ZN20QGraphicsProxyWidgetD1Ev
	_ZN20QGraphicsProxyWidgetD2Ev
	_ZN20QGraphicsViewPrivate10centerViewEN13QGraphicsView14ViewportAnchorE
	_ZN20QGraphicsViewPrivate10updateRectERK5QRect
	_ZN20QGraphicsViewPrivate11updateRectFERK6QRectF
	_ZN20QGraphicsViewPrivate12updateRegionERK6QRectFRK10QTransform
	_ZN20QGraphicsViewPrivate12updateScrollEv
	_ZN20QGraphicsViewPrivate13setUpdateClipEP13QGraphicsItem
	_ZN20QGraphicsViewPrivate15storeMouseEventEP11QMouseEvent
	_ZN20QGraphicsViewPrivate16updateRubberBandEPK11QMouseEvent
	_ZN20QGraphicsViewPrivate18storeDragDropEventEPK27QGraphicsSceneDragDropEvent
	_ZN20QGraphicsViewPrivate19translateTouchEventEPS_P11QTouchEvent
	_ZN20QGraphicsViewPrivate20_q_setViewportCursorERK7QCursor
	_ZN20QGraphicsViewPrivate20replayLastMouseEventEv
	_ZN20QGraphicsViewPrivate21freeStyleOptionsArrayEP24QStyleOptionGraphicsItem
	_ZN20QGraphicsViewPrivate21mouseMoveEventHandlerEP11QMouseEvent
	_ZN20QGraphicsViewPrivate21processPendingUpdatesEv
	_ZN20QGraphicsViewPrivate21updateLastCenterPointEv
	_ZN20QGraphicsViewPrivate22_q_unsetViewportCursorEv
	_ZN20QGraphicsViewPrivate22allocStyleOptionsArrayEi
	_ZN20QGraphicsViewPrivate22recalculateContentSizeEv
	_ZN20QGraphicsViewPrivate26populateSceneDragDropEventEP27QGraphicsSceneDragDropEventP10QDropEvent
	_ZN20QGraphicsViewPrivate28updateInputMethodSensitivityEv
	_ZN20QGraphicsViewPrivateC1Ev
	_ZN20QGraphicsViewPrivateC2Ev
	_ZN20QStyleHintReturnMaskC1Ev
	_ZN20QStyleHintReturnMaskC2Ev
	_ZN20QStyleHintReturnMaskD1Ev
	_ZN20QStyleHintReturnMaskD2Ev
	_ZN20QStyleOptionComboBoxC1Ei
	_ZN20QStyleOptionComboBoxC1Ev
	_ZN20QStyleOptionComboBoxC2Ei
	_ZN20QStyleOptionComboBoxC2Ev
	_ZN20QStyleOptionGroupBoxC1ERKS_
	_ZN20QStyleOptionGroupBoxC1Ei
	_ZN20QStyleOptionGroupBoxC1Ev
	_ZN20QStyleOptionGroupBoxC2Ei
	_ZN20QStyleOptionGroupBoxC2Ev
	_ZN20QStyleOptionMenuItemC1ERKS_
	_ZN20QStyleOptionMenuItemC1Ei
	_ZN20QStyleOptionMenuItemC1Ev
	_ZN20QStyleOptionMenuItemC2Ei
	_ZN20QStyleOptionMenuItemC2Ev
	_ZN20QStyleOptionSizeGripC1Ei
	_ZN20QStyleOptionSizeGripC1Ev
	_ZN20QStyleOptionSizeGripC2Ei
	_ZN20QStyleOptionSizeGripC2Ev
	_ZN20QStyleOptionTitleBarC1Ei
	_ZN20QStyleOptionTitleBarC1Ev
	_ZN20QStyleOptionTitleBarC2Ei
	_ZN20QStyleOptionTitleBarC2Ev
	_ZN20QStyleOptionViewItemC1ERKS_
	_ZN20QStyleOptionViewItemC1Ei
	_ZN20QStyleOptionViewItemC1Ev
	_ZN20QStyleOptionViewItemC2Ei
	_ZN20QStyleOptionViewItemC2Ev
	_ZN20QWidgetResizeHandler11eventFilterEP7QObjectP6QEvent
	_ZN20QWidgetResizeHandler11qt_metacallEN11QMetaObject4CallEiPPv
	_ZN20QWidgetResizeHandler11qt_metacastEPKc
	_ZN20QWidgetResizeHandler13keyPressEventEP9QKeyEvent
	_ZN20QWidgetResizeHandler14mouseMoveEventEP11QMouseEvent
	_ZN20QWidgetResizeHandler14setMouseCursorENS_13MousePositionE
	_ZN20QWidgetResizeHandler16staticMetaObjectE
	_ZN20QWidgetResizeHandler18qt_static_metacallEP7QObjectN11QMetaObject4CallEiPPv
	_ZN20QWidgetResizeHandler6doMoveEv
	_ZN20QWidgetResizeHandler8activateEv
	_ZN20QWidgetResizeHandler8doResizeEv
	_ZN20QWidgetResizeHandler9setActiveENS_6ActionEb
	_ZN20QWidgetResizeHandlerC1EP7QWidgetS1_
	_ZN20QWidgetResizeHandlerC2EP7QWidgetS1_
	_ZN21QAbstractItemDelegate10commitDataEP7QWidget
	_ZN21QAbstractItemDelegate10elidedTextERK12QFontMetricsiN2Qt13TextElideModeERK7QString
	_ZN21QAbstractItemDelegate11closeEditorEP7QWidgetNS_11EndEditHintE
	_ZN21QAbstractItemDelegate11editorEventEP6QEventP18QAbstractItemModelRK20QStyleOptionViewItemRK11QModelIndex
	_ZN21QAbstractItemDelegate11qt_metacallEN11QMetaObject4CallEiPPv
	_ZN21QAbstractItemDelegate11qt_metacastEPKc
	_ZN21QAbstractItemDelegate15sizeHintChangedERK11QModelIndex
	_ZN21QAbstractItemDelegate16staticMetaObjectE
	_ZN21QAbstractItemDelegate18qt_static_metacallEP7QObjectN11QMetaObject4CallEiPPv
	_ZN21QAbstractItemDelegate9helpEventEP10QHelpEventP17QAbstractItemViewRK20QStyleOptionViewItemRK11QModelIndex
	_ZN21QAbstractItemDelegateC1EP7QObject
	_ZN21QAbstractItemDelegateC1ER14QObjectPrivateP7QObject
	_ZN21QAbstractItemDelegateC2EP7QObject
	_ZN21QAbstractItemDelegateC2ER14QObjectPrivateP7QObject
	_ZN21QAbstractItemDelegateD0Ev
	_ZN21QAbstractItemDelegateD1Ev
	_ZN21QAbstractItemDelegateD2Ev
	_ZN21QGraphicsAnchorLayout10addAnchorsEP19QGraphicsLayoutItemS1_6QFlagsIN2Qt11OrientationEE
	_ZN21QGraphicsAnchorLayout10invalidateEv
	_ZN21QGraphicsAnchorLayout10setSpacingEd
	_ZN21QGraphicsAnchorLayout11setGeometryERK6QRectF
	_ZN21QGraphicsAnchorLayout16addCornerAnchorsEP19QGraphicsLayoutItemN2Qt6CornerES1_S3_
	_ZN21QGraphicsAnchorLayout18setVerticalSpacingEd
	_ZN21QGraphicsAnchorLayout20setHorizontalSpacingEd
	_ZN21QGraphicsAnchorLayout6anchorEP19QGraphicsLayoutItemN2Qt11AnchorPointES1_S3_
	_ZN21QGraphicsAnchorLayout8removeAtEi
	_ZN21QGraphicsAnchorLayout9addAnchorEP19QGraphicsLayoutItemN2Qt11AnchorPointES1_S3_
	_ZN21QGraphicsAnchorLayoutC1EP19QGraphicsLayoutItem
	_ZN21QGraphicsAnchorLayoutC2EP19QGraphicsLayoutItem
	_ZN21QGraphicsAnchorLayoutD0Ev
	_ZN21QGraphicsAnchorLayoutD1Ev
	_ZN21QGraphicsAnchorLayoutD2Ev
	_ZN21QGraphicsEffectSource11qt_metacallEN11QMetaObject4CallEiPPv
	_ZN21QGraphicsEffectSource11qt_metacastEPKc
	_ZN21QGraphicsEffectSource16staticMetaObjectE
	_ZN21QGraphicsEffectSource18qt_static_metacallEP7QObjectN11QMetaObject4CallEiPPv
	_ZN21QGraphicsEffectSource4drawEP8QPainter
	_ZN21QGraphicsEffectSource6updateEv
	_ZN21QGraphicsEffectSourceC1ER28QGraphicsEffectSourcePrivateP7QObject
	_ZN21QGraphicsEffectSourceC2ER28QGraphicsEffectSourcePrivateP7QObject
	_ZN21QGraphicsEffectSourceD0Ev
	_ZN21QGraphicsEffectSourceD1Ev
	_ZN21QGraphicsEffectSourceD2Ev
	_ZN21QGraphicsLinearLayout10insertItemEiP19QGraphicsLayoutItem
	_ZN21QGraphicsLinearLayout10invalidateEv
	_ZN21QGraphicsLinearLayout10removeItemEP19QGraphicsLayoutItem
	_ZN21QGraphicsLinearLayout10setSpacingEd
	_ZN21QGraphicsLinearLayout11setGeometryERK6QRectF
	_ZN21QGraphicsLinearLayout12setAlignmentEP19QGraphicsLayoutItem6QFlagsIN2Qt13AlignmentFlagEE
	_ZN21QGraphicsLinearLayout13insertStretchEii
	_ZN21QGraphicsLinearLayout14setItemSpacingEid
	_ZN21QGraphicsLinearLayout14setOrientationEN2Qt11OrientationE
	_ZN21QGraphicsLinearLayout16setStretchFactorEP19QGraphicsLayoutItemi
	_ZN21QGraphicsLinearLayout8removeAtEi
	_ZN21QGraphicsLinearLayoutC1EN2Qt11OrientationEP19QGraphicsLayoutItem
	_ZN21QGraphicsLinearLayoutC1EP19QGraphicsLayoutItem
	_ZN21QGraphicsLinearLayoutC2EN2Qt11OrientationEP19QGraphicsLayoutItem
	_ZN21QGraphicsLinearLayoutC2EP19QGraphicsLayoutItem
	_ZN21QGraphicsLinearLayoutD0Ev
	_ZN21QGraphicsLinearLayoutD1Ev
	_ZN21QGraphicsLinearLayoutD2Ev
	_ZN21QMouseEventTransition11qt_metacallEN11QMetaObject4CallEiPPv
	_ZN21QMouseEventTransition11qt_metacastEPKc
	_ZN21QMouseEventTransition12onTransitionEP6QEvent
	_ZN21QMouseEventTransition14setHitTestPathERK12QPainterPath
	_ZN21QMouseEventTransition15setModifierMaskE6QFlagsIN2Qt16KeyboardModifierEE
	_ZN21QMouseEventTransition16staticMetaObjectE
	_ZN21QMouseEventTransition18qt_static_metacallEP7QObjectN11QMetaObject4CallEiPPv
	_ZN21QMouseEventTransition9eventTestEP6QEvent
	_ZN21QMouseEventTransition9setButtonEN2Qt11MouseButtonE
	_ZN21QMouseEventTransitionC1EP6QState
	_ZN21QMouseEventTransitionC1EP7QObjectN6QEvent4TypeEN2Qt11MouseButtonEP6QState
	_ZN21QMouseEventTransitionC2EP6QState
	_ZN21QMouseEventTransitionC2EP7QObjectN6QEvent4TypeEN2Qt11MouseButtonEP6QState
	_ZN21QMouseEventTransitionD0Ev
	_ZN21QMouseEventTransitionD1Ev
	_ZN21QMouseEventTransitionD2Ev
	_ZN21QPixmapColorizeFilter11qt_metacallEN11QMetaObject4CallEiPPv
	_ZN21QPixmapColorizeFilter11qt_metacastEPKc
	_ZN21QPixmapColorizeFilter11setStrengthEd
	_ZN21QPixmapColorizeFilter16staticMetaObjectE
	_ZN21QPixmapColorizeFilter18qt_static_metacallEP7QObjectN11QMetaObject4CallEiPPv
	_ZN21QPixmapColorizeFilter8setColorERK6QColor
	_ZN21QPixmapColorizeFilterC1EP7QObject
	_ZN21QPixmapColorizeFilterC2EP7QObject
	_ZN21QStyleOptionFocusRectC1Ei
	_ZN21QStyleOptionFocusRectC1Ev
	_ZN21QStyleOptionFocusRectC2Ei
	_ZN21QStyleOptionFocusRectC2Ev
	_ZN22QGraphicsItemAnimation10setScaleAtEddd
	_ZN22QGraphicsItemAnimation10setShearAtEddd
	_ZN22QGraphicsItemAnimation11qt_metacallEN11QMetaObject4CallEiPPv
	_ZN22QGraphicsItemAnimation11qt_metacastEPKc
	_ZN22QGraphicsItemAnimation11setTimeLineEP9QTimeLine
	_ZN22QGraphicsItemAnimation13setRotationAtEdd
	_ZN22QGraphicsItemAnimation16setTranslationAtEddd
	_ZN22QGraphicsItemAnimation16staticMetaObjectE
	_ZN22QGraphicsItemAnimation18afterAnimationStepEd
	_ZN22QGraphicsItemAnimation18qt_static_metacallEP7QObjectN11QMetaObject4CallEiPPv
	_ZN22QGraphicsItemAnimation19beforeAnimationStepEd
	_ZN22QGraphicsItemAnimation5clearEv
	_ZN22QGraphicsItemAnimation5resetEv
	_ZN22QGraphicsItemAnimation7setItemEP13QGraphicsItem
	_ZN22QGraphicsItemAnimation7setStepEd
	_ZN22QGraphicsItemAnimation8setPosAtEdRK7QPointF
	_ZN22QGraphicsItemAnimationC1EP7QObject
	_ZN22QGraphicsItemAnimationC2EP7QObject
	_ZN22QGraphicsItemAnimationD0Ev
	_ZN22QGraphicsItemAnimationD1Ev
	_ZN22QGraphicsItemAnimationD2Ev
	_ZN22QGraphicsOpacityEffect10setOpacityEd
	_ZN22QGraphicsOpacityEffect11qt_metacallEN11QMetaObject4CallEiPPv
	_ZN22QGraphicsOpacityEffect11qt_metacastEPKc
	_ZN22QGraphicsOpacityEffect14opacityChangedEd
	_ZN22QGraphicsOpacityEffect14setOpacityMaskERK6QBrush
	_ZN22QGraphicsOpacityEffect16staticMetaObjectE
	_ZN22QGraphicsOpacityEffect18opacityMaskChangedERK6QBrush
	_ZN22QGraphicsOpacityEffect18qt_static_metacallEP7QObjectN11QMetaObject4CallEiPPv
	_ZN22QGraphicsOpacityEffect4drawEP8QPainter
	_ZN22QGraphicsOpacityEffectC1EP7QObject
	_ZN22QGraphicsOpacityEffectC2EP7QObject
	_ZN22QGraphicsOpacityEffectD0Ev
	_ZN22QGraphicsOpacityEffectD1Ev
	_ZN22QGraphicsOpacityEffectD2Ev
	_ZN22QItemEditorCreatorBaseD0Ev
	_ZN22QItemEditorCreatorBaseD1Ev
	_ZN22QItemEditorCreatorBaseD2Ev
	_ZN22QStyleOptionDockWidgetC1Ei
	_ZN22QStyleOptionDockWidgetC1Ev
	_ZN22QStyleOptionDockWidgetC2Ei
	_ZN22QStyleOptionDockWidgetC2Ev
	_ZN22QStyleOptionRubberBandC1Ei
	_ZN22QStyleOptionRubberBandC1Ev
	_ZN22QStyleOptionRubberBandC2Ei
	_ZN22QStyleOptionRubberBandC2Ev
	_ZN22QStyleOptionTabBarBaseC1Ei
	_ZN22QStyleOptionTabBarBaseC1Ev
	_ZN22QStyleOptionTabBarBaseC2Ei
	_ZN22QStyleOptionTabBarBaseC2Ev
	_ZN22QStyleOptionToolButtonC1ERKS_
	_ZN22QStyleOptionToolButtonC1Ei
	_ZN22QStyleOptionToolButtonC1Ev
	_ZN22QStyleOptionToolButtonC2Ei
	_ZN22QStyleOptionToolButtonC2Ev
	_ZN23QGraphicsColorizeEffect11qt_metacallEN11QMetaObject4CallEiPPv
	_ZN23QGraphicsColorizeEffect11qt_metacastEPKc
	_ZN23QGraphicsColorizeEffect11setStrengthEd
	_ZN23QGraphicsColorizeEffect12colorChangedERK6QColor
	_ZN23QGraphicsColorizeEffect15strengthChangedEd
	_ZN23QGraphicsColorizeEffect16staticMetaObjectE
	_ZN23QGraphicsColorizeEffect18qt_static_metacallEP7QObjectN11QMetaObject4CallEiPPv
	_ZN23QGraphicsColorizeEffect4drawEP8QPainter
	_ZN23QGraphicsColorizeEffect8setColorERK6QColor
	_ZN23QGraphicsColorizeEffectC1EP7QObject
	_ZN23QGraphicsColorizeEffectC2EP7QObject
	_ZN23QGraphicsColorizeEffectD0Ev
	_ZN23QGraphicsColorizeEffectD1Ev
	_ZN23QGraphicsColorizeEffectD2Ev
	_ZN23QGraphicsSceneHelpEvent11setScenePosERK7QPointF
	_ZN23QGraphicsSceneHelpEvent12setScreenPosERK6QPoint
	_ZN23QGraphicsSceneHelpEventC1EN6QEvent4TypeE
	_ZN23QGraphicsSceneHelpEventC2EN6QEvent4TypeE
	_ZN23QGraphicsSceneHelpEventD0Ev
	_ZN23QGraphicsSceneHelpEventD1Ev
	_ZN23QGraphicsSceneHelpEventD2Ev
	_ZN23QGraphicsSceneMoveEvent9setNewPosERK7QPointF
	_ZN23QGraphicsSceneMoveEvent9setOldPosERK7QPointF
	_ZN23QGraphicsSceneMoveEventC1Ev
	_ZN23QGraphicsSceneMoveEventC2Ev
	_ZN23QGraphicsSceneMoveEventD0Ev
	_ZN23QGraphicsSceneMoveEventD1Ev
	_ZN23QGraphicsSceneMoveEventD2Ev
	_ZN23QGraphicsSimpleTextItem12setExtensionEN13QGraphicsItem9ExtensionERK8QVariant
	_ZN23QGraphicsSimpleTextItem5paintEP8QPainterPK24QStyleOptionGraphicsItemP7QWidget
	_ZN23QGraphicsSimpleTextItem7setFontERK5QFont
	_ZN23QGraphicsSimpleTextItem7setTextERK7QString
	_ZN23QGraphicsSimpleTextItemC1EP13QGraphicsItem
	_ZN23QGraphicsSimpleTextItemC1ERK7QStringP13QGraphicsItem
	_ZN23QGraphicsSimpleTextItemC2EP13QGraphicsItem
	_ZN23QGraphicsSimpleTextItemC2ERK7QStringP13QGraphicsItem
	_ZN23QGraphicsSimpleTextItemD0Ev
	_ZN23QGraphicsSimpleTextItemD1Ev
	_ZN23QGraphicsSimpleTextItemD2Ev
	_ZN23QPixmapDropShadowFilter11qt_metacallEN11QMetaObject4CallEiPPv
	_ZN23QPixmapDropShadowFilter11qt_metacastEPKc
	_ZN23QPixmapDropShadowFilter13setBlurRadiusEd
	_ZN23QPixmapDropShadowFilter16staticMetaObjectE
	_ZN23QPixmapDropShadowFilter18qt_static_metacallEP7QObjectN11QMetaObject4CallEiPPv
	_ZN23QPixmapDropShadowFilter8setColorERK6QColor
	_ZN23QPixmapDropShadowFilter9setOffsetERK7QPointF
	_ZN23QPixmapDropShadowFilterC1EP7QObject
	_ZN23QPixmapDropShadowFilterC2EP7QObject
	_ZN23QPixmapDropShadowFilterD0Ev
	_ZN23QPixmapDropShadowFilterD1Ev
	_ZN23QPixmapDropShadowFilterD2Ev
	_ZN23QStyleHintReturnVariantC1Ev
	_ZN23QStyleHintReturnVariantC2Ev
	_ZN23QStyleHintReturnVariantD1Ev
	_ZN23QStyleHintReturnVariantD2Ev
	_ZN23QStyleOptionProgressBarC1Ei
	_ZN23QStyleOptionProgressBarC1Ev
	_ZN23QStyleOptionProgressBarC2Ei
	_ZN23QStyleOptionProgressBarC2Ev
	_ZN23QTreeWidgetItemIteratorC1EP11QTreeWidget6QFlagsINS_12IteratorFlagEE
	_ZN23QTreeWidgetItemIteratorC1EP15QTreeWidgetItem6QFlagsINS_12IteratorFlagEE
	_ZN23QTreeWidgetItemIteratorC1ERKS_
	_ZN23QTreeWidgetItemIteratorC2EP11QTreeWidget6QFlagsINS_12IteratorFlagEE
	_ZN23QTreeWidgetItemIteratorC2EP15QTreeWidgetItem6QFlagsINS_12IteratorFlagEE
	_ZN23QTreeWidgetItemIteratorC2ERKS_
	_ZN23QTreeWidgetItemIteratorD1Ev
	_ZN23QTreeWidgetItemIteratorD2Ev
	_ZN23QTreeWidgetItemIteratoraSERKS_
	_ZN23QTreeWidgetItemIteratormmEv
	_ZN23QTreeWidgetItemIteratorppEv
	_ZN24QGraphicsSceneHoverEvent10setLastPosERK7QPointF
	_ZN24QGraphicsSceneHoverEvent11setScenePosERK7QPointF
	_ZN24QGraphicsSceneHoverEvent12setModifiersE6QFlagsIN2Qt16KeyboardModifierEE
	_ZN24QGraphicsSceneHoverEvent12setScreenPosERK6QPoint
	_ZN24QGraphicsSceneHoverEvent15setLastScenePosERK7QPointF
	_ZN24QGraphicsSceneHoverEvent16setLastScreenPosERK6QPoint
	_ZN24QGraphicsSceneHoverEvent6setPosERK7QPointF
	_ZN24QGraphicsSceneHoverEventC1EN6QEvent4TypeE
	_ZN24QGraphicsSceneHoverEventC2EN6QEvent4TypeE
	_ZN24QGraphicsSceneHoverEventD0Ev
	_ZN24QGraphicsSceneHoverEventD1Ev
	_ZN24QGraphicsSceneHoverEventD2Ev
	_ZN24QGraphicsSceneMouseEvent10setButtonsE6QFlagsIN2Qt11MouseButtonEE
	_ZN24QGraphicsSceneMouseEvent10setLastPosERK7QPointF
	_ZN24QGraphicsSceneMouseEvent11setScenePosERK7QPointF
	_ZN24QGraphicsSceneMouseEvent12setModifiersE6QFlagsIN2Qt16KeyboardModifierEE
	_ZN24QGraphicsSceneMouseEvent12setScreenPosERK6QPoint
	_ZN24QGraphicsSceneMouseEvent15setLastScenePosERK7QPointF
	_ZN24QGraphicsSceneMouseEvent16setButtonDownPosEN2Qt11MouseButtonERK7QPointF
	_ZN24QGraphicsSceneMouseEvent16setLastScreenPosERK6QPoint
	_ZN24QGraphicsSceneMouseEvent21setButtonDownScenePosEN2Qt11MouseButtonERK7QPointF
	_ZN24QGraphicsSceneMouseEvent22setButtonDownScreenPosEN2Qt11MouseButtonERK6QPoint
	_ZN24QGraphicsSceneMouseEvent6setPosERK7QPointF
	_ZN24QGraphicsSceneMouseEvent9setButtonEN2Qt11MouseButtonE
	_ZN24QGraphicsSceneMouseEventC1EN6QEvent4TypeE
	_ZN24QGraphicsSceneMouseEventC2EN6QEvent4TypeE
	_ZN24QGraphicsSceneMouseEventD0Ev
	_ZN24QGraphicsSceneMouseEventD1Ev
	_ZN24QGraphicsSceneMouseEventD2Ev
	_ZN24QGraphicsSceneWheelEvent10setButtonsE6QFlagsIN2Qt11MouseButtonEE
	_ZN24QGraphicsSceneWheelEvent11setScenePosERK7QPointF
	_ZN24QGraphicsSceneWheelEvent12setModifiersE6QFlagsIN2Qt16KeyboardModifierEE
	_ZN24QGraphicsSceneWheelEvent12setScreenPosERK6QPoint
	_ZN24QGraphicsSceneWheelEvent14setOrientationEN2Qt11OrientationE
	_ZN24QGraphicsSceneWheelEvent6setPosERK7QPointF
	_ZN24QGraphicsSceneWheelEvent8setDeltaEi
	_ZN24QGraphicsSceneWheelEventC1EN6QEvent4TypeE
	_ZN24QGraphicsSceneWheelEventC2EN6QEvent4TypeE
	_ZN24QGraphicsSceneWheelEventD0Ev
	_ZN24QGraphicsSceneWheelEventD1Ev
	_ZN24QGraphicsSceneWheelEventD2Ev
	_ZN24QPixmapConvolutionFilter11qt_metacallEN11QMetaObject4CallEiPPv
	_ZN24QPixmapConvolutionFilter11qt_metacastEPKc
	_ZN24QPixmapConvolutionFilter16staticMetaObjectE
	_ZN24QPixmapConvolutionFilter18qt_static_metacallEP7QObjectN11QMetaObject4CallEiPPv
	_ZN24QPixmapConvolutionFilter20setConvolutionKernelEPKdii
	_ZN24QPixmapConvolutionFilterC1EP7QObject
	_ZN24QPixmapConvolutionFilterC2EP7QObject
	_ZN24QPixmapConvolutionFilterD0Ev
	_ZN24QPixmapConvolutionFilterD1Ev
	_ZN24QPixmapConvolutionFilterD2Ev
	_ZN24QPlainTextDocumentLayout10blockWidthERK10QTextBlock
	_ZN24QPlainTextDocumentLayout11layoutBlockERK10QTextBlock
	_ZN24QPlainTextDocumentLayout11qt_metacallEN11QMetaObject4CallEiPPv
	_ZN24QPlainTextDocumentLayout11qt_metacastEPKc
	_ZN24QPlainTextDocumentLayout12setTextWidthEd
	_ZN24QPlainTextDocumentLayout13requestUpdateEv
	_ZN24QPlainTextDocumentLayout14setCursorWidthEi
	_ZN24QPlainTextDocumentLayout15documentChangedEiii
	_ZN24QPlainTextDocumentLayout16staticMetaObjectE
	_ZN24QPlainTextDocumentLayout18qt_static_metacallEP7QObjectN11QMetaObject4CallEiPPv
	_ZN24QPlainTextDocumentLayout4drawEP8QPainterRKN27QAbstractTextDocumentLayout12PaintContextE
	_ZN24QPlainTextDocumentLayoutC1EP13QTextDocument
	_ZN24QPlainTextDocumentLayoutC2EP13QTextDocument
	_ZN24QPlainTextDocumentLayoutD0Ev
	_ZN24QPlainTextDocumentLayoutD1Ev
	_ZN24QPlainTextDocumentLayoutD2Ev
	_ZN24QStyleOptionGraphicsItem26levelOfDetailFromTransformERK10QTransform
	_ZN24QStyleOptionGraphicsItemC1Ei
	_ZN24QStyleOptionGraphicsItemC1Ev
	_ZN24QStyleOptionGraphicsItemC2Ei
	_ZN24QStyleOptionGraphicsItemC2Ev
	_ZN25QGraphicsDropShadowEffect11qt_metacallEN11QMetaObject4CallEiPPv
	_ZN25QGraphicsDropShadowEffect11qt_metacastEPKc
	_ZN25QGraphicsDropShadowEffect12colorChangedERK6QColor
	_ZN25QGraphicsDropShadowEffect13offsetChangedERK7QPointF
	_ZN25QGraphicsDropShadowEffect13setBlurRadiusEd
	_ZN25QGraphicsDropShadowEffect16staticMetaObjectE
	_ZN25QGraphicsDropShadowEffect17blurRadiusChangedEd
	_ZN25QGraphicsDropShadowEffect18qt_static_metacallEP7QObjectN11QMetaObject4CallEiPPv
	_ZN25QGraphicsDropShadowEffect4drawEP8QPainter
	_ZN25QGraphicsDropShadowEffect8setColorERK6QColor
	_ZN25QGraphicsDropShadowEffect9setOffsetERK7QPointF
	_ZN25QGraphicsDropShadowEffectC1EP7QObject
	_ZN25QGraphicsDropShadowEffectC2EP7QObject
	_ZN25QGraphicsDropShadowEffectD0Ev
	_ZN25QGraphicsDropShadowEffectD1Ev
	_ZN25QGraphicsDropShadowEffectD2Ev
	_ZN25QGraphicsSceneResizeEvent10setNewSizeERK6QSizeF
	_ZN25QGraphicsSceneResizeEvent10setOldSizeERK6QSizeF
	_ZN25QGraphicsSceneResizeEventC1Ev
	_ZN25QGraphicsSceneResizeEventC2Ev
	_ZN25QGraphicsSceneResizeEventD0Ev
	_ZN25QGraphicsSceneResizeEventD1Ev
	_ZN25QGraphicsSceneResizeEventD2Ev
	_ZN26QAbstractGraphicsShapeItem6setPenERK4QPen
	_ZN26QAbstractGraphicsShapeItem8setBrushERK6QBrush
	_ZN26QAbstractGraphicsShapeItemC1EP13QGraphicsItem
	_ZN26QAbstractGraphicsShapeItemC1ER33QAbstractGraphicsShapeItemPrivateP13QGraphicsItem
	_ZN26QAbstractGraphicsShapeItemC2EP13QGraphicsItem
	_ZN26QAbstractGraphicsShapeItemC2ER33QAbstractGraphicsShapeItemPrivateP13QGraphicsItem
	_ZN26QAbstractGraphicsShapeItemD0Ev
	_ZN26QAbstractGraphicsShapeItemD1Ev
	_ZN26QAbstractGraphicsShapeItemD2Ev
	_ZN26QAbstractScrollAreaPrivate14layoutChildrenEv
	_ZN26QAbstractScrollAreaPrivate15flashScrollBarsEv
	_ZN26QAbstractScrollAreaPrivate16replaceScrollBarEP10QScrollBarN2Qt11OrientationE
	_ZN26QAbstractScrollAreaPrivate19canStartScrollingAtERK6QPoint
	_ZN26QAbstractScrollAreaPrivate21setScrollBarTransientEP10QScrollBarb
	_ZN26QAbstractScrollAreaPrivate22scrollBarPolicyChangedEN2Qt11OrientationENS0_15ScrollBarPolicyE
	_ZN26QAbstractScrollAreaPrivate23_q_showOrHideScrollBarsEv
	_ZN26QAbstractScrollAreaPrivate4initEv
	_ZN26QAbstractScrollAreaPrivate9_q_hslideEi
	_ZN26QAbstractScrollAreaPrivate9_q_vslideEi
	_ZN26QAbstractScrollAreaPrivateC1Ev
	_ZN26QAbstractScrollAreaPrivateC2Ev
	_ZN26QStyleOptionTabWidgetFrameC1Ei
	_ZN26QStyleOptionTabWidgetFrameC1Ev
	_ZN26QStyleOptionTabWidgetFrameC2Ei
	_ZN26QStyleOptionTabWidgetFrameC2Ev
	_ZN26QTableWidgetSelectionRangeC1ERKS_
	_ZN26QTableWidgetSelectionRangeC1Eiiii
	_ZN26QTableWidgetSelectionRangeC1Ev
	_ZN26QTableWidgetSelectionRangeC2ERKS_
	_ZN26QTableWidgetSelectionRangeC2Eiiii
	_ZN26QTableWidgetSelectionRangeC2Ev
	_ZN26QTableWidgetSelectionRangeD1Ev
	_ZN26QTableWidgetSelectionRangeD2Ev
	_ZN27QGraphicsSceneDragDropEvent10setButtonsE6QFlagsIN2Qt11MouseButtonEE
	_ZN27QGraphicsSceneDragDropEvent11setMimeDataEPK9QMimeData
	_ZN27QGraphicsSceneDragDropEvent11setScenePosERK7QPointF
	_ZN27QGraphicsSceneDragDropEvent12setModifiersE6QFlagsIN2Qt16KeyboardModifierEE
	_ZN27QGraphicsSceneDragDropEvent12setScreenPosERK6QPoint
	_ZN27QGraphicsSceneDragDropEvent13setDropActionEN2Qt10DropActionE
	_ZN27QGraphicsSceneDragDropEvent17setProposedActionEN2Qt10DropActionE
	_ZN27QGraphicsSceneDragDropEvent18setPossibleActionsE6QFlagsIN2Qt10DropActionEE
	_ZN27QGraphicsSceneDragDropEvent20acceptProposedActionEv
	_ZN27QGraphicsSceneDragDropEvent6setPosERK7QPointF
	_ZN27QGraphicsSceneDragDropEvent9setSourceEP7QWidget
	_ZN27QGraphicsSceneDragDropEventC1EN6QEvent4TypeE
	_ZN27QGraphicsSceneDragDropEventC2EN6QEvent4TypeE
	_ZN27QGraphicsSceneDragDropEventD0Ev
	_ZN27QGraphicsSceneDragDropEventD1Ev
	_ZN27QGraphicsSceneDragDropEventD2Ev
	_ZN30QGraphicsSceneContextMenuEvent11setScenePosERK7QPointF
	_ZN30QGraphicsSceneContextMenuEvent12setModifiersE6QFlagsIN2Qt16KeyboardModifierEE
	_ZN30QGraphicsSceneContextMenuEvent12setScreenPosERK6QPoint
	_ZN30QGraphicsSceneContextMenuEvent6setPosERK7QPointF
	_ZN30QGraphicsSceneContextMenuEvent9setReasonENS_6ReasonE
	_ZN30QGraphicsSceneContextMenuEventC1EN6QEvent4TypeE
	_ZN30QGraphicsSceneContextMenuEventC2EN6QEvent4TypeE
	_ZN30QGraphicsSceneContextMenuEventD0Ev
	_ZN30QGraphicsSceneContextMenuEventD1Ev
	_ZN30QGraphicsSceneContextMenuEventD2Ev
	_ZN5QDial10paintEventEP11QPaintEvent
	_ZN5QDial11qt_metacallEN11QMetaObject4CallEiPPv
	_ZN5QDial11qt_metacastEPKc
	_ZN5QDial11resizeEventEP12QResizeEvent
	_ZN5QDial11setWrappingEb
	_ZN5QDial12sliderChangeEN15QAbstractSlider12SliderChangeE
	_ZN5QDial14mouseMoveEventEP11QMouseEvent
	_ZN5QDial14setNotchTargetEd
	_ZN5QDial15mousePressEventEP11QMouseEvent
	_ZN5QDial16staticMetaObjectE
	_ZN5QDial17mouseReleaseEventEP11QMouseEvent
	_ZN5QDial17setNotchesVisibleEb
	_ZN5QDial18qt_static_metacallEP7QObjectN11QMetaObject4CallEiPPv
	_ZN5QDial5eventEP6QEvent
	_ZN5QDialC1EP7QWidget
	_ZN5QDialC2EP7QWidget
	_ZN5QDialD0Ev
	_ZN5QDialD1Ev
	_ZN5QDialD2Ev
	_ZN5QMenu10addSectionERK5QIconRK7QString
	_ZN5QMenu10addSectionERK7QString
	_ZN5QMenu10enterEventEP6QEvent
	_ZN5QMenu10insertMenuEP7QActionPS_
	_ZN5QMenu10leaveEventEP6QEvent
	_ZN5QMenu10paintEventEP11QPaintEvent
	_ZN5QMenu10timerEventEP11QTimerEvent
	_ZN5QMenu10wheelEventEP11QWheelEvent
	_ZN5QMenu11aboutToHideEv
	_ZN5QMenu11aboutToShowEv
	_ZN5QMenu11actionEventEP12QActionEvent
	_ZN5QMenu11changeEventEP6QEvent
	_ZN5QMenu11qt_metacallEN11QMetaObject4CallEiPPv
	_ZN5QMenu11qt_metacastEPKc
	_ZN5QMenu12addSeparatorEv
	_ZN5QMenu12platformMenuEv
	_ZN5QMenu13insertSectionEP7QActionRK5QIconRK7QString
	_ZN5QMenu13insertSectionEP7QActionRK7QString
	_ZN5QMenu13keyPressEventEP9QKeyEvent
	_ZN5QMenu14mouseMoveEventEP11QMouseEvent
	_ZN5QMenu14setNoReplayForEP7QWidget
	_ZN5QMenu15hideTearOffMenuEv
	_ZN5QMenu15insertSeparatorEP7QAction
	_ZN5QMenu15mousePressEventEP11QMouseEvent
	_ZN5QMenu15setActiveActionEP7QAction
	_ZN5QMenu15setPlatformMenuEP13QPlatformMenu
	_ZN5QMenu16setDefaultActionEP7QAction
	_ZN5QMenu16staticMetaObjectE
	_ZN5QMenu17mouseReleaseEventEP11QMouseEvent
	_ZN5QMenu17setTearOffEnabledEb
	_ZN5QMenu18focusNextPrevChildEb
	_ZN5QMenu18qt_static_metacallEP7QObjectN11QMetaObject4CallEiPPv
	_ZN5QMenu18setToolTipsVisibleEb
	_ZN5QMenu20internalDelayedPopupEv
	_ZN5QMenu23internalSetSloppyActionEv
	_ZN5QMenu24setSeparatorsCollapsibleEb
	_ZN5QMenu4execE5QListIP7QActionERK6QPointS2_P7QWidget
	_ZN5QMenu4execERK6QPointP7QAction
	_ZN5QMenu4execEv
	_ZN5QMenu5clearEv
	_ZN5QMenu5eventEP6QEvent
	_ZN5QMenu5popupERK6QPointP7QAction
	_ZN5QMenu7addMenuEPS_
	_ZN5QMenu7addMenuERK5QIconRK7QString
	_ZN5QMenu7addMenuERK7QString
	_ZN5QMenu7hoveredEP7QAction
	_ZN5QMenu7setIconERK5QIcon
	_ZN5QMenu8setTitleERK7QString
	_ZN5QMenu9addActionERK5QIconRK7QString
	_ZN5QMenu9addActionERK5QIconRK7QStringPK7QObjectPKcRK12QKeySequence
	_ZN5QMenu9addActionERK7QString
	_ZN5QMenu9addActionERK7QStringPK7QObjectPKcRK12QKeySequence
	_ZN5QMenu9hideEventEP10QHideEvent
	_ZN5QMenu9triggeredEP7QAction
	_ZN5QMenuC1EP7QWidget
	_ZN5QMenuC1ER12QMenuPrivateP7QWidget
	_ZN5QMenuC1ERK7QStringP7QWidget
	_ZN5QMenuC2EP7QWidget
	_ZN5QMenuC2ER12QMenuPrivateP7QWidget
	_ZN5QMenuC2ERK7QStringP7QWidget
	_ZN5QMenuD0Ev
	_ZN5QMenuD1Ev
	_ZN5QMenuD2Ev
	_ZN6QFrame10paintEventEP11QPaintEvent
	_ZN6QFrame11changeEventEP6QEvent
	_ZN6QFrame11qt_metacallEN11QMetaObject4CallEiPPv
	_ZN6QFrame11qt_metacastEPKc
	_ZN6QFrame12setFrameRectERK5QRect
	_ZN6QFrame12setLineWidthEi
	_ZN6QFrame13setFrameShapeENS_5ShapeE
	_ZN6QFrame13setFrameStyleEi
	_ZN6QFrame14setFrameShadowENS_6ShadowE
	_ZN6QFrame15setMidLineWidthEi
	_ZN6QFrame16staticMetaObjectE
	_ZN6QFrame18qt_static_metacallEP7QObjectN11QMetaObject4CallEiPPv
	_ZN6QFrame5eventEP6QEvent
	_ZN6QFrame9drawFrameEP8QPainter
	_ZN6QFrameC1EP7QWidget6QFlagsIN2Qt10WindowTypeEE
	_ZN6QFrameC1ER13QFramePrivateP7QWidget6QFlagsIN2Qt10WindowTypeEE
	_ZN6QFrameC2EP7QWidget6QFlagsIN2Qt10WindowTypeEE
	_ZN6QFrameC2ER13QFramePrivateP7QWidget6QFlagsIN2Qt10WindowTypeEE
	_ZN6QFrameD0Ev
	_ZN6QFrameD1Ev
	_ZN6QFrameD2Ev
	_ZN6QLabel10paintEventEP11QPaintEvent
	_ZN6QLabel10setPictureERK8QPicture
	_ZN6QLabel11changeEventEP6QEvent
	_ZN6QLabel11linkHoveredERK7QString
	_ZN6QLabel11qt_metacallEN11QMetaObject4CallEiPPv
	_ZN6QLabel11qt_metacastEPKc
	_ZN6QLabel11setWordWrapEb
	_ZN6QLabel12focusInEventEP11QFocusEvent
	_ZN6QLabel12setAlignmentE6QFlagsIN2Qt13AlignmentFlagEE
	_ZN6QLabel12setSelectionEii
	_ZN6QLabel13focusOutEventEP11QFocusEvent
	_ZN6QLabel13keyPressEventEP9QKeyEvent
	_ZN6QLabel13linkActivatedERK7QString
	_ZN6QLabel13setTextFormatEN2Qt10TextFormatE
	_ZN6QLabel14mouseMoveEventEP11QMouseEvent
	_ZN6QLabel15mousePressEventEP11QMouseEvent
	_ZN6QLabel16contextMenuEventEP17QContextMenuEvent
	_ZN6QLabel16staticMetaObjectE
	_ZN6QLabel17mouseReleaseEventEP11QMouseEvent
	_ZN6QLabel17setScaledContentsEb
	_ZN6QLabel18focusNextPrevChildEb
	_ZN6QLabel18qt_static_metacallEP7QObjectN11QMetaObject4CallEiPPv
	_ZN6QLabel20setOpenExternalLinksEb
	_ZN6QLabel23setTextInteractionFlagsE6QFlagsIN2Qt19TextInteractionFlagEE
	_ZN6QLabel5clearEv
	_ZN6QLabel5eventEP6QEvent
	_ZN6QLabel6setNumEd
	_ZN6QLabel6setNumEi
	_ZN6QLabel7setTextERK7QString
	_ZN6QLabel8setBuddyEP7QWidget
	_ZN6QLabel8setMovieEP6QMovie
	_ZN6QLabel9setIndentEi
	_ZN6QLabel9setMarginEi
	_ZN6QLabel9setPixmapERK7QPixmap
	_ZN6QLabelC1EP7QWidget6QFlagsIN2Qt10WindowTypeEE
	_ZN6QLabelC1ERK7QStringP7QWidget6QFlagsIN2Qt10WindowTypeEE
	_ZN6QLabelC2EP7QWidget6QFlagsIN2Qt10WindowTypeEE
	_ZN6QLabelC2ERK7QStringP7QWidget6QFlagsIN2Qt10WindowTypeEE
	_ZN6QLabelD0Ev
	_ZN6QLabelD1Ev
	_ZN6QLabelD2Ev
	_ZN6QStyle10visualRectEN2Qt15LayoutDirectionERK5QRectS4_
	_ZN6QStyle11alignedRectEN2Qt15LayoutDirectionE6QFlagsINS0_13AlignmentFlagEERK5QSizeRK5QRect
	_ZN6QStyle11qt_metacallEN11QMetaObject4CallEiPPv
	_ZN6QStyle11qt_metacastEPKc
	_ZN6QStyle15visualAlignmentEN2Qt15LayoutDirectionE6QFlagsINS0_13AlignmentFlagEE
	_ZN6QStyle16staticMetaObjectE
	_ZN6QStyle18qt_static_metacallEP7QObjectN11QMetaObject4CallEiPPv
	_ZN6QStyle23sliderPositionFromValueEiiiib
	_ZN6QStyle23sliderValueFromPositionEiiiib
	_ZN6QStyle6polishEP12QApplication
	_ZN6QStyle6polishEP7QWidget
	_ZN6QStyle6polishER8QPalette
	_ZN6QStyle8setProxyEPS_
	_ZN6QStyle8unpolishEP12QApplication
	_ZN6QStyle8unpolishEP7QWidget
	_ZN6QStyle9visualPosEN2Qt15LayoutDirectionERK5QRectRK6QPoint
	_ZN6QStyleC1ER13QStylePrivate
	_ZN6QStyleC1Ev
	_ZN6QStyleC2ER13QStylePrivate
	_ZN6QStyleC2Ev
	_ZN6QStyleD0Ev
	_ZN6QStyleD1Ev
	_ZN6QStyleD2Ev
	_ZN7QAction10setCheckedEb
	_ZN7QAction10setEnabledEb
	_ZN7QAction10setToolTipERK7QString
	_ZN7QAction10setVisibleEb
	_ZN7QAction11qt_metacallEN11QMetaObject4CallEiPPv
	_ZN7QAction11qt_metacastEPKc
	_ZN7QAction11setIconTextERK7QString
	_ZN7QAction11setMenuRoleENS_8MenuRoleE
	_ZN7QAction11setPriorityENS_8PriorityE
	_ZN7QAction11setShortcutERK12QKeySequence
	_ZN7QAction12setCheckableEb
	_ZN7QAction12setSeparatorEb
	_ZN7QAction12setShortcutsEN12QKeySequence11StandardKeyE
	_ZN7QAction12setShortcutsERK5QListI12QKeySequenceE
	_ZN7QAction12setStatusTipERK7QString
	_ZN7QAction12setWhatsThisERK7QString
	_ZN7QAction13setAutoRepeatEb
	_ZN7QAction14setActionGroupEP12QActionGroup
	_ZN7QAction14showStatusTextEP7QWidget
	_ZN7QAction16staticMetaObjectE
	_ZN7QAction18qt_static_metacallEP7QObjectN11QMetaObject4CallEiPPv
	_ZN7QAction18setShortcutContextEN2Qt15ShortcutContextE
	_ZN7QAction20setIconVisibleInMenuEb
	_ZN7QAction5eventEP6QEvent
	_ZN7QAction6toggleEv
	_ZN7QAction7changedEv
	_ZN7QAction7hoveredEv
	_ZN7QAction7setDataERK8QVariant
	_ZN7QAction7setFontERK5QFont
	_ZN7QAction7setIconERK5QIcon
	_ZN7QAction7setMenuEP5QMenu
	_ZN7QAction7setTextERK7QString
	_ZN7QAction7toggledEb
	_ZN7QAction8activateENS_11ActionEventE
	_ZN7QAction9triggeredEb
	_ZN7QActionC1EP7QObject
	_ZN7QActionC1ER14QActionPrivateP7QObject
	_ZN7QActionC1ERK5QIconRK7QStringP7QObject
	_ZN7QActionC1ERK7QStringP7QObject
	_ZN7QActionC2EP7QObject
	_ZN7QActionC2ER14QActionPrivateP7QObject
	_ZN7QActionC2ERK5QIconRK7QStringP7QObject
	_ZN7QActionC2ERK7QStringP7QObject
	_ZN7QActionD0Ev
	_ZN7QActionD1Ev
	_ZN7QActionD2Ev
	_ZN7QDialog10closeEventEP11QCloseEvent
	_ZN7QDialog10setVisibleEb
	_ZN7QDialog11eventFilterEP7QObjectP6QEvent
	_ZN7QDialog11qt_metacallEN11QMetaObject4CallEiPPv
	_ZN7QDialog11qt_metacastEPKc
	_ZN7QDialog11resizeEventEP12QResizeEvent
	_ZN7QDialog12setExtensionEP7QWidget
	_ZN7QDialog13keyPressEventEP9QKeyEvent
	_ZN7QDialog13showExtensionEb
	_ZN7QDialog14adjustPositionEP7QWidget
	_ZN7QDialog14setOrientationEN2Qt11OrientationE
	_ZN7QDialog16contextMenuEventEP17QContextMenuEvent
	_ZN7QDialog16staticMetaObjectE
	_ZN7QDialog18qt_static_metacallEP7QObjectN11QMetaObject4CallEiPPv
	_ZN7QDialog18setSizeGripEnabledEb
	_ZN7QDialog4doneEi
	_ZN7QDialog4execEv
	_ZN7QDialog4openEv
	_ZN7QDialog6acceptEv
	_ZN7QDialog6rejectEv
	_ZN7QDialog8acceptedEv
	_ZN7QDialog8finishedEi
	_ZN7QDialog8rejectedEv
	_ZN7QDialog8setModalEb
	_ZN7QDialog9setResultEi
	_ZN7QDialog9showEventEP10QShowEvent
	_ZN7QDialogC1EP7QWidget6QFlagsIN2Qt10WindowTypeEE
	_ZN7QDialogC1ER14QDialogPrivateP7QWidget6QFlagsIN2Qt10WindowTypeEE
	_ZN7QDialogC2EP7QWidget6QFlagsIN2Qt10WindowTypeEE
	_ZN7QDialogC2ER14QDialogPrivateP7QWidget6QFlagsIN2Qt10WindowTypeEE
	_ZN7QDialogD0Ev
	_ZN7QDialogD1Ev
	_ZN7QDialogD2Ev
	_ZN7QLayout10childEventEP11QChildEvent
	_ZN7QLayout10invalidateEv
	_ZN7QLayout10removeItemEP11QLayoutItem
	_ZN7QLayout10setEnabledEb
	_ZN7QLayout10setMenuBarEP7QWidget
	_ZN7QLayout10setSpacingEi
	_ZN7QLayout11adoptLayoutEPS_
	_ZN7QLayout11qt_metacallEN11QMetaObject4CallEiPPv
	_ZN7QLayout11qt_metacastEPKc
	_ZN7QLayout11setGeometryERK5QRect
	_ZN7QLayout11widgetEventEP6QEvent
	_ZN7QLayout12removeWidgetEP7QWidget
	_ZN7QLayout12setAlignmentEP7QWidget6QFlagsIN2Qt13AlignmentFlagEE
	_ZN7QLayout12setAlignmentEPS_6QFlagsIN2Qt13AlignmentFlagEE
	_ZN7QLayout13replaceWidgetEP7QWidgetS1_6QFlagsIN2Qt15FindChildOptionEE
	_ZN7QLayout14addChildLayoutEPS_
	_ZN7QLayout14addChildWidgetEP7QWidget
	_ZN7QLayout16staticMetaObjectE
	_ZN7QLayout17setSizeConstraintENS_14SizeConstraintE
	_ZN7QLayout18qt_static_metacallEP7QObjectN11QMetaObject4CallEiPPv
	_ZN7QLayout18setContentsMarginsERK8QMargins
	_ZN7QLayout18setContentsMarginsEiiii
	_ZN7QLayout21closestAcceptableSizeEPK7QWidgetRK5QSize
	_ZN7QLayout23activateRecursiveHelperEP11QLayoutItem
	_ZN7QLayout6layoutEv
	_ZN7QLayout6updateEv
	_ZN7QLayout8activateEv
	_ZN7QLayout9addWidgetEP7QWidget
	_ZN7QLayout9setMarginEi
	_ZN7QLayoutC1EP7QWidget
	_ZN7QLayoutC1ER14QLayoutPrivatePS_P7QWidget
	_ZN7QLayoutC1Ev
	_ZN7QLayoutC2EP7QWidget
	_ZN7QLayoutC2ER14QLayoutPrivatePS_P7QWidget
	_ZN7QLayoutC2Ev
	_ZN7QLayoutD0Ev
	_ZN7QLayoutD1Ev
	_ZN7QLayoutD2Ev
	_ZN7QSlider10paintEventEP11QPaintEvent
	_ZN7QSlider11qt_metacallEN11QMetaObject4CallEiPPv
	_ZN7QSlider11qt_metacastEPKc
	_ZN7QSlider14mouseMoveEventEP11QMouseEvent
	_ZN7QSlider15mousePressEventEP11QMouseEvent
	_ZN7QSlider15setTickIntervalEi
	_ZN7QSlider15setTickPositionENS_12TickPositionE
	_ZN7QSlider16staticMetaObjectE
	_ZN7QSlider17mouseReleaseEventEP11QMouseEvent
	_ZN7QSlider18qt_static_metacallEP7QObjectN11QMetaObject4CallEiPPv
	_ZN7QSlider5eventEP6QEvent
	_ZN7QSliderC1EN2Qt11OrientationEP7QWidget
	_ZN7QSliderC1EP7QWidget
	_ZN7QSliderC2EN2Qt11OrientationEP7QWidget
	_ZN7QSliderC2EP7QWidget
	_ZN7QSliderD0Ev
	_ZN7QSliderD1Ev
	_ZN7QSliderD2Ev
	_ZN7QTabBar10paintEventEP11QPaintEvent
	_ZN7QTabBar10setMovableEb
	_ZN7QTabBar10setTabDataEiRK8QVariant
	_ZN7QTabBar10setTabIconEiRK5QIcon
	_ZN7QTabBar10setTabTextEiRK7QString
	_ZN7QTabBar10tabRemovedEi
	_ZN7QTabBar10wheelEventEP11QWheelEvent
	_ZN7QTabBar11changeEventEP6QEvent
	_ZN7QTabBar11qt_metacallEN11QMetaObject4CallEiPPv
	_ZN7QTabBar11qt_metacastEPKc
	_ZN7QTabBar11resizeEventEP12QResizeEvent
	_ZN7QTabBar11setDrawBaseEb
	_ZN7QTabBar11setIconSizeERK5QSize
	_ZN7QTabBar11tabInsertedEi
	_ZN7QTabBar12setElideModeEN2Qt13TextElideModeE
	_ZN7QTabBar12setExpandingEb
	_ZN7QTabBar12setTabButtonEiNS_14ButtonPositionEP7QWidget
	_ZN7QTabBar13keyPressEventEP9QKeyEvent
	_ZN7QTabBar13setTabEnabledEib
	_ZN7QTabBar13setTabToolTipEiRK7QString
	_ZN7QTabBar13tabBarClickedEi
	_ZN7QTabBar14currentChangedEi
	_ZN7QTabBar14mouseMoveEventEP11QMouseEvent
	_ZN7QTabBar15mousePressEventEP11QMouseEvent
	_ZN7QTabBar15setCurrentIndexEi
	_ZN7QTabBar15setDocumentModeEb
	_ZN7QTabBar15setTabTextColorEiRK6QColor
	_ZN7QTabBar15setTabWhatsThisEiRK7QString
	_ZN7QTabBar15setTabsClosableEb
	_ZN7QTabBar15tabLayoutChangeEv
	_ZN7QTabBar16staticMetaObjectE
	_ZN7QTabBar17mouseReleaseEventEP11QMouseEvent
	_ZN7QTabBar17tabCloseRequestedEi
	_ZN7QTabBar18qt_static_metacallEP7QObjectN11QMetaObject4CallEiPPv
	_ZN7QTabBar19tabBarDoubleClickedEi
	_ZN7QTabBar20setUsesScrollButtonsEb
	_ZN7QTabBar28setSelectionBehaviorOnRemoveENS_17SelectionBehaviorE
	_ZN7QTabBar5eventEP6QEvent
	_ZN7QTabBar6addTabERK5QIconRK7QString
	_ZN7QTabBar6addTabERK7QString
	_ZN7QTabBar7moveTabEii
	_ZN7QTabBar8setShapeENS_5ShapeE
	_ZN7QTabBar8tabMovedEii
	_ZN7QTabBar9hideEventEP10QHideEvent
	_ZN7QTabBar9insertTabEiRK5QIconRK7QString
	_ZN7QTabBar9insertTabEiRK7QString
	_ZN7QTabBar9removeTabEi
	_ZN7QTabBar9showEventEP10QShowEvent
	_ZN7QTabBarC1EP7QWidget
	_ZN7QTabBarC2EP7QWidget
	_ZN7QTabBarD0Ev
	_ZN7QTabBarD1Ev
	_ZN7QTabBarD2Ev
	_ZN7QWidget10addActionsE5QListIP7QActionE
	_ZN7QWidget10adjustSizeEv
	_ZN7QWidget10clearFocusEv
	_ZN7QWidget10closeEventEP11QCloseEvent
	_ZN7QWidget10enterEventEP6QEvent
	_ZN7QWidget10leaveEventEP6QEvent
	_ZN7QWidget10paintEventEP11QPaintEvent
	_ZN7QWidget10setEnabledEb
	_ZN7QWidget10setPaletteERK8QPalette
	_ZN7QWidget10setToolTipERK7QString
	_ZN7QWidget10setVisibleEb
	_ZN7QWidget10showNormalEv
	_ZN7QWidget10stackUnderEPS_
	_ZN7QWidget10takeLayoutEv
	_ZN7QWidget10wheelEventEP11QWheelEvent
	_ZN7QWidget11actionEventEP12QActionEvent
	_ZN7QWidget11changeEventEP6QEvent
	_ZN7QWidget11createWinIdEv
	_ZN7QWidget11grabGestureEN2Qt11GestureTypeE6QFlagsINS0_11GestureFlagEE
	_ZN7QWidget11nativeEventERK10QByteArrayPvPl
	_ZN7QWidget11qt_metacallEN11QMetaObject4CallEiPPv
	_ZN7QWidget11qt_metacastEPKc
	_ZN7QWidget11resizeEventEP12QResizeEvent
	_ZN7QWidget11setBaseSizeEii
	_ZN7QWidget11setDisabledEb
	_ZN7QWidget11setGeometryERK5QRect
	_ZN7QWidget11setTabOrderEPS_S0_
	_ZN7QWidget11tabletEventEP12QTabletEvent
	_ZN7QWidget11unsetCursorEv
	_ZN7QWidget11unsetLocaleEv
	_ZN7QWidget12focusInEventEP11QFocusEvent
	_ZN7QWidget12grabKeyboardEv
	_ZN7QWidget12grabShortcutERK12QKeySequenceN2Qt15ShortcutContextE
	_ZN7QWidget12insertActionEP7QActionS1_
	_ZN7QWidget12mouseGrabberEv
	_ZN7QWidget12releaseMouseEv
	_ZN7QWidget12removeActionEP7QAction
	_ZN7QWidget12setAttributeEN2Qt15WidgetAttributeEb
	_ZN7QWidget12setFixedSizeERK5QSize
	_ZN7QWidget12setFixedSizeEii
	_ZN7QWidget12setStatusTipERK7QString
	_ZN7QWidget12setWhatsThisERK7QString
	_ZN7QWidget13dragMoveEventEP14QDragMoveEvent
	_ZN7QWidget13focusOutEventEP11QFocusEvent
	_ZN7QWidget13insertActionsEP7QAction5QListIS1_E
	_ZN7QWidget13keyPressEventEP9QKeyEvent
	_ZN7QWidget13setFixedWidthEi
	_ZN7QWidget13setFocusProxyEPS_
	_ZN7QWidget13setSizePolicyE11QSizePolicy
	_ZN7QWidget13setStyleSheetERK7QString
	_ZN7QWidget13setWindowIconERK5QIcon
	_ZN7QWidget13setWindowRoleERK7QString
	_ZN7QWidget13showMaximizedEv
	_ZN7QWidget13showMinimizedEv
	_ZN7QWidget13ungrabGestureEN2Qt11GestureTypeE
	_ZN7QWidget14activateWindowEv
	_ZN7QWidget14dragEnterEventEP15QDragEnterEvent
	_ZN7QWidget14dragLeaveEventEP15QDragLeaveEvent
	_ZN7QWidget14mouseMoveEventEP11QMouseEvent
	_ZN7QWidget14setAcceptDropsEb
	_ZN7QWidget14setFixedHeightEi
	_ZN7QWidget14setFocusPolicyEN2Qt11FocusPolicyE
	_ZN7QWidget14setMaximumSizeEii
	_ZN7QWidget14setMinimumSizeEii
	_ZN7QWidget14setWindowFlagsE6QFlagsIN2Qt10WindowTypeEE
	_ZN7QWidget14setWindowStateE6QFlagsIN2Qt11WindowStateEE
	_ZN7QWidget14setWindowTitleERK7QString
	_ZN7QWidget14showFullScreenEv
	_ZN7QWidget14updateGeometryEv
	_ZN7QWidget15keyReleaseEventEP9QKeyEvent
	_ZN7QWidget15keyboardGrabberEv
	_ZN7QWidget15mousePressEventEP11QMouseEvent
	_ZN7QWidget15releaseKeyboardEv
	_ZN7QWidget15releaseShortcutEi
	_ZN7QWidget15restoreGeometryERK10QByteArray
	_ZN7QWidget15setBackingStoreEP13QBackingStore
	_ZN7QWidget15setMaximumWidthEi
	_ZN7QWidget15setMinimumWidthEi
	_ZN7QWidget16contextMenuEventEP17QContextMenuEvent
	_ZN7QWidget16inputMethodEventEP17QInputMethodEvent
	_ZN7QWidget16setMaximumHeightEi
	_ZN7QWidget16setMinimumHeightEi
	_ZN7QWidget16setSizeIncrementEii
	_ZN7QWidget16setWindowOpacityEd
	_ZN7QWidget16staticMetaObjectE
	_ZN7QWidget16updateMicroFocusEv
	_ZN7QWidget17mouseReleaseEventEP11QMouseEvent
	_ZN7QWidget17setAccessibleNameERK7QString
	_ZN7QWidget17setBackgroundRoleEN8QPalette9ColorRoleE
	_ZN7QWidget17setForegroundRoleEN8QPalette9ColorRoleE
	_ZN7QWidget17setGraphicsEffectEP15QGraphicsEffect
	_ZN7QWidget17setUpdatesEnabledEb
	_ZN7QWidget17setWindowFilePathERK7QString
	_ZN7QWidget17setWindowIconTextERK7QString
	_ZN7QWidget17setWindowModalityEN2Qt14WindowModalityE
	_ZN7QWidget17setWindowModifiedEb
	_ZN7QWidget17windowIconChangedERK5QIcon
	_ZN7QWidget18focusNextPrevChildEb
	_ZN7QWidget18qt_static_metacallEP7QObjectN11QMetaObject4CallEiPPv
	_ZN7QWidget18setContentsMarginsERK8QMargins
	_ZN7QWidget18setContentsMarginsEiiii
	_ZN7QWidget18setLayoutDirectionEN2Qt15LayoutDirectionE
	_ZN7QWidget18setShortcutEnabledEib
	_ZN7QWidget18setToolTipDurationEi
	_ZN7QWidget18windowTitleChangedERK7QString
	_ZN7QWidget19overrideWindowFlagsE6QFlagsIN2Qt10WindowTypeEE
	_ZN7QWidget19overrideWindowStateE6QFlagsIN2Qt11WindowStateEE
	_ZN7QWidget19setInputMethodHintsE6QFlagsIN2Qt15InputMethodHintEE
	_ZN7QWidget20setContextMenuPolicyEN2Qt17ContextMenuPolicyE
	_ZN7QWidget20unsetLayoutDirectionEv
	_ZN7QWidget21createWindowContainerEP7QWindowPS_6QFlagsIN2Qt10WindowTypeEE
	_ZN7QWidget21mouseDoubleClickEventEP11QMouseEvent
	_ZN7QWidget21setAutoFillBackgroundEb
	_ZN7QWidget21setShortcutAutoRepeatEib
	_ZN7QWidget21windowIconTextChangedERK7QString
	_ZN7QWidget24setAccessibleDescriptionERK7QString
	_ZN7QWidget26customContextMenuRequestedERK6QPoint
	_ZN7QWidget4findEy
	_ZN7QWidget4grabERK5QRect
	_ZN7QWidget4hideEv
	_ZN7QWidget4moveERK6QPoint
	_ZN7QWidget4showEv
	_ZN7QWidget5closeEv
	_ZN7QWidget5eventEP6QEvent
	_ZN7QWidget5lowerEv
	_ZN7QWidget5raiseEv
	_ZN7QWidget6createEybb
	_ZN7QWidget6renderEP12QPaintDeviceRK6QPointRK7QRegion6QFlagsINS_10RenderFlagEE
	_ZN7QWidget6renderEP8QPainterRK6QPointRK7QRegion6QFlagsINS_10RenderFlagEE
	_ZN7QWidget6resizeERK5QSize
	_ZN7QWidget6scrollEii
	_ZN7QWidget6scrollEiiRK5QRect
	_ZN7QWidget6updateERK5QRect
	_ZN7QWidget6updateERK7QRegion
	_ZN7QWidget6updateEv
	_ZN7QWidget7destroyEbb
	_ZN7QWidget7repaintERK5QRect
	_ZN7QWidget7repaintERK7QRegion
	_ZN7QWidget7repaintEiiii
	_ZN7QWidget7repaintEv
	_ZN7QWidget7setFontERK5QFont
	_ZN7QWidget7setMaskERK7QBitmap
	_ZN7QWidget7setMaskERK7QRegion
	_ZN7QWidget8setFocusEN2Qt11FocusReasonE
	_ZN7QWidget8setStyleEP6QStyle
	_ZN7QWidget9addActionEP7QAction
	_ZN7QWidget9clearMaskEv
	_ZN7QWidget9dropEventEP10QDropEvent
	_ZN7QWidget9grabMouseERK7QCursor
	_ZN7QWidget9grabMouseEv
	_ZN7QWidget9hideEventEP10QHideEvent
	_ZN7QWidget9moveEventEP10QMoveEvent
	_ZN7QWidget9setCursorERK7QCursor
	_ZN7QWidget9setHiddenEb
	_ZN7QWidget9setLayoutEP7QLayout
	_ZN7QWidget9setLocaleERK7QLocale
	_ZN7QWidget9setParentEPS_
	_ZN7QWidget9setParentEPS_6QFlagsIN2Qt10WindowTypeEE
	_ZN7QWidget9showEventEP10QShowEvent
	_ZN7QWidgetC1EPS_6QFlagsIN2Qt10WindowTypeEE
	_ZN7QWidgetC1ER14QWidgetPrivatePS_6QFlagsIN2Qt10WindowTypeEE
	_ZN7QWidgetC2EPS_6QFlagsIN2Qt10WindowTypeEE
	_ZN7QWidgetC2ER14QWidgetPrivatePS_6QFlagsIN2Qt10WindowTypeEE
	_ZN7QWidgetD0Ev
	_ZN7QWidgetD1Ev
	_ZN7QWidgetD2Ev
	_ZN7QWizard10paintEventEP11QPaintEvent
	_ZN7QWizard10removePageEi
	_ZN7QWizard10setOptionsE6QFlagsINS_12WizardOptionEE
	_ZN7QWizard10setStartIdEi
	_ZN7QWizard10setVisibleEb
	_ZN7QWizard11cleanupPageEi
	_ZN7QWizard11nativeEventERK10QByteArrayPvPl
	_ZN7QWizard11pageRemovedEi
	_ZN7QWizard11qt_metacallEN11QMetaObject4CallEiPPv
	_ZN7QWizard11qt_metacastEPKc
	_ZN7QWizard11resizeEventEP12QResizeEvent
	_ZN7QWizard13helpRequestedEv
	_ZN7QWizard13setButtonTextENS_12WizardButtonERK7QString
	_ZN7QWizard13setSideWidgetEP7QWidget
	_ZN7QWizard14initializePageEi
	_ZN7QWizard14setTitleFormatEN2Qt10TextFormatE
	_ZN7QWizard14setWizardStyleENS_11WizardStyleE
	_ZN7QWizard15setButtonLayoutERK5QListINS_12WizardButtonEE
	_ZN7QWizard16currentIdChangedEi
	_ZN7QWizard16staticMetaObjectE
	_ZN7QWizard17setSubTitleFormatEN2Qt10TextFormatE
	_ZN7QWizard18qt_static_metacallEP7QObjectN11QMetaObject4CallEiPPv
	_ZN7QWizard18setDefaultPropertyEPKcS1_S1_
	_ZN7QWizard19customButtonClickedEi
	_ZN7QWizard19validateCurrentPageEv
	_ZN7QWizard4backEv
	_ZN7QWizard4doneEi
	_ZN7QWizard4nextEv
	_ZN7QWizard5eventEP6QEvent
	_ZN7QWizard7addPageEP11QWizardPage
	_ZN7QWizard7restartEv
	_ZN7QWizard7setPageEiP11QWizardPage
	_ZN7QWizard8setFieldERK7QStringRK8QVariant
	_ZN7QWizard9pageAddedEi
	_ZN7QWizard9setButtonENS_12WizardButtonEP15QAbstractButton
	_ZN7QWizard9setOptionENS_12WizardOptionEb
	_ZN7QWizard9setPixmapENS_12WizardPixmapERK7QPixmap
	_ZN7QWizardC1EP7QWidget6QFlagsIN2Qt10WindowTypeEE
	_ZN7QWizardC2EP7QWidget6QFlagsIN2Qt10WindowTypeEE
	_ZN7QWizardD0Ev
	_ZN7QWizardD1Ev
	_ZN7QWizardD2Ev
	_ZN8QGesture10setHotSpotERK7QPointF
	_ZN8QGesture11qt_metacallEN11QMetaObject4CallEiPPv
	_ZN8QGesture11qt_metacastEPKc
	_ZN8QGesture12unsetHotSpotEv
	_ZN8QGesture16staticMetaObjectE
	_ZN8QGesture18qt_static_metacallEP7QObjectN11QMetaObject4CallEiPPv
	_ZN8QGesture22setGestureCancelPolicyENS_19GestureCancelPolicyE
	_ZN8QGestureC1EP7QObject
	_ZN8QGestureC1ER15QGesturePrivateP7QObject
	_ZN8QGestureC2EP7QObject
	_ZN8QGestureC2ER15QGesturePrivateP7QObject
	_ZN8QGestureD0Ev
	_ZN8QGestureD1Ev
	_ZN8QGestureD2Ev
	_ZN8QMdiArea10childEventEP11QChildEvent
	_ZN8QMdiArea10paintEventEP11QPaintEvent
	_ZN8QMdiArea10timerEventEP11QTimerEvent
	_ZN8QMdiArea11eventFilterEP7QObjectP6QEvent
	_ZN8QMdiArea11qt_metacallEN11QMetaObject4CallEiPPv
	_ZN8QMdiArea11qt_metacastEPKc
	_ZN8QMdiArea11resizeEventEP12QResizeEvent
	_ZN8QMdiArea11setTabShapeEN10QTabWidget8TabShapeE
	_ZN8QMdiArea11setViewModeENS_8ViewModeE
	_ZN8QMdiArea12addSubWindowEP7QWidget6QFlagsIN2Qt10WindowTypeEE
	_ZN8QMdiArea13setBackgroundERK6QBrush
	_ZN8QMdiArea13setupViewportEP7QWidget
	_ZN8QMdiArea13viewportEventEP6QEvent
	_ZN8QMdiArea14setTabPositionEN10QTabWidget11TabPositionE
	_ZN8QMdiArea14setTabsMovableEb
	_ZN8QMdiArea14tileSubWindowsEv
	_ZN8QMdiArea15removeSubWindowEP7QWidget
	_ZN8QMdiArea15setDocumentModeEb
	_ZN8QMdiArea15setTabsClosableEb
	_ZN8QMdiArea16scrollContentsByEii
	_ZN8QMdiArea16staticMetaObjectE
	_ZN8QMdiArea17cascadeSubWindowsEv
	_ZN8QMdiArea18closeAllSubWindowsEv
	_ZN8QMdiArea18qt_static_metacallEP7QObjectN11QMetaObject4CallEiPPv
	_ZN8QMdiArea18setActivationOrderENS_11WindowOrderE
	_ZN8QMdiArea18setActiveSubWindowEP13QMdiSubWindow
	_ZN8QMdiArea18subWindowActivatedEP13QMdiSubWindow
	_ZN8QMdiArea20closeActiveSubWindowEv
	_ZN8QMdiArea21activateNextSubWindowEv
	_ZN8QMdiArea25activatePreviousSubWindowEv
	_ZN8QMdiArea5eventEP6QEvent
	_ZN8QMdiArea9setOptionENS_10AreaOptionEb
	_ZN8QMdiArea9showEventEP10QShowEvent
	_ZN8QMdiAreaC1EP7QWidget
	_ZN8QMdiAreaC2EP7QWidget
	_ZN8QMdiAreaD0Ev
	_ZN8QMdiAreaD1Ev
	_ZN8QMdiAreaD2Ev
	_ZN8QMenuBar10insertMenuEP7QActionP5QMenu
	_ZN8QMenuBar10leaveEventEP6QEvent
	_ZN8QMenuBar10paintEventEP11QPaintEvent
	_ZN8QMenuBar10setVisibleEb
	_ZN8QMenuBar10timerEventEP11QTimerEvent
	_ZN8QMenuBar11actionEventEP12QActionEvent
	_ZN8QMenuBar11changeEventEP6QEvent
	_ZN8QMenuBar11eventFilterEP7QObjectP6QEvent
	_ZN8QMenuBar11qt_metacallEN11QMetaObject4CallEiPPv
	_ZN8QMenuBar11qt_metacastEPKc
	_ZN8QMenuBar11resizeEventEP12QResizeEvent
	_ZN8QMenuBar12addSeparatorEv
	_ZN8QMenuBar12focusInEventEP11QFocusEvent
	_ZN8QMenuBar12setDefaultUpEb
	_ZN8QMenuBar13focusOutEventEP11QFocusEvent
	_ZN8QMenuBar13keyPressEventEP9QKeyEvent
	_ZN8QMenuBar14mouseMoveEventEP11QMouseEvent
	_ZN8QMenuBar15insertSeparatorEP7QAction
	_ZN8QMenuBar15mousePressEventEP11QMouseEvent
	_ZN8QMenuBar15platformMenuBarEv
	_ZN8QMenuBar15setActiveActionEP7QAction
	_ZN8QMenuBar15setCornerWidgetEP7QWidgetN2Qt6CornerE
	_ZN8QMenuBar16setNativeMenuBarEb
	_ZN8QMenuBar16staticMetaObjectE
	_ZN8QMenuBar17mouseReleaseEventEP11QMouseEvent
	_ZN8QMenuBar18qt_static_metacallEP7QObjectN11QMetaObject4CallEiPPv
	_ZN8QMenuBar5clearEv
	_ZN8QMenuBar5eventEP6QEvent
	_ZN8QMenuBar7addMenuEP5QMenu
	_ZN8QMenuBar7addMenuERK5QIconRK7QString
	_ZN8QMenuBar7addMenuERK7QString
	_ZN8QMenuBar7hoveredEP7QAction
	_ZN8QMenuBar9addActionERK7QString
	_ZN8QMenuBar9addActionERK7QStringPK7QObjectPKc
	_ZN8QMenuBar9triggeredEP7QAction
	_ZN8QMenuBarC1EP7QWidget
	_ZN8QMenuBarC2EP7QWidget
	_ZN8QMenuBarD0Ev
	_ZN8QMenuBarD1Ev
	_ZN8QMenuBarD2Ev
	_ZN8QSpinBox10setMaximumEi
	_ZN8QSpinBox10setMinimumEi
	_ZN8QSpinBox11qt_metacallEN11QMetaObject4CallEiPPv
	_ZN8QSpinBox11qt_metacastEPKc
	_ZN8QSpinBox12valueChangedERK7QString
	_ZN8QSpinBox12valueChangedEi
	_ZN8QSpinBox13setSingleStepEi
	_ZN8QSpinBox16staticMetaObjectE
	_ZN8QSpinBox18qt_static_metacallEP7QObjectN11QMetaObject4CallEiPPv
	_ZN8QSpinBox21setDisplayIntegerBaseEi
	_ZN8QSpinBox5eventEP6QEvent
	_ZN8QSpinBox8setRangeEii
	_ZN8QSpinBox8setValueEi
	_ZN8QSpinBox9setPrefixERK7QString
	_ZN8QSpinBox9setSuffixERK7QString
	_ZN8QSpinBoxC1EP7QWidget
	_ZN8QSpinBoxC2EP7QWidget
	_ZN8QSpinBoxD0Ev
	_ZN8QSpinBoxD1Ev
	_ZN8QSpinBoxD2Ev
	_ZN8QToolBar10paintEventEP11QPaintEvent
	_ZN8QToolBar10setMovableEb
	_ZN8QToolBar11actionEventEP12QActionEvent
	_ZN8QToolBar11changeEventEP6QEvent
	_ZN8QToolBar11qt_metacallEN11QMetaObject4CallEiPPv
	_ZN8QToolBar11qt_metacastEPKc
	_ZN8QToolBar11setIconSizeERK5QSize
	_ZN8QToolBar12addSeparatorEv
	_ZN8QToolBar12insertWidgetEP7QActionP7QWidget
	_ZN8QToolBar12setFloatableEb
	_ZN8QToolBar14movableChangedEb
	_ZN8QToolBar14setOrientationEN2Qt11OrientationE
	_ZN8QToolBar15actionTriggeredEP7QAction
	_ZN8QToolBar15iconSizeChangedERK5QSize
	_ZN8QToolBar15insertSeparatorEP7QAction
	_ZN8QToolBar15setAllowedAreasE6QFlagsIN2Qt11ToolBarAreaEE
	_ZN8QToolBar15topLevelChangedEb
	_ZN8QToolBar16staticMetaObjectE
	_ZN8QToolBar17visibilityChangedEb
	_ZN8QToolBar18orientationChangedEN2Qt11OrientationE
	_ZN8QToolBar18qt_static_metacallEP7QObjectN11QMetaObject4CallEiPPv
	_ZN8QToolBar18setToolButtonStyleEN2Qt15ToolButtonStyleE
	_ZN8QToolBar19allowedAreasChangedE6QFlagsIN2Qt11ToolBarAreaEE
	_ZN8QToolBar22toolButtonStyleChangedEN2Qt15ToolButtonStyleE
	_ZN8QToolBar5clearEv
	_ZN8QToolBar5eventEP6QEvent
	_ZN8QToolBar9addActionERK5QIconRK7QString
	_ZN8QToolBar9addActionERK5QIconRK7QStringPK7QObjectPKc
	_ZN8QToolBar9addActionERK7QString
	_ZN8QToolBar9addActionERK7QStringPK7QObjectPKc
	_ZN8QToolBar9addWidgetEP7QWidget
	_ZN8QToolBarC1EP7QWidget
	_ZN8QToolBarC1ERK7QStringP7QWidget
	_ZN8QToolBarC2EP7QWidget
	_ZN8QToolBarC2ERK7QStringP7QWidget
	_ZN8QToolBarD0Ev
	_ZN8QToolBarD1Ev
	_ZN8QToolBarD2Ev
	_ZN8QToolBox10insertItemEiP7QWidgetRK5QIconRK7QString
	_ZN8QToolBox10removeItemEi
	_ZN8QToolBox11changeEventEP6QEvent
	_ZN8QToolBox11itemRemovedEi
	_ZN8QToolBox11qt_metacallEN11QMetaObject4CallEiPPv
	_ZN8QToolBox11qt_metacastEPKc
	_ZN8QToolBox11setItemIconEiRK5QIcon
	_ZN8QToolBox11setItemTextEiRK7QString
	_ZN8QToolBox12itemInsertedEi
	_ZN8QToolBox14currentChangedEi
	_ZN8QToolBox14setItemEnabledEib
	_ZN8QToolBox14setItemToolTipEiRK7QString
	_ZN8QToolBox15setCurrentIndexEi
	_ZN8QToolBox16setCurrentWidgetEP7QWidget
	_ZN8QToolBox16staticMetaObjectE
	_ZN8QToolBox18qt_static_metacallEP7QObjectN11QMetaObject4CallEiPPv
	_ZN8QToolBox5eventEP6QEvent
	_ZN8QToolBox9showEventEP10QShowEvent
	_ZN8QToolBoxC1EP7QWidget6QFlagsIN2Qt10WindowTypeEE
	_ZN8QToolBoxC2EP7QWidget6QFlagsIN2Qt10WindowTypeEE
	_ZN8QToolBoxD0Ev
	_ZN8QToolBoxD1Ev
	_ZN8QToolBoxD2Ev
	_ZN8QToolTip10setPaletteERK8QPalette
	_ZN8QToolTip4fontEv
	_ZN8QToolTip4textEv
	_ZN8QToolTip7paletteEv
	_ZN8QToolTip7setFontERK5QFont
	_ZN8QToolTip8showTextERK6QPointRK7QStringP7QWidget
	_ZN8QToolTip8showTextERK6QPointRK7QStringP7QWidgetRK5QRect
	_ZN8QToolTip8showTextERK6QPointRK7QStringP7QWidgetRK5QRecti
	_ZN8QToolTip9isVisibleEv
	_ZN9QCheckBox10paintEventEP11QPaintEvent
	_ZN9QCheckBox11qt_metacallEN11QMetaObject4CallEiPPv
	_ZN9QCheckBox11qt_metacastEPKc
	_ZN9QCheckBox11setTristateEb
	_ZN9QCheckBox12stateChangedEi
	_ZN9QCheckBox13checkStateSetEv
	_ZN9QCheckBox13setCheckStateEN2Qt10CheckStateE
	_ZN9QCheckBox14mouseMoveEventEP11QMouseEvent
	_ZN9QCheckBox14nextCheckStateEv
	_ZN9QCheckBox16staticMetaObjectE
	_ZN9QCheckBox18qt_static_metacallEP7QObjectN11QMetaObject4CallEiPPv
	_ZN9QCheckBox5eventEP6QEvent
	_ZN9QCheckBoxC1EP7QWidget
	_ZN9QCheckBoxC1ERK7QStringP7QWidget
	_ZN9QCheckBoxC2EP7QWidget
	_ZN9QCheckBoxC2ERK7QStringP7QWidget
	_ZN9QCheckBoxD0Ev
	_ZN9QCheckBoxD1Ev
	_ZN9QCheckBoxD2Ev
	_ZN9QColormap10initializeEv
	_ZN9QColormap7cleanupEv
	_ZN9QColormap8instanceEi
	_ZN9QColormapC1ERKS_
	_ZN9QColormapC1Ev
	_ZN9QColormapC2ERKS_
	_ZN9QColormapC2Ev
	_ZN9QColormapD1Ev
	_ZN9QColormapD2Ev
	_ZN9QColormapaSERKS_
	_ZN9QComboBox10insertItemEiRK5QIconRK7QStringRK8QVariant
	_ZN9QComboBox10paintEventEP11QPaintEvent
	_ZN9QComboBox10removeItemEi
	_ZN9QComboBox10wheelEventEP11QWheelEvent
	_ZN9QComboBox11changeEventEP6QEvent
	_ZN9QComboBox11highlightedERK7QString
	_ZN9QComboBox11highlightedEi
	_ZN9QComboBox11insertItemsEiRK11QStringList
	_ZN9QComboBox11qt_metacallEN11QMetaObject4CallEiPPv
	_ZN9QComboBox11qt_metacastEPKc
	_ZN9QComboBox11resizeEventEP12QResizeEvent
	_ZN9QComboBox11setEditTextERK7QString
	_ZN9QComboBox11setEditableEb
	_ZN9QComboBox11setIconSizeERK5QSize
	_ZN9QComboBox11setItemDataEiRK8QVarianti
	_ZN9QComboBox11setItemIconEiRK5QIcon
	_ZN9QComboBox11setItemTextEiRK7QString
	_ZN9QComboBox11setLineEditEP9QLineEdit
	_ZN9QComboBox11setMaxCountEi
	_ZN9QComboBox12focusInEventEP11QFocusEvent
	_ZN9QComboBox12setCompleterEP10QCompleter
	_ZN9QComboBox12setValidatorEPK10QValidator
	_ZN9QComboBox13clearEditTextEv
	_ZN9QComboBox13focusOutEventEP11QFocusEvent
	_ZN9QComboBox13keyPressEventEP9QKeyEvent
	_ZN9QComboBox14setCurrentTextERK7QString
	_ZN9QComboBox14setModelColumnEi
	_ZN9QComboBox15editTextChangedERK7QString
	_ZN9QComboBox15insertSeparatorEi
	_ZN9QComboBox15keyReleaseEventEP9QKeyEvent
	_ZN9QComboBox15mousePressEventEP11QMouseEvent
	_ZN9QComboBox15setCurrentIndexEi
	_ZN9QComboBox15setInsertPolicyENS_12InsertPolicyE
	_ZN9QComboBox15setItemDelegateEP21QAbstractItemDelegate
	_ZN9QComboBox16contextMenuEventEP17QContextMenuEvent
	_ZN9QComboBox16inputMethodEventEP17QInputMethodEvent
	_ZN9QComboBox16staticMetaObjectE
	_ZN9QComboBox17mouseReleaseEventEP11QMouseEvent
	_ZN9QComboBox17setAutoCompletionEb
	_ZN9QComboBox17setRootModelIndexERK11QModelIndex
	_ZN9QComboBox18currentTextChangedERK7QString
	_ZN9QComboBox18qt_static_metacallEP7QObjectN11QMetaObject4CallEiPPv
	_ZN9QComboBox18setMaxVisibleItemsEi
	_ZN9QComboBox19currentIndexChangedERK7QString
	_ZN9QComboBox19currentIndexChangedEi
	_ZN9QComboBox19setSizeAdjustPolicyENS_16SizeAdjustPolicyE
	_ZN9QComboBox20setDuplicatesEnabledEb
	_ZN9QComboBox24setMinimumContentsLengthEi
	_ZN9QComboBox32setAutoCompletionCaseSensitivityEN2Qt15CaseSensitivityE
	_ZN9QComboBox5clearEv
	_ZN9QComboBox5eventEP6QEvent
	_ZN9QComboBox7setViewEP17QAbstractItemView
	_ZN9QComboBox8setFrameEb
	_ZN9QComboBox8setModelEP18QAbstractItemModel
	_ZN9QComboBox9activatedERK7QString
	_ZN9QComboBox9activatedEi
	_ZN9QComboBox9hideEventEP10QHideEvent
	_ZN9QComboBox9hidePopupEv
	_ZN9QComboBox9showEventEP10QShowEvent
	_ZN9QComboBox9showPopupEv
	_ZN9QComboBoxC1EP7QWidget
	_ZN9QComboBoxC1ER16QComboBoxPrivateP7QWidget
	_ZN9QComboBoxC2EP7QWidget
	_ZN9QComboBoxC2ER16QComboBoxPrivateP7QWidget
	_ZN9QComboBoxD0Ev
	_ZN9QComboBoxD1Ev
	_ZN9QComboBoxD2Ev
	_ZN9QDateEdit11qt_metacallEN11QMetaObject4CallEiPPv
	_ZN9QDateEdit11qt_metacastEPKc
	_ZN9QDateEdit15userDateChangedERK5QDate
	_ZN9QDateEdit16staticMetaObjectE
	_ZN9QDateEdit18qt_static_metacallEP7QObjectN11QMetaObject4CallEiPPv
	_ZN9QDateEditC1EP7QWidget
	_ZN9QDateEditC1ERK5QDateP7QWidget
	_ZN9QDateEditC2EP7QWidget
	_ZN9QDateEditC2ERK5QDateP7QWidget
	_ZN9QDateEditD0Ev
	_ZN9QDateEditD1Ev
	_ZN9QDateEditD2Ev
	_ZN9QDirModel10setSortingE6QFlagsIN4QDir8SortFlagEE
	_ZN9QDirModel11qt_metacallEN11QMetaObject4CallEiPPv
	_ZN9QDirModel11qt_metacastEPKc
	_ZN9QDirModel11setReadOnlyEb
	_ZN9QDirModel12dropMimeDataEPK9QMimeDataN2Qt10DropActionEiiRK11QModelIndex
	_ZN9QDirModel14setNameFiltersERK11QStringList
	_ZN9QDirModel15setIconProviderEP17QFileIconProvider
	_ZN9QDirModel16staticMetaObjectE
	_ZN9QDirModel17setLazyChildCountEb
	_ZN9QDirModel18qt_static_metacallEP7QObjectN11QMetaObject4CallEiPPv
	_ZN9QDirModel18setResolveSymlinksEb
	_ZN9QDirModel4sortEiN2Qt9SortOrderE
	_ZN9QDirModel5mkdirERK11QModelIndexRK7QString
	_ZN9QDirModel5rmdirERK11QModelIndex
	_ZN9QDirModel6removeERK11QModelIndex
	_ZN9QDirModel7refreshERK11QModelIndex
	_ZN9QDirModel7setDataERK11QModelIndexRK8QVarianti
	_ZN9QDirModel9setFilterE6QFlagsIN4QDir6FilterEE
	_ZN9QDirModelC1EP7QObject
	_ZN9QDirModelC1ER16QDirModelPrivateP7QObject
	_ZN9QDirModelC1ERK11QStringList6QFlagsIN4QDir6FilterEES3_INS4_8SortFlagEEP7QObject
	_ZN9QDirModelC2EP7QObject
	_ZN9QDirModelC2ER16QDirModelPrivateP7QObject
	_ZN9QDirModelC2ERK11QStringList6QFlagsIN4QDir6FilterEES3_INS4_8SortFlagEEP7QObject
	_ZN9QDirModelD0Ev
	_ZN9QDirModelD1Ev
	_ZN9QDirModelD2Ev
	_ZN9QGroupBox10childEventEP11QChildEvent
	_ZN9QGroupBox10paintEventEP11QPaintEvent
	_ZN9QGroupBox10setCheckedEb
	_ZN9QGroupBox11changeEventEP6QEvent
	_ZN9QGroupBox11qt_metacallEN11QMetaObject4CallEiPPv
	_ZN9QGroupBox11qt_metacastEPKc
	_ZN9QGroupBox11resizeEventEP12QResizeEvent
	_ZN9QGroupBox12focusInEventEP11QFocusEvent
	_ZN9QGroupBox12setAlignmentEi
	_ZN9QGroupBox12setCheckableEb
	_ZN9QGroupBox14mouseMoveEventEP11QMouseEvent
	_ZN9QGroupBox15mousePressEventEP11QMouseEvent
	_ZN9QGroupBox16staticMetaObjectE
	_ZN9QGroupBox17mouseReleaseEventEP11QMouseEvent
	_ZN9QGroupBox18qt_static_metacallEP7QObjectN11QMetaObject4CallEiPPv
	_ZN9QGroupBox5eventEP6QEvent
	_ZN9QGroupBox7clickedEb
	_ZN9QGroupBox7setFlatEb
	_ZN9QGroupBox7toggledEb
	_ZN9QGroupBox8setTitleERK7QString
	_ZN9QGroupBoxC1EP7QWidget
	_ZN9QGroupBoxC1ERK7QStringP7QWidget
	_ZN9QGroupBoxC2EP7QWidget
	_ZN9QGroupBoxC2ERK7QStringP7QWidget
	_ZN9QGroupBoxD0Ev
	_ZN9QGroupBoxD1Ev
	_ZN9QGroupBoxD2Ev
	_ZN9QLineEdit10paintEventEP11QPaintEvent
	_ZN9QLineEdit10textEditedERK7QString
	_ZN9QLineEdit11changeEventEP6QEvent
	_ZN9QLineEdit11qt_metacallEN11QMetaObject4CallEiPPv
	_ZN9QLineEdit11qt_metacastEPKc
	_ZN9QLineEdit11setEchoModeENS_8EchoModeE
	_ZN9QLineEdit11setModifiedEb
	_ZN9QLineEdit11setReadOnlyEb
	_ZN9QLineEdit11textChangedERK7QString
	_ZN9QLineEdit12focusInEventEP11QFocusEvent
	_ZN9QLineEdit12setAlignmentE6QFlagsIN2Qt13AlignmentFlagEE
	_ZN9QLineEdit12setCompleterEP10QCompleter
	_ZN9QLineEdit12setInputMaskERK7QString
	_ZN9QLineEdit12setMaxLengthEi
	_ZN9QLineEdit12setSelectionEii
	_ZN9QLineEdit12setValidatorEPK10QValidator
	_ZN9QLineEdit13cursorForwardEbi
	_ZN9QLineEdit13dragMoveEventEP14QDragMoveEvent
	_ZN9QLineEdit13focusOutEventEP11QFocusEvent
	_ZN9QLineEdit13keyPressEventEP9QKeyEvent
	_ZN9QLineEdit13returnPressedEv
	_ZN9QLineEdit14cursorBackwardEbi
	_ZN9QLineEdit14dragEnterEventEP15QDragEnterEvent
	_ZN9QLineEdit14dragLeaveEventEP15QDragLeaveEvent
	_ZN9QLineEdit14mouseMoveEventEP11QMouseEvent
	_ZN9QLineEdit14setDragEnabledEb
	_ZN9QLineEdit14setTextMarginsERK8QMargins
	_ZN9QLineEdit14setTextMarginsEiiii
	_ZN9QLineEdit15editingFinishedEv
	_ZN9QLineEdit15mousePressEventEP11QMouseEvent
	_ZN9QLineEdit16contextMenuEventEP17QContextMenuEvent
	_ZN9QLineEdit16cursorPositionAtERK6QPoint
	_ZN9QLineEdit16inputMethodEventEP17QInputMethodEvent
	_ZN9QLineEdit16selectionChangedEv
	_ZN9QLineEdit16staticMetaObjectE
	_ZN9QLineEdit17cursorWordForwardEb
	_ZN9QLineEdit17mouseReleaseEventEP11QMouseEvent
	_ZN9QLineEdit17setCursorPositionEi
	_ZN9QLineEdit18cursorWordBackwardEb
	_ZN9QLineEdit18qt_static_metacallEP7QObjectN11QMetaObject4CallEiPPv
	_ZN9QLineEdit18setCursorMoveStyleEN2Qt15CursorMoveStyleE
	_ZN9QLineEdit18setPlaceholderTextERK7QString
	_ZN9QLineEdit21cursorPositionChangedEii
	_ZN9QLineEdit21mouseDoubleClickEventEP11QMouseEvent
	_ZN9QLineEdit21setClearButtonEnabledEb
	_ZN9QLineEdit25createStandardContextMenuEv
	_ZN9QLineEdit3cutEv
	_ZN9QLineEdit3delEv
	_ZN9QLineEdit3endEb
	_ZN9QLineEdit4homeEb
	_ZN9QLineEdit4redoEv
	_ZN9QLineEdit4undoEv
	_ZN9QLineEdit5clearEv
	_ZN9QLineEdit5eventEP6QEvent
	_ZN9QLineEdit5pasteEv
	_ZN9QLineEdit6insertERK7QString
	_ZN9QLineEdit7setTextERK7QString
	_ZN9QLineEdit8deselectEv
	_ZN9QLineEdit8setFrameEb
	_ZN9QLineEdit9addActionEP7QActionNS_14ActionPositionE
	_ZN9QLineEdit9addActionERK5QIconNS_14ActionPositionE
	_ZN9QLineEdit9backspaceEv
	_ZN9QLineEdit9dropEventEP10QDropEvent
	_ZN9QLineEdit9selectAllEv
	_ZN9QLineEditC1EP7QWidget
	_ZN9QLineEditC1ERK7QStringP7QWidget
	_ZN9QLineEditC2EP7QWidget
	_ZN9QLineEditC2ERK7QStringP7QWidget
	_ZN9QLineEditD0Ev
	_ZN9QLineEditD1Ev
	_ZN9QLineEditD2Ev
	_ZN9QListView10moveCursorEN17QAbstractItemView12CursorActionE6QFlagsIN2Qt16KeyboardModifierEE
	_ZN9QListView10paintEventEP11QPaintEvent
	_ZN9QListView10setSpacingEi
	_ZN9QListView10timerEventEP11QTimerEvent
	_ZN9QListView11dataChangedERK11QModelIndexS2_RK7QVectorIiE
	_ZN9QListView11qt_metacallEN11QMetaObject4CallEiPPv
	_ZN9QListView11qt_metacastEPKc
	_ZN9QListView11resizeEventEP12QResizeEvent
	_ZN9QListView11setGridSizeERK5QSize
	_ZN9QListView11setMovementENS_8MovementE
	_ZN9QListView11setViewModeENS_8ViewModeE
	_ZN9QListView11setWordWrapEb
	_ZN9QListView11setWrappingEb
	_ZN9QListView12indexesMovedERK5QListI11QModelIndexE
	_ZN9QListView12rowsInsertedERK11QModelIndexii
	_ZN9QListView12setBatchSizeEi
	_ZN9QListView12setRootIndexERK11QModelIndex
	_ZN9QListView12setRowHiddenEib
	_ZN9QListView12setSelectionERK5QRect6QFlagsIN19QItemSelectionModel13SelectionFlagEE
	_ZN9QListView13doItemsLayoutEv
	_ZN9QListView13dragMoveEventEP14QDragMoveEvent
	_ZN9QListView13setLayoutModeENS_10LayoutModeE
	_ZN9QListView13setResizeModeENS_10ResizeModeE
	_ZN9QListView14currentChangedERK11QModelIndexS2_
	_ZN9QListView14dragLeaveEventEP15QDragLeaveEvent
	_ZN9QListView14mouseMoveEventEP11QMouseEvent
	_ZN9QListView14resizeContentsEii
	_ZN9QListView14setModelColumnEi
	_ZN9QListView16scrollContentsByEii
	_ZN9QListView16selectionChangedERK14QItemSelectionS2_
	_ZN9QListView16staticMetaObjectE
	_ZN9QListView16updateGeometriesEv
	_ZN9QListView17mouseReleaseEventEP11QMouseEvent
	_ZN9QListView18clearPropertyFlagsEv
	_ZN9QListView18qt_static_metacallEP7QObjectN11QMetaObject4CallEiPPv
	_ZN9QListView19setPositionForIndexERK6QPointRK11QModelIndex
	_ZN9QListView19setUniformItemSizesEb
	_ZN9QListView20rowsAboutToBeRemovedERK11QModelIndexii
	_ZN9QListView23setSelectionRectVisibleEb
	_ZN9QListView5eventEP6QEvent
	_ZN9QListView5resetEv
	_ZN9QListView7setFlowENS_4FlowE
	_ZN9QListView8scrollToERK11QModelIndexN17QAbstractItemView10ScrollHintE
	_ZN9QListView9dropEventEP10QDropEvent
	_ZN9QListView9startDragE6QFlagsIN2Qt10DropActionEE
	_ZN9QListViewC1EP7QWidget
	_ZN9QListViewC1ER16QListViewPrivateP7QWidget
	_ZN9QListViewC2EP7QWidget
	_ZN9QListViewC2ER16QListViewPrivateP7QWidget
	_ZN9QListViewD0Ev
	_ZN9QListViewD1Ev
	_ZN9QListViewD2Ev
	_ZN9QScroller11grabGestureEP7QObjectNS_19ScrollerGestureTypeE
	_ZN9QScroller11handleInputENS_5InputERK7QPointFx
	_ZN9QScroller11hasScrollerEP7QObject
	_ZN9QScroller11qt_metacallEN11QMetaObject4CallEiPPv
	_ZN9QScroller11qt_metacastEPKc
	_ZN9QScroller12stateChangedENS_5StateE
	_ZN9QScroller13ensureVisibleERK6QRectFdd
	_ZN9QScroller13ensureVisibleERK6QRectFddi
	_ZN9QScroller13ungrabGestureEP7QObject
	_ZN9QScroller14grabbedGestureEP7QObject
	_ZN9QScroller15activeScrollersEv
	_ZN9QScroller16staticMetaObjectE
	_ZN9QScroller17setSnapPositionsXERK5QListIdE
	_ZN9QScroller17setSnapPositionsXEdd
	_ZN9QScroller17setSnapPositionsYERK5QListIdE
	_ZN9QScroller17setSnapPositionsYEdd
	_ZN9QScroller18qt_static_metacallEP7QObjectN11QMetaObject4CallEiPPv
	_ZN9QScroller18resendPrepareEventEv
	_ZN9QScroller21setScrollerPropertiesERK19QScrollerProperties
	_ZN9QScroller25scrollerPropertiesChangedERK19QScrollerProperties
	_ZN9QScroller4stopEv
	_ZN9QScroller8scrollToERK7QPointF
	_ZN9QScroller8scrollToERK7QPointFi
	_ZN9QScroller8scrollerEP7QObject
	_ZN9QScroller8scrollerEPK7QObject
	_ZN9QScrollerC1EP7QObject
	_ZN9QScrollerC2EP7QObject
	_ZN9QScrollerD0Ev
	_ZN9QScrollerD1Ev
	_ZN9QScrollerD2Ev
	_ZN9QShortcut10setContextEN2Qt15ShortcutContextE
	_ZN9QShortcut10setEnabledEb
	_ZN9QShortcut11qt_metacallEN11QMetaObject4CallEiPPv
	_ZN9QShortcut11qt_metacastEPKc
	_ZN9QShortcut12setWhatsThisERK7QString
	_ZN9QShortcut13setAutoRepeatEb
	_ZN9QShortcut16staticMetaObjectE
	_ZN9QShortcut18qt_static_metacallEP7QObjectN11QMetaObject4CallEiPPv
	_ZN9QShortcut20activatedAmbiguouslyEv
	_ZN9QShortcut5eventEP6QEvent
	_ZN9QShortcut6setKeyERK12QKeySequence
	_ZN9QShortcut9activatedEv
	_ZN9QShortcutC1EP7QWidget
	_ZN9QShortcutC1ERK12QKeySequenceP7QWidgetPKcS6_N2Qt15ShortcutContextE
	_ZN9QShortcutC2EP7QWidget
	_ZN9QShortcutC2ERK12QKeySequenceP7QWidgetPKcS6_N2Qt15ShortcutContextE
	_ZN9QShortcutD0Ev
	_ZN9QShortcutD1Ev
	_ZN9QShortcutD2Ev
	_ZN9QSizeGrip10paintEventEP11QPaintEvent
	_ZN9QSizeGrip10setVisibleEb
	_ZN9QSizeGrip11eventFilterEP7QObjectP6QEvent
	_ZN9QSizeGrip11qt_metacallEN11QMetaObject4CallEiPPv
	_ZN9QSizeGrip11qt_metacastEPKc
	_ZN9QSizeGrip14mouseMoveEventEP11QMouseEvent
	_ZN9QSizeGrip15mousePressEventEP11QMouseEvent
	_ZN9QSizeGrip16staticMetaObjectE
	_ZN9QSizeGrip17mouseReleaseEventEP11QMouseEvent
	_ZN9QSizeGrip18qt_static_metacallEP7QObjectN11QMetaObject4CallEiPPv
	_ZN9QSizeGrip5eventEP6QEvent
	_ZN9QSizeGrip9hideEventEP10QHideEvent
	_ZN9QSizeGrip9moveEventEP10QMoveEvent
	_ZN9QSizeGrip9showEventEP10QShowEvent
	_ZN9QSizeGripC1EP7QWidget
	_ZN9QSizeGripC2EP7QWidget
	_ZN9QSizeGripD0Ev
	_ZN9QSizeGripD1Ev
	_ZN9QSizeGripD2Ev
	_ZN9QSplitter10childEventEP11QChildEvent
	_ZN9QSplitter11changeEventEP6QEvent
	_ZN9QSplitter11qt_metacallEN11QMetaObject4CallEiPPv
	_ZN9QSplitter11qt_metacastEPKc
	_ZN9QSplitter11resizeEventEP12QResizeEvent
	_ZN9QSplitter12createHandleEv
	_ZN9QSplitter12insertWidgetEiP7QWidget
	_ZN9QSplitter12moveSplitterEii
	_ZN9QSplitter12restoreStateERK10QByteArray
	_ZN9QSplitter13setRubberBandEi
	_ZN9QSplitter13splitterMovedEii
	_ZN9QSplitter14setCollapsibleEib
	_ZN9QSplitter14setHandleWidthEi
	_ZN9QSplitter14setOrientationEN2Qt11OrientationE
	_ZN9QSplitter15setOpaqueResizeEb
	_ZN9QSplitter16setStretchFactorEii
	_ZN9QSplitter16staticMetaObjectE
	_ZN9QSplitter18qt_static_metacallEP7QObjectN11QMetaObject4CallEiPPv
	_ZN9QSplitter20closestLegalPositionEii
	_ZN9QSplitter22setChildrenCollapsibleEb
	_ZN9QSplitter5eventEP6QEvent
	_ZN9QSplitter7refreshEv
	_ZN9QSplitter8setSizesERK5QListIiE
	_ZN9QSplitter9addWidgetEP7QWidget
	_ZN9QSplitterC1EN2Qt11OrientationEP7QWidget
	_ZN9QSplitterC1EP7QWidget
	_ZN9QSplitterC2EN2Qt11OrientationEP7QWidget
	_ZN9QSplitterC2EP7QWidget
	_ZN9QSplitterD0Ev
	_ZN9QSplitterD1Ev
	_ZN9QSplitterD2Ev
	_ZN9QTextEdit10insertHtmlERK7QString
	_ZN9QTextEdit10moveCursorEN11QTextCursor13MoveOperationENS0_8MoveModeE
	_ZN9QTextEdit10paintEventEP11QPaintEvent
	_ZN9QTextEdit10timerEventEP11QTimerEvent
	_ZN9QTextEdit10wheelEventEP11QWheelEvent
	_ZN9QTextEdit11changeEventEP6QEvent
	_ZN9QTextEdit11qt_metacallEN11QMetaObject4CallEiPPv
	_ZN9QTextEdit11qt_metacastEPKc
	_ZN9QTextEdit11resizeEventEP12QResizeEvent
	_ZN9QTextEdit11setDocumentEP13QTextDocument
	_ZN9QTextEdit11setReadOnlyEb
	_ZN9QTextEdit11textChangedEv
	_ZN9QTextEdit12focusInEventEP11QFocusEvent
	_ZN9QTextEdit12loadResourceEiRK4QUrl
	_ZN9QTextEdit12setAlignmentE6QFlagsIN2Qt13AlignmentFlagEE
	_ZN9QTextEdit12setPlainTextERK7QString
	_ZN9QTextEdit12setTextColorERK6QColor
	_ZN9QTextEdit13copyAvailableEb
	_ZN9QTextEdit13dragMoveEventEP14QDragMoveEvent
	_ZN9QTextEdit13focusOutEventEP11QFocusEvent
	_ZN9QTextEdit13keyPressEventEP9QKeyEvent
	_ZN9QTextEdit13redoAvailableEb
	_ZN9QTextEdit13setFontFamilyERK7QString
	_ZN9QTextEdit13setFontItalicEb
	_ZN9QTextEdit13setFontWeightEi
	_ZN9QTextEdit13setTextCursorERK11QTextCursor
	_ZN9QTextEdit13undoAvailableEb
	_ZN9QTextEdit14dragEnterEventEP15QDragEnterEvent
	_ZN9QTextEdit14dragLeaveEventEP15QDragLeaveEvent
	_ZN9QTextEdit14mouseMoveEventEP11QMouseEvent
	_ZN9QTextEdit14scrollToAnchorERK7QString
	_ZN9QTextEdit14setCurrentFontERK5QFont
	_ZN9QTextEdit14setCursorWidthEi
	_ZN9QTextEdit15doSetTextCursorERK11QTextCursor
	_ZN9QTextEdit15insertPlainTextERK7QString
	_ZN9QTextEdit15keyReleaseEventEP9QKeyEvent
	_ZN9QTextEdit15mousePressEventEP11QMouseEvent
	_ZN9QTextEdit15setLineWrapModeENS_12LineWrapModeE
	_ZN9QTextEdit15setTabStopWidthEi
	_ZN9QTextEdit15setWordWrapModeEN11QTextOption8WrapModeE
	_ZN9QTextEdit16contextMenuEventEP17QContextMenuEvent
	_ZN9QTextEdit16inputMethodEventEP17QInputMethodEvent
	_ZN9QTextEdit16scrollContentsByEii
	_ZN9QTextEdit16selectionChangedEv
	_ZN9QTextEdit16setFontPointSizeEd
	_ZN9QTextEdit16setFontUnderlineEb
	_ZN9QTextEdit16setOverwriteModeEb
	_ZN9QTextEdit16staticMetaObjectE
	_ZN9QTextEdit17mouseReleaseEventEP11QMouseEvent
	_ZN9QTextEdit17setAcceptRichTextEb
	_ZN9QTextEdit17setAutoFormattingE6QFlagsINS_18AutoFormattingFlagEE
	_ZN9QTextEdit18focusNextPrevChildEb
	_ZN9QTextEdit18insertFromMimeDataEPK9QMimeData
	_ZN9QTextEdit18qt_static_metacallEP7QObjectN11QMetaObject4CallEiPPv
	_ZN9QTextEdit18setExtraSelectionsERK5QListINS_14ExtraSelectionEE
	_ZN9QTextEdit18setPlaceholderTextERK7QString
	_ZN9QTextEdit18setTabChangesFocusEb
	_ZN9QTextEdit19ensureCursorVisibleEv
	_ZN9QTextEdit20setCurrentCharFormatERK15QTextCharFormat
	_ZN9QTextEdit21cursorPositionChangedEv
	_ZN9QTextEdit21mouseDoubleClickEventEP11QMouseEvent
	_ZN9QTextEdit22mergeCurrentCharFormatERK15QTextCharFormat
	_ZN9QTextEdit22setTextBackgroundColorERK6QColor
	_ZN9QTextEdit23setTextInteractionFlagsE6QFlagsIN2Qt19TextInteractionFlagEE
	_ZN9QTextEdit24currentCharFormatChangedERK15QTextCharFormat
	_ZN9QTextEdit24setLineWrapColumnOrWidthEi
	_ZN9QTextEdit25createStandardContextMenuERK6QPoint
	_ZN9QTextEdit25createStandardContextMenuEv
	_ZN9QTextEdit3cutEv
	_ZN9QTextEdit4copyEv
	_ZN9QTextEdit4findERK7QRegExp6QFlagsIN13QTextDocument8FindFlagEE
	_ZN9QTextEdit4findERK7QString6QFlagsIN13QTextDocument8FindFlagEE
	_ZN9QTextEdit4redoEv
	_ZN9QTextEdit4undoEv
	_ZN9QTextEdit5clearEv
	_ZN9QTextEdit5eventEP6QEvent
	_ZN9QTextEdit5pasteEv
	_ZN9QTextEdit6appendERK7QString
	_ZN9QTextEdit6zoomInEi
	_ZN9QTextEdit7setHtmlERK7QString
	_ZN9QTextEdit7setTextERK7QString
	_ZN9QTextEdit7zoomOutEi
	_ZN9QTextEdit9dropEventEP10QDropEvent
	_ZN9QTextEdit9selectAllEv
	_ZN9QTextEdit9showEventEP10QShowEvent
	_ZN9QTextEditC1EP7QWidget
	_ZN9QTextEditC1ER16QTextEditPrivateP7QWidget
	_ZN9QTextEditC1ERK7QStringP7QWidget
	_ZN9QTextEditC2EP7QWidget
	_ZN9QTextEditC2ER16QTextEditPrivateP7QWidget
	_ZN9QTextEditC2ERK7QStringP7QWidget
	_ZN9QTextEditD0Ev
	_ZN9QTextEditD1Ev
	_ZN9QTextEditD2Ev
	_ZN9QTimeEdit11qt_metacallEN11QMetaObject4CallEiPPv
	_ZN9QTimeEdit11qt_metacastEPKc
	_ZN9QTimeEdit15userTimeChangedERK5QTime
	_ZN9QTimeEdit16staticMetaObjectE
	_ZN9QTimeEdit18qt_static_metacallEP7QObjectN11QMetaObject4CallEiPPv
	_ZN9QTimeEditC1EP7QWidget
	_ZN9QTimeEditC1ERK5QTimeP7QWidget
	_ZN9QTimeEditC2EP7QWidget
	_ZN9QTimeEditC2ERK5QTimeP7QWidget
	_ZN9QTimeEditD0Ev
	_ZN9QTimeEditD1Ev
	_ZN9QTimeEditD2Ev
	_ZN9QTreeView10hideColumnEi
	_ZN9QTreeView10moveCursorEN17QAbstractItemView12CursorActionE6QFlagsIN2Qt16KeyboardModifierEE
	_ZN9QTreeView10paintEventEP11QPaintEvent
	_ZN9QTreeView10showColumnEi
	_ZN9QTreeView10timerEventEP11QTimerEvent
	_ZN9QTreeView11collapseAllEv
	_ZN9QTreeView11columnMovedEv
	_ZN9QTreeView11dataChangedERK11QModelIndexS2_RK7QVectorIiE
	_ZN9QTreeView11qt_metacallEN11QMetaObject4CallEiPPv
	_ZN9QTreeView11qt_metacastEPKc
	_ZN9QTreeView11rowsRemovedERK11QModelIndexii
	_ZN9QTreeView11setAnimatedEb
	_ZN9QTreeView11setExpandedERK11QModelIndexb
	_ZN9QTreeView11setWordWrapEb
	_ZN9QTreeView12rowsInsertedERK11QModelIndexii
	_ZN9QTreeView12setRootIndexERK11QModelIndex
	_ZN9QTreeView12setRowHiddenEiRK11QModelIndexb
	_ZN9QTreeView12setSelectionERK5QRect6QFlagsIN19QItemSelectionModel13SelectionFlagEE
	_ZN9QTreeView12sortByColumnEi
	_ZN9QTreeView12sortByColumnEiN2Qt9SortOrderE
	_ZN9QTreeView13columnResizedEiii
	_ZN9QTreeView13doItemsLayoutEv
	_ZN9QTreeView13dragMoveEventEP14QDragMoveEvent
	_ZN9QTreeView13expandToDepthEi
	_ZN9QTreeView13keyPressEventEP9QKeyEvent
	_ZN9QTreeView13viewportEventEP6QEvent
	_ZN9QTreeView14currentChangedERK11QModelIndexS2_
	_ZN9QTreeView14keyboardSearchERK7QString
	_ZN9QTreeView14mouseMoveEventEP11QMouseEvent
	_ZN9QTreeView14setColumnWidthEii
	_ZN9QTreeView14setIndentationEi
	_ZN9QTreeView15mousePressEventEP11QMouseEvent
	_ZN9QTreeView15setColumnHiddenEib
	_ZN9QTreeView15setHeaderHiddenEb
	_ZN9QTreeView15setTreePositionEi
	_ZN9QTreeView16scrollContentsByEii
	_ZN9QTreeView16selectionChangedERK14QItemSelectionS2_
	_ZN9QTreeView16staticMetaObjectE
	_ZN9QTreeView16updateGeometriesEv
	_ZN9QTreeView17mouseReleaseEventEP11QMouseEvent
	_ZN9QTreeView17setSelectionModelEP19QItemSelectionModel
	_ZN9QTreeView17setSortingEnabledEb
	_ZN9QTreeView18columnCountChangedEii
	_ZN9QTreeView18qt_static_metacallEP7QObjectN11QMetaObject4CallEiPPv
	_ZN9QTreeView18setAutoExpandDelayEi
	_ZN9QTreeView18setItemsExpandableEb
	_ZN9QTreeView18setRootIsDecoratedEb
	_ZN9QTreeView20rowsAboutToBeRemovedERK11QModelIndexii
	_ZN9QTreeView20setUniformRowHeightsEb
	_ZN9QTreeView21mouseDoubleClickEventEP11QMouseEvent
	_ZN9QTreeView21setFirstColumnSpannedEiRK11QModelIndexb
	_ZN9QTreeView22resizeColumnToContentsEi
	_ZN9QTreeView22setAllColumnsShowFocusEb
	_ZN9QTreeView23setExpandsOnDoubleClickEb
	_ZN9QTreeView25horizontalScrollbarActionEi
	_ZN9QTreeView5resetEv
	_ZN9QTreeView6expandERK11QModelIndex
	_ZN9QTreeView8collapseERK11QModelIndex
	_ZN9QTreeView8expandedERK11QModelIndex
	_ZN9QTreeView8reexpandEv
	_ZN9QTreeView8scrollToERK11QModelIndexN17QAbstractItemView10ScrollHintE
	_ZN9QTreeView8setModelEP18QAbstractItemModel
	_ZN9QTreeView9collapsedERK11QModelIndex
	_ZN9QTreeView9expandAllEv
	_ZN9QTreeView9selectAllEv
	_ZN9QTreeView9setHeaderEP11QHeaderView
	_ZN9QTreeViewC1EP7QWidget
	_ZN9QTreeViewC1ER16QTreeViewPrivateP7QWidget
	_ZN9QTreeViewC2EP7QWidget
	_ZN9QTreeViewC2ER16QTreeViewPrivateP7QWidget
	_ZN9QTreeViewD0Ev
	_ZN9QTreeViewD1Ev
	_ZN9QTreeViewD2Ev
	_ZN9QUndoView11qt_metacallEN11QMetaObject4CallEiPPv
	_ZN9QUndoView11qt_metacastEPKc
	_ZN9QUndoView12setCleanIconERK5QIcon
	_ZN9QUndoView13setEmptyLabelERK7QString
	_ZN9QUndoView16staticMetaObjectE
	_ZN9QUndoView18qt_static_metacallEP7QObjectN11QMetaObject4CallEiPPv
	_ZN9QUndoView8setGroupEP10QUndoGroup
	_ZN9QUndoView8setStackEP10QUndoStack
	_ZN9QUndoViewC1EP10QUndoGroupP7QWidget
	_ZN9QUndoViewC1EP10QUndoStackP7QWidget
	_ZN9QUndoViewC1EP7QWidget
	_ZN9QUndoViewC2EP10QUndoGroupP7QWidget
	_ZN9QUndoViewC2EP10QUndoStackP7QWidget
	_ZN9QUndoViewC2EP7QWidget
	_ZN9QUndoViewD0Ev
	_ZN9QUndoViewD1Ev
	_ZN9QUndoViewD2Ev
	_ZNK10QBoxLayout10metaObjectEv
	_ZNK10QBoxLayout11maximumSizeEv
	_ZNK10QBoxLayout11minimumSizeEv
	_ZNK10QBoxLayout14heightForWidthEi
	_ZNK10QBoxLayout17hasHeightForWidthEv
	_ZNK10QBoxLayout19expandingDirectionsEv
	_ZNK10QBoxLayout21minimumHeightForWidthEi
	_ZNK10QBoxLayout5countEv
	_ZNK10QBoxLayout6itemAtEi
	_ZNK10QBoxLayout7spacingEv
	_ZNK10QBoxLayout7stretchEi
	_ZNK10QBoxLayout8sizeHintEv
	_ZNK10QBoxLayout9directionEv
	_ZNK10QCompleter10currentRowEv
	_ZNK10QCompleter10filterModeEv
	_ZNK10QCompleter10metaObjectEv
	_ZNK10QCompleter10wrapAroundEv
	_ZNK10QCompleter12currentIndexEv
	_ZNK10QCompleter12modelSortingEv
	_ZNK10QCompleter13pathFromIndexERK11QModelIndex
	_ZNK10QCompleter14completionModeEv
	_ZNK10QCompleter14completionRoleEv
	_ZNK10QCompleter15caseSensitivityEv
	_ZNK10QCompleter15completionCountEv
	_ZNK10QCompleter15completionModelEv
	_ZNK10QCompleter15maxVisibleItemsEv
	_ZNK10QCompleter16completionColumnEv
	_ZNK10QCompleter16completionPrefixEv
	_ZNK10QCompleter17currentCompletionEv
	_ZNK10QCompleter5modelEv
	_ZNK10QCompleter5popupEv
	_ZNK10QCompleter6widgetEv
	_ZNK10QCompleter9splitPathERK7QString
	_ZNK10QLCDNumber10digitCountEv
	_ZNK10QLCDNumber10metaObjectEv
	_ZNK10QLCDNumber12segmentStyleEv
	_ZNK10QLCDNumber13checkOverflowEd
	_ZNK10QLCDNumber13checkOverflowEi
	_ZNK10QLCDNumber17smallDecimalPointEv
	_ZNK10QLCDNumber4modeEv
	_ZNK10QLCDNumber5valueEv
	_ZNK10QLCDNumber8intValueEv
	_ZNK10QLCDNumber8sizeHintEv
	_ZNK10QScrollBar10metaObjectEv
	_ZNK10QScrollBar15initStyleOptionEP18QStyleOptionSlider
	_ZNK10QScrollBar8sizeHintEv
	_ZNK10QStatusBar10metaObjectEv
	_ZNK10QStatusBar14currentMessageEv
	_ZNK10QStatusBar17isSizeGripEnabledEv
	_ZNK10QTabWidget10metaObjectEv
	_ZNK10QTabWidget10tabToolTipEi
	_ZNK10QTabWidget11tabPositionEv
	_ZNK10QTabWidget12cornerWidgetEN2Qt6CornerE
	_ZNK10QTabWidget12currentIndexEv
	_ZNK10QTabWidget12documentModeEv
	_ZNK10QTabWidget12isTabEnabledEi
	_ZNK10QTabWidget12tabWhatsThisEi
	_ZNK10QTabWidget12tabsClosableEv
	_ZNK10QTabWidget13currentWidgetEv
	_ZNK10QTabWidget14heightForWidthEi
	_ZNK10QTabWidget15initStyleOptionEP26QStyleOptionTabWidgetFrame
	_ZNK10QTabWidget15minimumSizeHintEv
	_ZNK10QTabWidget17hasHeightForWidthEv
	_ZNK10QTabWidget17usesScrollButtonsEv
	_ZNK10QTabWidget5countEv
	_ZNK10QTabWidget6tabBarEv
	_ZNK10QTabWidget6widgetEi
	_ZNK10QTabWidget7indexOfEP7QWidget
	_ZNK10QTabWidget7tabIconEi
	_ZNK10QTabWidget7tabTextEi
	_ZNK10QTabWidget8iconSizeEv
	_ZNK10QTabWidget8sizeHintEv
	_ZNK10QTabWidget8tabShapeEv
	_ZNK10QTabWidget9elideModeEv
	_ZNK10QTabWidget9isMovableEv
	_ZNK10QTableView10columnSpanEii
	_ZNK10QTableView10metaObjectEv
	_ZNK10QTableView10visualRectERK11QModelIndex
	_ZNK10QTableView11columnWidthEi
	_ZNK10QTableView11isRowHiddenEi
	_ZNK10QTableView11viewOptionsEv
	_ZNK10QTableView11visualIndexERK11QModelIndex
	_ZNK10QTableView13isIndexHiddenERK11QModelIndex
	_ZNK10QTableView14isColumnHiddenEi
	_ZNK10QTableView14sizeHintForRowEi
	_ZNK10QTableView14verticalHeaderEv
	_ZNK10QTableView14verticalOffsetEv
	_ZNK10QTableView15selectedIndexesEv
	_ZNK10QTableView16horizontalHeaderEv
	_ZNK10QTableView16horizontalOffsetEv
	_ZNK10QTableView16isSortingEnabledEv
	_ZNK10QTableView16viewportSizeHintEv
	_ZNK10QTableView17sizeHintForColumnEi
	_ZNK10QTableView19rowViewportPositionEi
	_ZNK10QTableView21isCornerButtonEnabledEv
	_ZNK10QTableView22columnViewportPositionEi
	_ZNK10QTableView24visualRegionForSelectionERK14QItemSelection
	_ZNK10QTableView5rowAtEi
	_ZNK10QTableView7indexAtERK6QPoint
	_ZNK10QTableView7rowSpanEii
	_ZNK10QTableView8columnAtEi
	_ZNK10QTableView8showGridEv
	_ZNK10QTableView8wordWrapEv
	_ZNK10QTableView9gridStyleEv
	_ZNK10QTableView9rowHeightEi
	_ZNK10QUndoGroup10metaObjectEv
	_ZNK10QUndoGroup11activeStackEv
	_ZNK10QUndoGroup16createRedoActionEP7QObjectRK7QString
	_ZNK10QUndoGroup16createUndoActionEP7QObjectRK7QString
	_ZNK10QUndoGroup6stacksEv
	_ZNK10QUndoGroup7canRedoEv
	_ZNK10QUndoGroup7canUndoEv
	_ZNK10QUndoGroup7isCleanEv
	_ZNK10QUndoGroup8redoTextEv
	_ZNK10QUndoGroup8undoTextEv
	_ZNK10QUndoStack10cleanIndexEv
	_ZNK10QUndoStack10metaObjectEv
	_ZNK10QUndoStack16createRedoActionEP7QObjectRK7QString
	_ZNK10QUndoStack16createUndoActionEP7QObjectRK7QString
	_ZNK10QUndoStack4textEi
	_ZNK10QUndoStack5countEv
	_ZNK10QUndoStack5indexEv
	_ZNK10QUndoStack7canRedoEv
	_ZNK10QUndoStack7canUndoEv
	_ZNK10QUndoStack7commandEi
	_ZNK10QUndoStack7isCleanEv
	_ZNK10QUndoStack8isActiveEv
	_ZNK10QUndoStack8redoTextEv
	_ZNK10QUndoStack8undoTextEv
	_ZNK10QUndoStack9undoLimitEv
	_ZNK11QColumnView10metaObjectEv
	_ZNK11QColumnView10visualRectERK11QModelIndex
	_ZNK11QColumnView12columnWidthsEv
	_ZNK11QColumnView13isIndexHiddenERK11QModelIndex
	_ZNK11QColumnView13previewWidgetEv
	_ZNK11QColumnView14verticalOffsetEv
	_ZNK11QColumnView16horizontalOffsetEv
	_ZNK11QColumnView16initializeColumnEP17QAbstractItemView
	_ZNK11QColumnView18resizeGripsVisibleEv
	_ZNK11QColumnView24visualRegionForSelectionERK14QItemSelection
	_ZNK11QColumnView7indexAtERK6QPoint
	_ZNK11QColumnView8sizeHintEv
	_ZNK11QDockWidget10metaObjectEv
	_ZNK11QDockWidget12allowedAreasEv
	_ZNK11QDockWidget14titleBarWidgetEv
	_ZNK11QDockWidget15initStyleOptionEP22QStyleOptionDockWidget
	_ZNK11QDockWidget16toggleViewActionEv
	_ZNK11QDockWidget6widgetEv
	_ZNK11QDockWidget8featuresEv
	_ZNK11QFileDialog10acceptModeEv
	_ZNK11QFileDialog10isReadOnlyEv
	_ZNK11QFileDialog10metaObjectEv
	_ZNK11QFileDialog10proxyModelEv
	_ZNK11QFileDialog10testOptionENS_6OptionE
	_ZNK11QFileDialog11nameFiltersEv
	_ZNK11QFileDialog11sidebarUrlsEv
	_ZNK11QFileDialog12directoryUrlEv
	_ZNK11QFileDialog12iconProviderEv
	_ZNK11QFileDialog12itemDelegateEv
	_ZNK11QFileDialog12selectedUrlsEv
	_ZNK11QFileDialog13defaultSuffixEv
	_ZNK11QFileDialog13selectedFilesEv
	_ZNK11QFileDialog15mimeTypeFiltersEv
	_ZNK11QFileDialog15resolveSymlinksEv
	_ZNK11QFileDialog16confirmOverwriteEv
	_ZNK11QFileDialog18selectedNameFilterEv
	_ZNK11QFileDialog26isNameFilterDetailsVisibleEv
	_ZNK11QFileDialog6filterEv
	_ZNK11QFileDialog7historyEv
	_ZNK11QFileDialog7optionsEv
	_ZNK11QFileDialog8fileModeEv
	_ZNK11QFileDialog8viewModeEv
	_ZNK11QFileDialog9directoryEv
	_ZNK11QFileDialog9labelTextENS_11DialogLabelE
	_ZNK11QFileDialog9saveStateEv
	_ZNK11QFocusFrame10metaObjectEv
	_ZNK11QFocusFrame15initStyleOptionEP12QStyleOption
	_ZNK11QFocusFrame6widgetEv
	_ZNK11QFontDialog10metaObjectEv
	_ZNK11QFontDialog10testOptionENS_16FontDialogOptionE
	_ZNK11QFontDialog11currentFontEv
	_ZNK11QFontDialog12selectedFontEv
	_ZNK11QFontDialog7optionsEv
	_ZNK11QFormLayout10metaObjectEv
	_ZNK11QFormLayout11minimumSizeEv
	_ZNK11QFormLayout13formAlignmentEv
	_ZNK11QFormLayout13labelForFieldEP7QLayout
	_ZNK11QFormLayout13labelForFieldEP7QWidget
	_ZNK11QFormLayout13rowWrapPolicyEv
	_ZNK11QFormLayout14heightForWidthEi
	_ZNK11QFormLayout14labelAlignmentEv
	_ZNK11QFormLayout15getItemPositionEiPiPNS_8ItemRoleE
	_ZNK11QFormLayout15verticalSpacingEv
	_ZNK11QFormLayout17fieldGrowthPolicyEv
	_ZNK11QFormLayout17getLayoutPositionEP7QLayoutPiPNS_8ItemRoleE
	_ZNK11QFormLayout17getWidgetPositionEP7QWidgetPiPNS_8ItemRoleE
	_ZNK11QFormLayout17hasHeightForWidthEv
	_ZNK11QFormLayout17horizontalSpacingEv
	_ZNK11QFormLayout19expandingDirectionsEv
	_ZNK11QFormLayout5countEv
	_ZNK11QFormLayout6itemAtEi
	_ZNK11QFormLayout6itemAtEiNS_8ItemRoleE
	_ZNK11QFormLayout7spacingEv
	_ZNK11QFormLayout8rowCountEv
	_ZNK11QFormLayout8sizeHintEv
	_ZNK11QGridLayout10metaObjectEv
	_ZNK11QGridLayout10rowStretchEi
	_ZNK11QGridLayout11columnCountEv
	_ZNK11QGridLayout11maximumSizeEv
	_ZNK11QGridLayout11minimumSizeEv
	_ZNK11QGridLayout12originCornerEv
	_ZNK11QGridLayout13columnStretchEi
	_ZNK11QGridLayout14heightForWidthEi
	_ZNK11QGridLayout14itemAtPositionEii
	_ZNK11QGridLayout15getItemPositionEiPiS0_S0_S0_
	_ZNK11QGridLayout15verticalSpacingEv
	_ZNK11QGridLayout16rowMinimumHeightEi
	_ZNK11QGridLayout17hasHeightForWidthEv
	_ZNK11QGridLayout17horizontalSpacingEv
	_ZNK11QGridLayout18columnMinimumWidthEi
	_ZNK11QGridLayout19expandingDirectionsEv
	_ZNK11QGridLayout21minimumHeightForWidthEi
	_ZNK11QGridLayout5countEv
	_ZNK11QGridLayout6itemAtEi
	_ZNK11QGridLayout7spacingEv
	_ZNK11QGridLayout8cellRectEii
	_ZNK11QGridLayout8rowCountEv
	_ZNK11QGridLayout8sizeHintEv
	_ZNK11QHBoxLayout10metaObjectEv
	_ZNK11QHeaderView10metaObjectEv
	_ZNK11QHeaderView10visualRectERK11QModelIndex
	_ZNK11QHeaderView11orientationEv
	_ZNK11QHeaderView11sectionSizeEi
	_ZNK11QHeaderView11visualIndexEi
	_ZNK11QHeaderView12logicalIndexEi
	_ZNK11QHeaderView12paintSectionEP8QPainterRK5QRecti
	_ZNK11QHeaderView13isIndexHiddenERK11QModelIndex
	_ZNK11QHeaderView13sectionsMovedEv
	_ZNK11QHeaderView13visualIndexAtEi
	_ZNK11QHeaderView14logicalIndexAtEi
	_ZNK11QHeaderView14sectionsHiddenEv
	_ZNK11QHeaderView14verticalOffsetEv
	_ZNK11QHeaderView15initStyleOptionEP18QStyleOptionHeader
	_ZNK11QHeaderView15isSectionHiddenEi
	_ZNK11QHeaderView15sectionPositionEi
	_ZNK11QHeaderView15sectionSizeHintEi
	_ZNK11QHeaderView15sectionsMovableEv
	_ZNK11QHeaderView16defaultAlignmentEv
	_ZNK11QHeaderView16horizontalOffsetEv
	_ZNK11QHeaderView17highlightSectionsEv
	_ZNK11QHeaderView17sectionResizeModeEi
	_ZNK11QHeaderView17sectionsClickableEv
	_ZNK11QHeaderView18defaultSectionSizeEv
	_ZNK11QHeaderView18hiddenSectionCountEv
	_ZNK11QHeaderView18maximumSectionSizeEv
	_ZNK11QHeaderView18minimumSectionSizeEv
	_ZNK11QHeaderView18sortIndicatorOrderEv
	_ZNK11QHeaderView18stretchLastSectionEv
	_ZNK11QHeaderView19stretchSectionCountEv
	_ZNK11QHeaderView20isSortIndicatorShownEv
	_ZNK11QHeaderView20sortIndicatorSectionEv
	_ZNK11QHeaderView23cascadingSectionResizesEv
	_ZNK11QHeaderView23resizeContentsPrecisionEv
	_ZNK11QHeaderView23sectionSizeFromContentsEi
	_ZNK11QHeaderView23sectionViewportPositionEi
	_ZNK11QHeaderView24visualRegionForSelectionERK14QItemSelection
	_ZNK11QHeaderView5countEv
	_ZNK11QHeaderView6lengthEv
	_ZNK11QHeaderView6offsetEv
	_ZNK11QHeaderView7indexAtERK6QPoint
	_ZNK11QHeaderView8sizeHintEv
	_ZNK11QHeaderView9saveStateEv
	_ZNK11QLayoutItem12controlTypesEv
	_ZNK11QLayoutItem14heightForWidthEi
	_ZNK11QLayoutItem17hasHeightForWidthEv
	_ZNK11QLayoutItem21minimumHeightForWidthEi
	_ZNK11QListWidget10currentRowEv
	_ZNK11QListWidget10itemWidgetEP15QListWidgetItem
	_ZNK11QListWidget10metaObjectEv
	_ZNK11QListWidget11currentItemEv
	_ZNK11QListWidget12isItemHiddenEPK15QListWidgetItem
	_ZNK11QListWidget13indexFromItemEP15QListWidgetItem
	_ZNK11QListWidget13itemFromIndexERK11QModelIndex
	_ZNK11QListWidget13selectedItemsEv
	_ZNK11QListWidget14isItemSelectedEPK15QListWidgetItem
	_ZNK11QListWidget14visualItemRectEPK15QListWidgetItem
	_ZNK11QListWidget16isSortingEnabledEv
	_ZNK11QListWidget20supportedDropActionsEv
	_ZNK11QListWidget3rowEPK15QListWidgetItem
	_ZNK11QListWidget4itemEi
	_ZNK11QListWidget5countEv
	_ZNK11QListWidget5itemsEPK9QMimeData
	_ZNK11QListWidget6itemAtERK6QPoint
	_ZNK11QListWidget8mimeDataE5QListIP15QListWidgetItemE
	_ZNK11QListWidget9findItemsERK7QString6QFlagsIN2Qt9MatchFlagEE
	_ZNK11QListWidget9mimeTypesEv
	_ZNK11QListWidget9sortOrderEv
	_ZNK11QMainWindow10isAnimatedEv
	_ZNK11QMainWindow10menuWidgetEv
	_ZNK11QMainWindow10metaObjectEv
	_ZNK11QMainWindow11dockOptionsEv
	_ZNK11QMainWindow11isSeparatorERK6QPoint
	_ZNK11QMainWindow11tabPositionEN2Qt14DockWidgetAreaE
	_ZNK11QMainWindow11toolBarAreaEP8QToolBar
	_ZNK11QMainWindow12documentModeEv
	_ZNK11QMainWindow12toolBarBreakEP8QToolBar
	_ZNK11QMainWindow13centralWidgetEv
	_ZNK11QMainWindow14dockWidgetAreaEP11QDockWidget
	_ZNK11QMainWindow15toolButtonStyleEv
	_ZNK11QMainWindow19tabifiedDockWidgetsEP11QDockWidget
	_ZNK11QMainWindow20isDockNestingEnabledEv
	_ZNK11QMainWindow27unifiedTitleAndToolBarOnMacEv
	_ZNK11QMainWindow6cornerEN2Qt6CornerE
	_ZNK11QMainWindow7menuBarEv
	_ZNK11QMainWindow8iconSizeEv
	_ZNK11QMainWindow8tabShapeEv
	_ZNK11QMainWindow9saveStateEi
	_ZNK11QMainWindow9statusBarEv
	_ZNK11QMessageBox10buttonRoleEP15QAbstractButton
	_ZNK11QMessageBox10buttonTextEi
	_ZNK11QMessageBox10iconPixmapEv
	_ZNK11QMessageBox10metaObjectEv
	_ZNK11QMessageBox10textFormatEv
	_ZNK11QMessageBox12detailedTextEv
	_ZNK11QMessageBox12escapeButtonEv
	_ZNK11QMessageBox13clickedButtonEv
	_ZNK11QMessageBox13defaultButtonEv
	_ZNK11QMessageBox14standardButtonEP15QAbstractButton
	_ZNK11QMessageBox15informativeTextEv
	_ZNK11QMessageBox15standardButtonsEv
	_ZNK11QMessageBox20textInteractionFlagsEv
	_ZNK11QMessageBox4iconEv
	_ZNK11QMessageBox4textEv
	_ZNK11QMessageBox6buttonENS_14StandardButtonE
	_ZNK11QMessageBox7buttonsEv
	_ZNK11QMessageBox8checkBoxEv
	_ZNK11QPanGesture10lastOffsetEv
	_ZNK11QPanGesture10metaObjectEv
	_ZNK11QPanGesture12accelerationEv
	_ZNK11QPanGesture5deltaEv
	_ZNK11QPanGesture6offsetEv
	_ZNK11QProxyStyle10metaObjectEv
	_ZNK11QProxyStyle11drawControlEN6QStyle14ControlElementEPK12QStyleOptionP8QPainterPK7QWidget
	_ZNK11QProxyStyle11pixelMetricEN6QStyle11PixelMetricEPK12QStyleOptionPK7QWidget
	_ZNK11QProxyStyle12drawItemTextEP8QPainterRK5QRectiRK8QPalettebRK7QStringNS5_9ColorRoleE
	_ZNK11QProxyStyle12itemTextRectERK12QFontMetricsRK5QRectibRK7QString
	_ZNK11QProxyStyle12standardIconEN6QStyle14StandardPixmapEPK12QStyleOptionPK7QWidget
	_ZNK11QProxyStyle13drawPrimitiveEN6QStyle16PrimitiveElementEPK12QStyleOptionP8QPainterPK7QWidget
	_ZNK11QProxyStyle13layoutSpacingEN11QSizePolicy11ControlTypeES1_N2Qt11OrientationEPK12QStyleOptionPK7QWidget
	_ZNK11QProxyStyle14drawItemPixmapEP8QPainterRK5QRectiRK7QPixmap
	_ZNK11QProxyStyle14itemPixmapRectERK5QRectiRK7QPixmap
	_ZNK11QProxyStyle14standardPixmapEN6QStyle14StandardPixmapEPK12QStyleOptionPK7QWidget
	_ZNK11QProxyStyle14subControlRectEN6QStyle14ComplexControlEPK19QStyleOptionComplexNS0_10SubControlEPK7QWidget
	_ZNK11QProxyStyle14subElementRectEN6QStyle10SubElementEPK12QStyleOptionPK7QWidget
	_ZNK11QProxyStyle15standardPaletteEv
	_ZNK11QProxyStyle16sizeFromContentsEN6QStyle12ContentsTypeEPK12QStyleOptionRK5QSizePK7QWidget
	_ZNK11QProxyStyle18drawComplexControlEN6QStyle14ComplexControlEPK19QStyleOptionComplexP8QPainterPK7QWidget
	_ZNK11QProxyStyle19generatedIconPixmapEN5QIcon4ModeERK7QPixmapPK12QStyleOption
	_ZNK11QProxyStyle21hitTestComplexControlEN6QStyle14ComplexControlEPK19QStyleOptionComplexRK6QPointPK7QWidget
	_ZNK11QProxyStyle9baseStyleEv
	_ZNK11QProxyStyle9styleHintEN6QStyle9StyleHintEPK12QStyleOptionPK7QWidgetP16QStyleHintReturn
	_ZNK11QPushButton10metaObjectEv
	_ZNK11QPushButton11autoDefaultEv
	_ZNK11QPushButton15initStyleOptionEP18QStyleOptionButton
	_ZNK11QPushButton15minimumSizeHintEv
	_ZNK11QPushButton4menuEv
	_ZNK11QPushButton6isFlatEv
	_ZNK11QPushButton8sizeHintEv
	_ZNK11QPushButton9isDefaultEv
	_ZNK11QRubberBand10metaObjectEv
	_ZNK11QRubberBand15initStyleOptionEP22QStyleOptionRubberBand
	_ZNK11QRubberBand5shapeEv
	_ZNK11QScrollArea10metaObjectEv
	_ZNK11QScrollArea15widgetResizableEv
	_ZNK11QScrollArea16viewportSizeHintEv
	_ZNK11QScrollArea6widgetEv
	_ZNK11QScrollArea8sizeHintEv
	_ZNK11QScrollArea9alignmentEv
	_ZNK11QSizePolicy11controlTypeEv
	_ZNK11QSizePolicycv8QVariantEv
	_ZNK11QSpacerItem11maximumSizeEv
	_ZNK11QSpacerItem11minimumSizeEv
	_ZNK11QSpacerItem19expandingDirectionsEv
	_ZNK11QSpacerItem7isEmptyEv
	_ZNK11QSpacerItem8geometryEv
	_ZNK11QSpacerItem8sizeHintEv
	_ZNK11QTapGesture10metaObjectEv
	_ZNK11QTapGesture8positionEv
	_ZNK11QToolButton10metaObjectEv
	_ZNK11QToolButton13defaultActionEv
	_ZNK11QToolButton15initStyleOptionEP22QStyleOptionToolButton
	_ZNK11QToolButton15minimumSizeHintEv
	_ZNK11QToolButton15toolButtonStyleEv
	_ZNK11QToolButton4menuEv
	_ZNK11QToolButton8sizeHintEv
	_ZNK11QToolButton9arrowTypeEv
	_ZNK11QToolButton9autoRaiseEv
	_ZNK11QToolButton9hitButtonERK6QPoint
	_ZNK11QToolButton9popupModeEv
	_ZNK11QTreeWidget10headerItemEv
	_ZNK11QTreeWidget10itemWidgetEP15QTreeWidgetItemi
	_ZNK11QTreeWidget10metaObjectEv
	_ZNK11QTreeWidget10sortColumnEv
	_ZNK11QTreeWidget11columnCountEv
	_ZNK11QTreeWidget11currentItemEv
	_ZNK11QTreeWidget12isItemHiddenEPK15QTreeWidgetItem
	_ZNK11QTreeWidget12topLevelItemEi
	_ZNK11QTreeWidget13currentColumnEv
	_ZNK11QTreeWidget13indexFromItemEP15QTreeWidgetItemi
	_ZNK11QTreeWidget13itemFromIndexERK11QModelIndex
	_ZNK11QTreeWidget13selectedItemsEv
	_ZNK11QTreeWidget14isItemExpandedEPK15QTreeWidgetItem
	_ZNK11QTreeWidget14isItemSelectedEPK15QTreeWidgetItem
	_ZNK11QTreeWidget14visualItemRectEPK15QTreeWidgetItem
	_ZNK11QTreeWidget17invisibleRootItemEv
	_ZNK11QTreeWidget17topLevelItemCountEv
	_ZNK11QTreeWidget19indexOfTopLevelItemEP15QTreeWidgetItem
	_ZNK11QTreeWidget20supportedDropActionsEv
	_ZNK11QTreeWidget24isFirstItemColumnSpannedEPK15QTreeWidgetItem
	_ZNK11QTreeWidget5itemsEPK9QMimeData
	_ZNK11QTreeWidget6itemAtERK6QPoint
	_ZNK11QTreeWidget8mimeDataE5QListIP15QTreeWidgetItemE
	_ZNK11QTreeWidget9findItemsERK7QString6QFlagsIN2Qt9MatchFlagEEi
	_ZNK11QTreeWidget9itemAboveEPK15QTreeWidgetItem
	_ZNK11QTreeWidget9itemBelowEPK15QTreeWidgetItem
	_ZNK11QTreeWidget9mimeTypesEv
	_ZNK11QVBoxLayout10metaObjectEv
	_ZNK11QWidgetItem11maximumSizeEv
	_ZNK11QWidgetItem11minimumSizeEv
	_ZNK11QWidgetItem12controlTypesEv
	_ZNK11QWidgetItem14heightForWidthEi
	_ZNK11QWidgetItem17hasHeightForWidthEv
	_ZNK11QWidgetItem19expandingDirectionsEv
	_ZNK11QWidgetItem7isEmptyEv
	_ZNK11QWidgetItem8geometryEv
	_ZNK11QWidgetItem8sizeHintEv
	_ZNK11QWizardPage10buttonTextEN7QWizard12WizardButtonE
	_ZNK11QWizardPage10isCompleteEv
	_ZNK11QWizardPage10metaObjectEv
	_ZNK11QWizardPage11isFinalPageEv
	_ZNK11QWizardPage12isCommitPageEv
	_ZNK11QWizardPage5fieldERK7QString
	_ZNK11QWizardPage5titleEv
	_ZNK11QWizardPage6nextIdEv
	_ZNK11QWizardPage6pixmapEN7QWizard12WizardPixmapE
	_ZNK11QWizardPage6wizardEv
	_ZNK11QWizardPage8subTitleEv
	_ZNK12QActionGroup10metaObjectEv
	_ZNK12QActionGroup11isExclusiveEv
	_ZNK12QActionGroup13checkedActionEv
	_ZNK12QActionGroup7actionsEv
	_ZNK12QActionGroup9isEnabledEv
	_ZNK12QActionGroup9isVisibleEv
	_ZNK12QApplication10metaObjectEv
	_ZNK12QApplication10styleSheetEv
	_ZNK12QApplication14autoSipEnabledEv
	_ZNK12QButtonGroup10metaObjectEv
	_ZNK12QButtonGroup13checkedButtonEv
	_ZNK12QButtonGroup2idEP15QAbstractButton
	_ZNK12QButtonGroup6buttonEi
	_ZNK12QButtonGroup7buttonsEv
	_ZNK12QButtonGroup9checkedIdEv
	_ZNK12QButtonGroup9exclusiveEv
	_ZNK12QColorDialog10metaObjectEv
	_ZNK12QColorDialog10testOptionENS_17ColorDialogOptionE
	_ZNK12QColorDialog12currentColorEv
	_ZNK12QColorDialog13selectedColorEv
	_ZNK12QColorDialog7optionsEv
	_ZNK12QCommonStyle10metaObjectEv
	_ZNK12QCommonStyle11drawControlEN6QStyle14ControlElementEPK12QStyleOptionP8QPainterPK7QWidget
	_ZNK12QCommonStyle11pixelMetricEN6QStyle11PixelMetricEPK12QStyleOptionPK7QWidget
	_ZNK12QCommonStyle12standardIconEN6QStyle14StandardPixmapEPK12QStyleOptionPK7QWidget
	_ZNK12QCommonStyle13drawPrimitiveEN6QStyle16PrimitiveElementEPK12QStyleOptionP8QPainterPK7QWidget
	_ZNK12QCommonStyle13layoutSpacingEN11QSizePolicy11ControlTypeES1_N2Qt11OrientationEPK12QStyleOptionPK7QWidget
	_ZNK12QCommonStyle14standardPixmapEN6QStyle14StandardPixmapEPK12QStyleOptionPK7QWidget
	_ZNK12QCommonStyle14subControlRectEN6QStyle14ComplexControlEPK19QStyleOptionComplexNS0_10SubControlEPK7QWidget
	_ZNK12QCommonStyle14subElementRectEN6QStyle10SubElementEPK12QStyleOptionPK7QWidget
	_ZNK12QCommonStyle16sizeFromContentsEN6QStyle12ContentsTypeEPK12QStyleOptionRK5QSizePK7QWidget
	_ZNK12QCommonStyle18drawComplexControlEN6QStyle14ComplexControlEPK19QStyleOptionComplexP8QPainterPK7QWidget
	_ZNK12QCommonStyle19generatedIconPixmapEN5QIcon4ModeERK7QPixmapPK12QStyleOption
	_ZNK12QCommonStyle21hitTestComplexControlEN6QStyle14ComplexControlEPK19QStyleOptionComplexRK6QPointPK7QWidget
	_ZNK12QCommonStyle9styleHintEN6QStyle9StyleHintEPK12QStyleOptionPK7QWidgetP16QStyleHintReturn
	_ZNK12QFSCompleter13pathFromIndexERK11QModelIndex
	_ZNK12QFSCompleter9splitPathERK7QString
	_ZNK12QInputDialog10intMaximumEv
	_ZNK12QInputDialog10intMinimumEv
	_ZNK12QInputDialog10metaObjectEv
	_ZNK12QInputDialog10testOptionENS_17InputDialogOptionE
	_ZNK12QInputDialog11doubleValueEv
	_ZNK12QInputDialog12okButtonTextEv
	_ZNK12QInputDialog12textEchoModeEv
	_ZNK12QInputDialog13comboBoxItemsEv
	_ZNK12QInputDialog13doubleMaximumEv
	_ZNK12QInputDialog13doubleMinimumEv
	_ZNK12QInputDialog14doubleDecimalsEv
	_ZNK12QInputDialog15minimumSizeHintEv
	_ZNK12QInputDialog16cancelButtonTextEv
	_ZNK12QInputDialog18isComboBoxEditableEv
	_ZNK12QInputDialog7intStepEv
	_ZNK12QInputDialog7optionsEv
	_ZNK12QInputDialog8intValueEv
	_ZNK12QInputDialog8sizeHintEv
	_ZNK12QInputDialog9inputModeEv
	_ZNK12QInputDialog9labelTextEv
	_ZNK12QInputDialog9textValueEv
	_ZNK12QProgressBar10metaObjectEv
	_ZNK12QProgressBar11orientationEv
	_ZNK12QProgressBar13isTextVisibleEv
	_ZNK12QProgressBar13textDirectionEv
	_ZNK12QProgressBar15initStyleOptionEP23QStyleOptionProgressBar
	_ZNK12QProgressBar15minimumSizeHintEv
	_ZNK12QProgressBar18invertedAppearanceEv
	_ZNK12QProgressBar4textEv
	_ZNK12QProgressBar5valueEv
	_ZNK12QProgressBar6formatEv
	_ZNK12QProgressBar7maximumEv
	_ZNK12QProgressBar7minimumEv
	_ZNK12QProgressBar8sizeHintEv
	_ZNK12QProgressBar9alignmentEv
	_ZNK12QRadioButton10metaObjectEv
	_ZNK12QRadioButton15initStyleOptionEP18QStyleOptionButton
	_ZNK12QRadioButton15minimumSizeHintEv
	_ZNK12QRadioButton8sizeHintEv
	_ZNK12QRadioButton9hitButtonERK6QPoint
	_ZNK12QStylePlugin10metaObjectEv
	_ZNK12QTableWidget10cellWidgetEii
	_ZNK12QTableWidget10currentRowEv
	_ZNK12QTableWidget10metaObjectEv
	_ZNK12QTableWidget11columnCountEv
	_ZNK12QTableWidget11currentItemEv
	_ZNK12QTableWidget12visualColumnEi
	_ZNK12QTableWidget13currentColumnEv
	_ZNK12QTableWidget13indexFromItemEP16QTableWidgetItem
	_ZNK12QTableWidget13itemFromIndexERK11QModelIndex
	_ZNK12QTableWidget13itemPrototypeEv
	_ZNK12QTableWidget13selectedItemsEv
	_ZNK12QTableWidget14isItemSelectedEPK16QTableWidgetItem
	_ZNK12QTableWidget14selectedRangesEv
	_ZNK12QTableWidget14visualItemRectEPK16QTableWidgetItem
	_ZNK12QTableWidget16isSortingEnabledEv
	_ZNK12QTableWidget18verticalHeaderItemEi
	_ZNK12QTableWidget20horizontalHeaderItemEi
	_ZNK12QTableWidget20supportedDropActionsEv
	_ZNK12QTableWidget3rowEPK16QTableWidgetItem
	_ZNK12QTableWidget4itemEii
	_ZNK12QTableWidget5itemsEPK9QMimeData
	_ZNK12QTableWidget6columnEPK16QTableWidgetItem
	_ZNK12QTableWidget6itemAtERK6QPoint
	_ZNK12QTableWidget8mimeDataE5QListIP16QTableWidgetItemE
	_ZNK12QTableWidget8rowCountEv
	_ZNK12QTableWidget9findItemsERK7QString6QFlagsIN2Qt9MatchFlagEE
	_ZNK12QTableWidget9mimeTypesEv
	_ZNK12QTableWidget9visualRowEi
	_ZNK12QTextBrowser10historyUrlEi
	_ZNK12QTextBrowser10metaObjectEv
	_ZNK12QTextBrowser11searchPathsEv
	_ZNK12QTextBrowser12historyTitleEi
	_ZNK12QTextBrowser17openExternalLinksEv
	_ZNK12QTextBrowser18isForwardAvailableEv
	_ZNK12QTextBrowser19forwardHistoryCountEv
	_ZNK12QTextBrowser19isBackwardAvailableEv
	_ZNK12QTextBrowser20backwardHistoryCountEv
	_ZNK12QTextBrowser6sourceEv
	_ZNK12QTextBrowser9openLinksEv
	_ZNK12QUndoCommand10actionTextEv
	_ZNK12QUndoCommand10childCountEv
	_ZNK12QUndoCommand2idEv
	_ZNK12QUndoCommand4textEv
	_ZNK12QUndoCommand5childEi
	_ZNK13QDateTimeEdit10metaObjectEv
	_ZNK13QDateTimeEdit11maximumDateEv
	_ZNK13QDateTimeEdit11maximumTimeEv
	_ZNK13QDateTimeEdit11minimumDateEv
	_ZNK13QDateTimeEdit11minimumTimeEv
	_ZNK13QDateTimeEdit11sectionTextENS_7SectionE
	_ZNK13QDateTimeEdit11stepEnabledEv
	_ZNK13QDateTimeEdit12sectionCountEv
	_ZNK13QDateTimeEdit13calendarPopupEv
	_ZNK13QDateTimeEdit13displayFormatEv
	_ZNK13QDateTimeEdit14calendarWidgetEv
	_ZNK13QDateTimeEdit14currentSectionEv
	_ZNK13QDateTimeEdit15initStyleOptionEP19QStyleOptionSpinBox
	_ZNK13QDateTimeEdit15maximumDateTimeEv
	_ZNK13QDateTimeEdit15minimumDateTimeEv
	_ZNK13QDateTimeEdit16dateTimeFromTextERK7QString
	_ZNK13QDateTimeEdit16textFromDateTimeERK9QDateTime
	_ZNK13QDateTimeEdit17displayedSectionsEv
	_ZNK13QDateTimeEdit19currentSectionIndexEv
	_ZNK13QDateTimeEdit4dateEv
	_ZNK13QDateTimeEdit4timeEv
	_ZNK13QDateTimeEdit5fixupER7QString
	_ZNK13QDateTimeEdit8dateTimeEv
	_ZNK13QDateTimeEdit8sizeHintEv
	_ZNK13QDateTimeEdit8timeSpecEv
	_ZNK13QDateTimeEdit8validateER7QStringRi
	_ZNK13QDateTimeEdit9sectionAtEi
	_ZNK13QErrorMessage10metaObjectEv
	_ZNK13QFlickGesture10metaObjectEv
	_ZNK13QFontComboBox10metaObjectEv
	_ZNK13QFontComboBox11currentFontEv
	_ZNK13QFontComboBox11fontFiltersEv
	_ZNK13QFontComboBox13writingSystemEv
	_ZNK13QFontComboBox8sizeHintEv
	_ZNK13QGestureEvent10isAcceptedEN2Qt11GestureTypeE
	_ZNK13QGestureEvent10isAcceptedEP8QGesture
	_ZNK13QGestureEvent14activeGesturesEv
	_ZNK13QGestureEvent16canceledGesturesEv
	_ZNK13QGestureEvent18mapToGraphicsSceneERK7QPointF
	_ZNK13QGestureEvent6widgetEv
	_ZNK13QGestureEvent7gestureEN2Qt11GestureTypeE
	_ZNK13QGestureEvent8gesturesEv
	_ZNK13QGraphicsItem10childItemsEv
	_ZNK13QGraphicsItem10focusProxyEv
	_ZNK13QGraphicsItem10isObscuredERK6QRectF
	_ZNK13QGraphicsItem10isSelectedEv
	_ZNK13QGraphicsItem10mapToSceneERK12QPainterPath
	_ZNK13QGraphicsItem10mapToSceneERK6QRectF
	_ZNK13QGraphicsItem10mapToSceneERK7QPointF
	_ZNK13QGraphicsItem10mapToSceneERK9QPolygonF
	_ZNK13QGraphicsItem10opaqueAreaEv
	_ZNK13QGraphicsItem10parentItemEv
	_ZNK13QGraphicsItem11acceptDropsEv
	_ZNK13QGraphicsItem11isVisibleToEPKS_
	_ZNK13QGraphicsItem11mapFromItemEPKS_RK12QPainterPath
	_ZNK13QGraphicsItem11mapFromItemEPKS_RK6QRectF
	_ZNK13QGraphicsItem11mapFromItemEPKS_RK7QPointF
	_ZNK13QGraphicsItem11mapFromItemEPKS_RK9QPolygonF
	_ZNK13QGraphicsItem11mapToParentERK12QPainterPath
	_ZNK13QGraphicsItem11mapToParentERK6QRectF
	_ZNK13QGraphicsItem11mapToParentERK7QPointF
	_ZNK13QGraphicsItem11mapToParentERK9QPolygonF
	_ZNK13QGraphicsItem11sceneMatrixEv
	_ZNK13QGraphicsItem12isAncestorOfEPKS_
	_ZNK13QGraphicsItem12isObscuredByEPKS_
	_ZNK13QGraphicsItem12isUnderMouseEv
	_ZNK13QGraphicsItem12mapFromSceneERK12QPainterPath
	_ZNK13QGraphicsItem12mapFromSceneERK6QRectF
	_ZNK13QGraphicsItem12mapFromSceneERK7QPointF
	_ZNK13QGraphicsItem12mapFromSceneERK9QPolygonF
	_ZNK13QGraphicsItem12parentObjectEv
	_ZNK13QGraphicsItem12parentWidgetEv
	_ZNK13QGraphicsItem12topLevelItemEv
	_ZNK13QGraphicsItem13itemTransformEPKS_Pb
	_ZNK13QGraphicsItem13mapFromParentERK12QPainterPath
	_ZNK13QGraphicsItem13mapFromParentERK6QRectF
	_ZNK13QGraphicsItem13mapFromParentERK7QPointF
	_ZNK13QGraphicsItem13mapFromParentERK9QPolygonF
	_ZNK13QGraphicsItem13mapRectToItemEPKS_RK6QRectF
	_ZNK13QGraphicsItem13panelModalityEv
	_ZNK13QGraphicsItem14boundingRegionERK10QTransform
	_ZNK13QGraphicsItem14collidingItemsEN2Qt17ItemSelectionModeE
	_ZNK13QGraphicsItem14focusScopeItemEv
	_ZNK13QGraphicsItem14graphicsEffectEv
	_ZNK13QGraphicsItem14mapRectToSceneERK6QRectF
	_ZNK13QGraphicsItem14sceneTransformEv
	_ZNK13QGraphicsItem14topLevelWidgetEv
	_ZNK13QGraphicsItem15deviceTransformERK10QTransform
	_ZNK13QGraphicsItem15mapRectFromItemEPKS_RK6QRectF
	_ZNK13QGraphicsItem15mapRectToParentERK6QRectF
	_ZNK13QGraphicsItem15transformationsEv
	_ZNK13QGraphicsItem16collidesWithItemEPKS_N2Qt17ItemSelectionModeE
	_ZNK13QGraphicsItem16collidesWithPathERK12QPainterPathN2Qt17ItemSelectionModeE
	_ZNK13QGraphicsItem16effectiveOpacityEv
	_ZNK13QGraphicsItem16inputMethodHintsEv
	_ZNK13QGraphicsItem16inputMethodQueryEN2Qt16InputMethodQueryE
	_ZNK13QGraphicsItem16mapRectFromSceneERK6QRectF
	_ZNK13QGraphicsItem16toGraphicsObjectEv
	_ZNK13QGraphicsItem17acceptHoverEventsEv
	_ZNK13QGraphicsItem17acceptTouchEventsEv
	_ZNK13QGraphicsItem17mapRectFromParentERK6QRectF
	_ZNK13QGraphicsItem17sceneBoundingRectEv
	_ZNK13QGraphicsItem17supportsExtensionENS_9ExtensionE
	_ZNK13QGraphicsItem18commonAncestorItemEPKS_
	_ZNK13QGraphicsItem18filtersChildEventsEv
	_ZNK13QGraphicsItem18handlesChildEventsEv
	_ZNK13QGraphicsItem20acceptedMouseButtonsEv
	_ZNK13QGraphicsItem20childrenBoundingRectEv
	_ZNK13QGraphicsItem20transformOriginPointEv
	_ZNK13QGraphicsItem21isBlockedByModalPanelEPPS_
	_ZNK13QGraphicsItem25boundingRegionGranularityEv
	_ZNK13QGraphicsItem3posEv
	_ZNK13QGraphicsItem4dataEi
	_ZNK13QGraphicsItem4typeEv
	_ZNK13QGraphicsItem5flagsEv
	_ZNK13QGraphicsItem5groupEv
	_ZNK13QGraphicsItem5panelEv
	_ZNK13QGraphicsItem5scaleEv
	_ZNK13QGraphicsItem5sceneEv
	_ZNK13QGraphicsItem5shapeEv
	_ZNK13QGraphicsItem6cursorEv
	_ZNK13QGraphicsItem6matrixEv
	_ZNK13QGraphicsItem6windowEv
	_ZNK13QGraphicsItem6zValueEv
	_ZNK13QGraphicsItem7isPanelEv
	_ZNK13QGraphicsItem7opacityEv
	_ZNK13QGraphicsItem7toolTipEv
	_ZNK13QGraphicsItem8clipPathEv
	_ZNK13QGraphicsItem8containsERK7QPointF
	_ZNK13QGraphicsItem8hasFocusEv
	_ZNK13QGraphicsItem8isActiveEv
	_ZNK13QGraphicsItem8isWidgetEv
	_ZNK13QGraphicsItem8isWindowEv
	_ZNK13QGraphicsItem8rotationEv
	_ZNK13QGraphicsItem8scenePosEv
	_ZNK13QGraphicsItem9cacheModeEv
	_ZNK13QGraphicsItem9extensionERK8QVariant
	_ZNK13QGraphicsItem9focusItemEv
	_ZNK13QGraphicsItem9hasCursorEv
	_ZNK13QGraphicsItem9isClippedEv
	_ZNK13QGraphicsItem9isEnabledEv
	_ZNK13QGraphicsItem9isVisibleEv
	_ZNK13QGraphicsItem9mapToItemEPKS_RK12QPainterPath
	_ZNK13QGraphicsItem9mapToItemEPKS_RK6QRectF
	_ZNK13QGraphicsItem9mapToItemEPKS_RK7QPointF
	_ZNK13QGraphicsItem9mapToItemEPKS_RK9QPolygonF
	_ZNK13QGraphicsItem9transformEv
	_ZNK13QGraphicsView10mapToSceneERK12QPainterPath
	_ZNK13QGraphicsView10mapToSceneERK5QRect
	_ZNK13QGraphicsView10mapToSceneERK6QPoint
	_ZNK13QGraphicsView10mapToSceneERK8QPolygon
	_ZNK13QGraphicsView10metaObjectEv
	_ZNK13QGraphicsView11renderHintsEv
	_ZNK13QGraphicsView12mapFromSceneERK12QPainterPath
	_ZNK13QGraphicsView12mapFromSceneERK6QRectF
	_ZNK13QGraphicsView12mapFromSceneERK7QPointF
	_ZNK13QGraphicsView12mapFromSceneERK9QPolygonF
	_ZNK13QGraphicsView12resizeAnchorEv
	_ZNK13QGraphicsView13isInteractiveEv
	_ZNK13QGraphicsView13isTransformedEv
	_ZNK13QGraphicsView14rubberBandRectEv
	_ZNK13QGraphicsView15backgroundBrushEv
	_ZNK13QGraphicsView15foregroundBrushEv
	_ZNK13QGraphicsView16inputMethodQueryEN2Qt16InputMethodQueryE
	_ZNK13QGraphicsView17optimizationFlagsEv
	_ZNK13QGraphicsView17viewportTransformEv
	_ZNK13QGraphicsView18viewportUpdateModeEv
	_ZNK13QGraphicsView20transformationAnchorEv
	_ZNK13QGraphicsView23rubberBandSelectionModeEv
	_ZNK13QGraphicsView5itemsERK12QPainterPathN2Qt17ItemSelectionModeE
	_ZNK13QGraphicsView5itemsERK5QRectN2Qt17ItemSelectionModeE
	_ZNK13QGraphicsView5itemsERK6QPoint
	_ZNK13QGraphicsView5itemsERK8QPolygonN2Qt17ItemSelectionModeE
	_ZNK13QGraphicsView5itemsEv
	_ZNK13QGraphicsView5sceneEv
	_ZNK13QGraphicsView6itemAtERK6QPoint
	_ZNK13QGraphicsView6matrixEv
	_ZNK13QGraphicsView8dragModeEv
	_ZNK13QGraphicsView8sizeHintEv
	_ZNK13QGraphicsView9alignmentEv
	_ZNK13QGraphicsView9cacheModeEv
	_ZNK13QGraphicsView9sceneRectEv
	_ZNK13QGraphicsView9transformEv
	_ZNK13QItemDelegate10decorationERK20QStyleOptionViewItemRK8QVariant
	_ZNK13QItemDelegate10metaObjectEv
	_ZNK13QItemDelegate10setOptionsERK11QModelIndexRK20QStyleOptionViewItem
	_ZNK13QItemDelegate11drawDisplayEP8QPainterRK20QStyleOptionViewItemRK5QRectRK7QString
	_ZNK13QItemDelegate11hasClippingEv
	_ZNK13QItemDelegate12createEditorEP7QWidgetRK20QStyleOptionViewItemRK11QModelIndex
	_ZNK13QItemDelegate12setModelDataEP7QWidgetP18QAbstractItemModelRK11QModelIndex
	_ZNK13QItemDelegate13setEditorDataEP7QWidgetRK11QModelIndex
	_ZNK13QItemDelegate13textRectangleEP8QPainterRK5QRectRK5QFontRK7QString
	_ZNK13QItemDelegate14drawBackgroundEP8QPainterRK20QStyleOptionViewItemRK11QModelIndex
	_ZNK13QItemDelegate14drawDecorationEP8QPainterRK20QStyleOptionViewItemRK5QRectRK7QPixmap
	_ZNK13QItemDelegate17itemEditorFactoryEv
	_ZNK13QItemDelegate20updateEditorGeometryEP7QWidgetRK20QStyleOptionViewItemRK11QModelIndex
	_ZNK13QItemDelegate4rectERK20QStyleOptionViewItemRK11QModelIndexi
	_ZNK13QItemDelegate5paintEP8QPainterRK20QStyleOptionViewItemRK11QModelIndex
	_ZNK13QItemDelegate7doCheckERK20QStyleOptionViewItemRK5QRectRK8QVariant
	_ZNK13QItemDelegate8doLayoutERK20QStyleOptionViewItemP5QRectS4_S4_b
	_ZNK13QItemDelegate8selectedERK7QPixmapRK8QPaletteb
	_ZNK13QItemDelegate8sizeHintERK20QStyleOptionViewItemRK11QModelIndex
	_ZNK13QItemDelegate9drawCheckEP8QPainterRK20QStyleOptionViewItemRK5QRectN2Qt10CheckStateE
	_ZNK13QItemDelegate9drawFocusEP8QPainterRK20QStyleOptionViewItemRK5QRect
	_ZNK13QMdiSubWindow10metaObjectEv
	_ZNK13QMdiSubWindow10systemMenuEv
	_ZNK13QMdiSubWindow10testOptionENS_15SubWindowOptionE
	_ZNK13QMdiSubWindow15minimumSizeHintEv
	_ZNK13QMdiSubWindow16keyboardPageStepEv
	_ZNK13QMdiSubWindow18keyboardSingleStepEv
	_ZNK13QMdiSubWindow22maximizedButtonsWidgetEv
	_ZNK13QMdiSubWindow29maximizedSystemMenuIconWidgetEv
	_ZNK13QMdiSubWindow6widgetEv
	_ZNK13QMdiSubWindow7mdiAreaEv
	_ZNK13QMdiSubWindow8isShadedEv
	_ZNK13QMdiSubWindow8sizeHintEv
	_ZNK13QOpenGLWidget10metaObjectEv
	_ZNK13QOpenGLWidget24defaultFramebufferObjectEv
	_ZNK13QOpenGLWidget6formatEv
	_ZNK13QOpenGLWidget7isValidEv
	_ZNK13QPinchGesture10metaObjectEv
	_ZNK13QPinchGesture11centerPointEv
	_ZNK13QPinchGesture11changeFlagsEv
	_ZNK13QPinchGesture11scaleFactorEv
	_ZNK13QPinchGesture13rotationAngleEv
	_ZNK13QPinchGesture15lastCenterPointEv
	_ZNK13QPinchGesture15lastScaleFactorEv
	_ZNK13QPinchGesture16startCenterPointEv
	_ZNK13QPinchGesture16totalChangeFlagsEv
	_ZNK13QPinchGesture16totalScaleFactorEv
	_ZNK13QPinchGesture17lastRotationAngleEv
	_ZNK13QPinchGesture18totalRotationAngleEv
	_ZNK13QPixmapFilter10metaObjectEv
	_ZNK13QPixmapFilter15boundingRectForERK6QRectF
	_ZNK13QPixmapFilter4typeEv
	_ZNK13QSplashScreen10metaObjectEv
	_ZNK13QSplashScreen6pixmapEv
	_ZNK13QSplashScreen7messageEv
	_ZNK13QSwipeGesture10metaObjectEv
	_ZNK13QSwipeGesture10swipeAngleEv
	_ZNK13QSwipeGesture17verticalDirectionEv
	_ZNK13QSwipeGesture19horizontalDirectionEv
	_ZNK13QWidgetAction10metaObjectEv
	_ZNK13QWidgetAction13defaultWidgetEv
	_ZNK13QWidgetAction14createdWidgetsEv
	_ZNK13QWidgetItemV211maximumSizeEv
	_ZNK13QWidgetItemV211minimumSizeEv
	_ZNK13QWidgetItemV214heightForWidthEi
	_ZNK13QWidgetItemV222updateCacheIfNecessaryEv
	_ZNK13QWidgetItemV28sizeHintEv
	_ZNK14QDesktopWidget10metaObjectEv
	_ZNK14QDesktopWidget10numScreensEv
	_ZNK14QDesktopWidget12screenNumberEPK7QWidget
	_ZNK14QDesktopWidget12screenNumberERK6QPoint
	_ZNK14QDesktopWidget13primaryScreenEv
	_ZNK14QDesktopWidget14screenGeometryEPK7QWidget
	_ZNK14QDesktopWidget14screenGeometryEi
	_ZNK14QDesktopWidget16isVirtualDesktopEv
	_ZNK14QDesktopWidget17availableGeometryEPK7QWidget
	_ZNK14QDesktopWidget17availableGeometryEi
	_ZNK14QDialogPrivate12parentWindowEv
	_ZNK14QDialogPrivate14platformHelperEv
	_ZNK14QDialogPrivate17canBeNativeDialogEv
	_ZNK14QDialogPrivate9styleHintEN21QPlatformDialogHelper9StyleHintE
	_ZNK14QDoubleSpinBox10metaObjectEv
	_ZNK14QDoubleSpinBox10singleStepEv
	_ZNK14QDoubleSpinBox13textFromValueEd
	_ZNK14QDoubleSpinBox13valueFromTextERK7QString
	_ZNK14QDoubleSpinBox5fixupER7QString
	_ZNK14QDoubleSpinBox5valueEv
	_ZNK14QDoubleSpinBox6prefixEv
	_ZNK14QDoubleSpinBox6suffixEv
	_ZNK14QDoubleSpinBox7maximumEv
	_ZNK14QDoubleSpinBox7minimumEv
	_ZNK14QDoubleSpinBox8decimalsEv
	_ZNK14QDoubleSpinBox8validateER7QStringRi
	_ZNK14QDoubleSpinBox9cleanTextEv
	_ZNK14QGraphicsScale10metaObjectEv
	_ZNK14QGraphicsScale6originEv
	_ZNK14QGraphicsScale6xScaleEv
	_ZNK14QGraphicsScale6yScaleEv
	_ZNK14QGraphicsScale6zScaleEv
	_ZNK14QGraphicsScale7applyToEP10QMatrix4x4
	_ZNK14QGraphicsScene10metaObjectEv
	_ZNK14QGraphicsScene11activePanelEv
	_ZNK14QGraphicsScene11stickyFocusEv
	_ZNK14QGraphicsScene12activeWindowEv
	_ZNK14QGraphicsScene12bspTreeDepthEv
	_ZNK14QGraphicsScene13selectedItemsEv
	_ZNK14QGraphicsScene13selectionAreaEv
	_ZNK14QGraphicsScene14collidingItemsEPK13QGraphicsItemN2Qt17ItemSelectionModeE
	_ZNK14QGraphicsScene15backgroundBrushEv
	_ZNK14QGraphicsScene15foregroundBrushEv
	_ZNK14QGraphicsScene15itemIndexMethodEv
	_ZNK14QGraphicsScene16inputMethodQueryEN2Qt16InputMethodQueryE
	_ZNK14QGraphicsScene16mouseGrabberItemEv
	_ZNK14QGraphicsScene17itemsBoundingRectEv
	_ZNK14QGraphicsScene18isSortCacheEnabledEv
	_ZNK14QGraphicsScene4fontEv
	_ZNK14QGraphicsScene5itemsEN2Qt9SortOrderE
	_ZNK14QGraphicsScene5itemsERK12QPainterPathN2Qt17ItemSelectionModeENS3_9SortOrderERK10QTransform
	_ZNK14QGraphicsScene5itemsERK6QRectFN2Qt17ItemSelectionModeENS3_9SortOrderERK10QTransform
	_ZNK14QGraphicsScene5itemsERK7QPointFN2Qt17ItemSelectionModeENS3_9SortOrderERK10QTransform
	_ZNK14QGraphicsScene5itemsERK9QPolygonFN2Qt17ItemSelectionModeENS3_9SortOrderERK10QTransform
	_ZNK14QGraphicsScene5styleEv
	_ZNK14QGraphicsScene5viewsEv
	_ZNK14QGraphicsScene6itemAtERK7QPointFRK10QTransform
	_ZNK14QGraphicsScene7paletteEv
	_ZNK14QGraphicsScene8hasFocusEv
	_ZNK14QGraphicsScene8isActiveEv
	_ZNK14QGraphicsScene9focusItemEv
	_ZNK14QGraphicsScene9sceneRectEv
	_ZNK14QLayoutPrivate9getMarginEPiiN6QStyle11PixelMetricE
	_ZNK14QPlainTextEdit10blockCountEv
	_ZNK14QPlainTextEdit10cursorRectERK11QTextCursor
	_ZNK14QPlainTextEdit10cursorRectEv
	_ZNK14QPlainTextEdit10isReadOnlyEv
	_ZNK14QPlainTextEdit10metaObjectEv
	_ZNK14QPlainTextEdit10textCursorEv
	_ZNK14QPlainTextEdit11cursorWidthEv
	_ZNK14QPlainTextEdit12lineWrapModeEv
	_ZNK14QPlainTextEdit12tabStopWidthEv
	_ZNK14QPlainTextEdit12wordWrapModeEv
	_ZNK14QPlainTextEdit13contentOffsetEv
	_ZNK14QPlainTextEdit13overwriteModeEv
	_ZNK14QPlainTextEdit14centerOnScrollEv
	_ZNK14QPlainTextEdit15extraSelectionsEv
	_ZNK14QPlainTextEdit15getPaintContextEv
	_ZNK14QPlainTextEdit15placeholderTextEv
	_ZNK14QPlainTextEdit15tabChangesFocusEv
	_ZNK14QPlainTextEdit16inputMethodQueryEN2Qt16InputMethodQueryE
	_ZNK14QPlainTextEdit16inputMethodQueryEN2Qt16InputMethodQueryE8QVariant
	_ZNK14QPlainTextEdit17backgroundVisibleEv
	_ZNK14QPlainTextEdit17blockBoundingRectERK10QTextBlock
	_ZNK14QPlainTextEdit17currentCharFormatEv
	_ZNK14QPlainTextEdit17cursorForPositionERK6QPoint
	_ZNK14QPlainTextEdit17firstVisibleBlockEv
	_ZNK14QPlainTextEdit20textInteractionFlagsEv
	_ZNK14QPlainTextEdit21blockBoundingGeometryERK10QTextBlock
	_ZNK14QPlainTextEdit21canInsertFromMimeDataEPK9QMimeData
	_ZNK14QPlainTextEdit27createMimeDataFromSelectionEv
	_ZNK14QPlainTextEdit5printEP17QPagedPaintDevice
	_ZNK14QPlainTextEdit8anchorAtERK6QPoint
	_ZNK14QPlainTextEdit8canPasteEv
	_ZNK14QPlainTextEdit8documentEv
	_ZNK14QStackedLayout10metaObjectEv
	_ZNK14QStackedLayout11minimumSizeEv
	_ZNK14QStackedLayout12currentIndexEv
	_ZNK14QStackedLayout12stackingModeEv
	_ZNK14QStackedLayout13currentWidgetEv
	_ZNK14QStackedLayout14heightForWidthEi
	_ZNK14QStackedLayout17hasHeightForWidthEv
	_ZNK14QStackedLayout5countEv
	_ZNK14QStackedLayout6itemAtEi
	_ZNK14QStackedLayout6widgetEi
	_ZNK14QStackedLayout8sizeHintEv
	_ZNK14QStackedWidget10metaObjectEv
	_ZNK14QStackedWidget12currentIndexEv
	_ZNK14QStackedWidget13currentWidgetEv
	_ZNK14QStackedWidget5countEv
	_ZNK14QStackedWidget6widgetEi
	_ZNK14QStackedWidget7indexOfEP7QWidget
	_ZNK14QWidgetPrivate10clipRegionEv
	_ZNK14QWidgetPrivate10frameStrutEv
	_ZNK14QWidgetPrivate12adjustedSizeEv
	_ZNK14QWidgetPrivate12isOverlappedERK5QRect
	_ZNK14QWidgetPrivate12shareContextEv
	_ZNK14QWidgetPrivate13isAboutToShowEv
	_ZNK14QWidgetPrivate13paintOnScreenEv
	_ZNK14QWidgetPrivate14childAt_helperERK6QPointb
	_ZNK14QWidgetPrivate15paintBackgroundEP8QPainterRK7QRegioni
	_ZNK14QWidgetPrivate17getOpaqueChildrenEv
	_ZNK14QWidgetPrivate17naturalWidgetFontEj
	_ZNK14QWidgetPrivate19clipToEffectiveMaskER7QRegion
	_ZNK14QWidgetPrivate20getLayoutItemMarginsEPiS0_S0_S0_
	_ZNK14QWidgetPrivate20naturalWidgetPaletteEj
	_ZNK14QWidgetPrivate22childAtRecursiveHelperERK6QPointb
	_ZNK14QWidgetPrivate22subtractOpaqueChildrenER7QRegionRK5QRect
	_ZNK14QWidgetPrivate22subtractOpaqueSiblingsER7QRegionPbb
	_ZNK14QWidgetPrivate8clipRectEv
	_ZNK14QWidgetPrivate9textureIdEv
	_ZNK15QAbstractButton10autoRepeatEv
	_ZNK15QAbstractButton10metaObjectEv
	_ZNK15QAbstractButton11isCheckableEv
	_ZNK15QAbstractButton13autoExclusiveEv
	_ZNK15QAbstractButton15autoRepeatDelayEv
	_ZNK15QAbstractButton18autoRepeatIntervalEv
	_ZNK15QAbstractButton4iconEv
	_ZNK15QAbstractButton4textEv
	_ZNK15QAbstractButton5groupEv
	_ZNK15QAbstractButton6isDownEv
	_ZNK15QAbstractButton8iconSizeEv
	_ZNK15QAbstractButton8shortcutEv
	_ZNK15QAbstractButton9hitButtonERK6QPoint
	_ZNK15QAbstractButton9isCheckedEv
	_ZNK15QAbstractSlider10metaObjectEv
	_ZNK15QAbstractSlider10singleStepEv
	_ZNK15QAbstractSlider11hasTrackingEv
	_ZNK15QAbstractSlider11orientationEv
	_ZNK15QAbstractSlider12isSliderDownEv
	_ZNK15QAbstractSlider12repeatActionEv
	_ZNK15QAbstractSlider14sliderPositionEv
	_ZNK15QAbstractSlider16invertedControlsEv
	_ZNK15QAbstractSlider18invertedAppearanceEv
	_ZNK15QAbstractSlider5valueEv
	_ZNK15QAbstractSlider7maximumEv
	_ZNK15QAbstractSlider7minimumEv
	_ZNK15QAbstractSlider8pageStepEv
	_ZNK15QCalendarWidget10metaObjectEv
	_ZNK15QCalendarWidget10monthShownEv
	_ZNK15QCalendarWidget11maximumDateEv
	_ZNK15QCalendarWidget11minimumDateEv
	_ZNK15QCalendarWidget12selectedDateEv
	_ZNK15QCalendarWidget13isGridVisibleEv
	_ZNK15QCalendarWidget13selectionModeEv
	_ZNK15QCalendarWidget14dateTextFormatERK5QDate
	_ZNK15QCalendarWidget14dateTextFormatEv
	_ZNK15QCalendarWidget14firstDayOfWeekEv
	_ZNK15QCalendarWidget15minimumSizeHintEv
	_ZNK15QCalendarWidget16headerTextFormatEv
	_ZNK15QCalendarWidget17isDateEditEnabledEv
	_ZNK15QCalendarWidget17weekdayTextFormatEN2Qt9DayOfWeekE
	_ZNK15QCalendarWidget19dateEditAcceptDelayEv
	_ZNK15QCalendarWidget20verticalHeaderFormatEv
	_ZNK15QCalendarWidget22horizontalHeaderFormatEv
	_ZNK15QCalendarWidget22isNavigationBarVisibleEv
	_ZNK15QCalendarWidget8sizeHintEv
	_ZNK15QCalendarWidget9paintCellEP8QPainterRK5QRectRK5QDate
	_ZNK15QCalendarWidget9yearShownEv
	_ZNK15QGraphicsAnchor10metaObjectEv
	_ZNK15QGraphicsAnchor10sizePolicyEv
	_ZNK15QGraphicsAnchor7spacingEv
	_ZNK15QGraphicsEffect10metaObjectEv
	_ZNK15QGraphicsEffect12boundingRectEv
	_ZNK15QGraphicsEffect12sourcePixmapEN2Qt16CoordinateSystemEP6QPointNS_13PixmapPadModeE
	_ZNK15QGraphicsEffect14sourceIsPixmapEv
	_ZNK15QGraphicsEffect15boundingRectForERK6QRectF
	_ZNK15QGraphicsEffect18sourceBoundingRectEN2Qt16CoordinateSystemE
	_ZNK15QGraphicsEffect6sourceEv
	_ZNK15QGraphicsEffect9isEnabledEv
	_ZNK15QGraphicsLayout11isActivatedEv
	_ZNK15QGraphicsLayout18getContentsMarginsEPdS0_S0_S0_
	_ZNK15QGraphicsObject10metaObjectEv
	_ZNK15QGraphicsWidget10metaObjectEv
	_ZNK15QGraphicsWidget10windowTypeEv
	_ZNK15QGraphicsWidget11focusPolicyEv
	_ZNK15QGraphicsWidget11focusWidgetEv
	_ZNK15QGraphicsWidget11windowFlagsEv
	_ZNK15QGraphicsWidget11windowTitleEv
	_ZNK15QGraphicsWidget12boundingRectEv
	_ZNK15QGraphicsWidget13testAttributeEN2Qt15WidgetAttributeE
	_ZNK15QGraphicsWidget14isActiveWindowEv
	_ZNK15QGraphicsWidget15initStyleOptionEP12QStyleOption
	_ZNK15QGraphicsWidget15layoutDirectionEv
	_ZNK15QGraphicsWidget15windowFrameRectEv
	_ZNK15QGraphicsWidget18autoFillBackgroundEv
	_ZNK15QGraphicsWidget18getContentsMarginsEPdS0_S0_S0_
	_ZNK15QGraphicsWidget19windowFrameGeometryEv
	_ZNK15QGraphicsWidget20windowFrameSectionAtERK7QPointF
	_ZNK15QGraphicsWidget21getWindowFrameMarginsEPdS0_S0_S0_
	_ZNK15QGraphicsWidget4fontEv
	_ZNK15QGraphicsWidget4sizeEv
	_ZNK15QGraphicsWidget4typeEv
	_ZNK15QGraphicsWidget5shapeEv
	_ZNK15QGraphicsWidget5styleEv
	_ZNK15QGraphicsWidget6layoutEv
	_ZNK15QGraphicsWidget7actionsEv
	_ZNK15QGraphicsWidget7paletteEv
	_ZNK15QGraphicsWidget8sizeHintEN2Qt8SizeHintERK6QSizeF
	_ZNK15QListWidgetItem4dataEi
	_ZNK15QListWidgetItem5cloneEv
	_ZNK15QListWidgetItem5writeER11QDataStream
	_ZNK15QListWidgetItemltERKS_
	_ZNK15QProgressDialog10metaObjectEv
	_ZNK15QProgressDialog11wasCanceledEv
	_ZNK15QProgressDialog15minimumDurationEv
	_ZNK15QProgressDialog5valueEv
	_ZNK15QProgressDialog7maximumEv
	_ZNK15QProgressDialog7minimumEv
	_ZNK15QProgressDialog8sizeHintEv
	_ZNK15QProgressDialog9autoCloseEv
	_ZNK15QProgressDialog9autoResetEv
	_ZNK15QProgressDialog9labelTextEv
	_ZNK15QSplitterHandle10metaObjectEv
	_ZNK15QSplitterHandle11orientationEv
	_ZNK15QSplitterHandle12opaqueResizeEv
	_ZNK15QSplitterHandle8sizeHintEv
	_ZNK15QSplitterHandle8splitterEv
	_ZNK15QSystemTrayIcon10metaObjectEv
	_ZNK15QSystemTrayIcon11contextMenuEv
	_ZNK15QSystemTrayIcon4iconEv
	_ZNK15QSystemTrayIcon7toolTipEv
	_ZNK15QSystemTrayIcon8geometryEv
	_ZNK15QSystemTrayIcon9isVisibleEv
	_ZNK15QTreeWidgetItem18childrenCheckStateEi
	_ZNK15QTreeWidgetItem18executePendingSortEv
	_ZNK15QTreeWidgetItem20childIndicatorPolicyEv
	_ZNK15QTreeWidgetItem4dataEii
	_ZNK15QTreeWidgetItem5cloneEv
	_ZNK15QTreeWidgetItem5flagsEv
	_ZNK15QTreeWidgetItem5writeER11QDataStream
	_ZNK15QTreeWidgetItemltERKS_
	_ZNK16QAbstractSpinBox10isReadOnlyEv
	_ZNK16QAbstractSpinBox10metaObjectEv
	_ZNK16QAbstractSpinBox11stepEnabledEv
	_ZNK16QAbstractSpinBox13buttonSymbolsEv
	_ZNK16QAbstractSpinBox13isAcceleratedEv
	_ZNK16QAbstractSpinBox14correctionModeEv
	_ZNK16QAbstractSpinBox15initStyleOptionEP19QStyleOptionSpinBox
	_ZNK16QAbstractSpinBox15minimumSizeHintEv
	_ZNK16QAbstractSpinBox16inputMethodQueryEN2Qt16InputMethodQueryE
	_ZNK16QAbstractSpinBox16keyboardTrackingEv
	_ZNK16QAbstractSpinBox16specialValueTextEv
	_ZNK16QAbstractSpinBox18hasAcceptableInputEv
	_ZNK16QAbstractSpinBox21isGroupSeparatorShownEv
	_ZNK16QAbstractSpinBox4textEv
	_ZNK16QAbstractSpinBox5fixupER7QString
	_ZNK16QAbstractSpinBox8hasFrameEv
	_ZNK16QAbstractSpinBox8lineEditEv
	_ZNK16QAbstractSpinBox8sizeHintEv
	_ZNK16QAbstractSpinBox8validateER7QStringRi
	_ZNK16QAbstractSpinBox8wrappingEv
	_ZNK16QAbstractSpinBox9alignmentEv
	_ZNK16QDialogButtonBox10buttonRoleEP15QAbstractButton
	_ZNK16QDialogButtonBox10metaObjectEv
	_ZNK16QDialogButtonBox11orientationEv
	_ZNK16QDialogButtonBox13centerButtonsEv
	_ZNK16QDialogButtonBox14standardButtonEP15QAbstractButton
	_ZNK16QDialogButtonBox15standardButtonsEv
	_ZNK16QDialogButtonBox6buttonENS_14StandardButtonE
	_ZNK16QDialogButtonBox7buttonsEv
	_ZNK16QFileSystemModel10headerDataEiN2Qt11OrientationEi
	_ZNK16QFileSystemModel10isReadOnlyEv
	_ZNK16QFileSystemModel10metaObjectEv
	_ZNK16QFileSystemModel10myComputerEi
	_ZNK16QFileSystemModel11columnCountERK11QModelIndex
	_ZNK16QFileSystemModel11hasChildrenERK11QModelIndex
	_ZNK16QFileSystemModel11nameFiltersEv
	_ZNK16QFileSystemModel11permissionsERK11QModelIndex
	_ZNK16QFileSystemModel12canFetchMoreERK11QModelIndex
	_ZNK16QFileSystemModel12iconProviderEv
	_ZNK16QFileSystemModel12lastModifiedERK11QModelIndex
	_ZNK16QFileSystemModel13rootDirectoryEv
	_ZNK16QFileSystemModel15resolveSymlinksEv
	_ZNK16QFileSystemModel18nameFilterDisablesEv
	_ZNK16QFileSystemModel20supportedDropActionsEv
	_ZNK16QFileSystemModel4dataERK11QModelIndexi
	_ZNK16QFileSystemModel4sizeERK11QModelIndex
	_ZNK16QFileSystemModel4typeERK11QModelIndex
	_ZNK16QFileSystemModel5flagsERK11QModelIndex
	_ZNK16QFileSystemModel5indexERK7QStringi
	_ZNK16QFileSystemModel5indexEiiRK11QModelIndex
	_ZNK16QFileSystemModel5isDirERK11QModelIndex
	_ZNK16QFileSystemModel6filterEv
	_ZNK16QFileSystemModel6parentERK11QModelIndex
	_ZNK16QFileSystemModel8filePathERK11QModelIndex
	_ZNK16QFileSystemModel8mimeDataERK5QListI11QModelIndexE
	_ZNK16QFileSystemModel8rootPathEv
	_ZNK16QFileSystemModel8rowCountERK11QModelIndex
	_ZNK16QFileSystemModel9mimeTypesEv
	_ZNK16QKeySequenceEdit10metaObjectEv
	_ZNK16QKeySequenceEdit11keySequenceEv
	_ZNK16QTableWidgetItem4dataEi
	_ZNK16QTableWidgetItem5cloneEv
	_ZNK16QTableWidgetItem5writeER11QDataStream
	_ZNK16QTableWidgetItemltERKS_
	_ZNK16QTreeViewPrivate10itemHeightEi
	_ZNK16QTreeViewPrivate10modelIndexEii
	_ZNK16QTreeViewPrivate12columnRangesERK11QModelIndexS2_
	_ZNK16QTreeViewPrivate15lastVisibleItemEii
	_ZNK16QTreeViewPrivate16firstVisibleItemEPi
	_ZNK16QTreeViewPrivate16itemAtCoordinateEi
	_ZNK16QTreeViewPrivate16itemDecorationAtERK6QPoint
	_ZNK16QTreeViewPrivate17coordinateForItemEi
	_ZNK16QTreeViewPrivate17widthHintForIndexERK11QModelIndexiRK20QStyleOptionViewItemi
	_ZNK16QTreeViewPrivate18calcLogicalIndicesEP7QVectorIiEPS0_IN20QStyleOptionViewItem16ViewItemPositionEEii
	_ZNK16QTreeViewPrivate18hasVisibleChildrenERK11QModelIndex
	_ZNK16QTreeViewPrivate18indentationForItemEi
	_ZNK16QTreeViewPrivate18itemDecorationRectERK11QModelIndex
	_ZNK16QTreeViewPrivate18startAndEndColumnsERK5QRect
	_ZNK16QTreeViewPrivate19draggablePaintPairsERK5QListI11QModelIndexEP5QRect
	_ZNK16QTreeViewPrivate19logicalIndexForTreeEv
	_ZNK16QTreeViewPrivate20accessibleTree2IndexERK11QModelIndex
	_ZNK16QTreeViewPrivate21drawAnimatedOperationEP8QPainter
	_ZNK16QTreeViewPrivate25adjustViewOptionsForIndexEP20QStyleOptionViewItemRK11QModelIndex
	_ZNK16QTreeViewPrivate25paintAlternatingRowColorsEP8QPainterP20QStyleOptionViewItemii
	_ZNK16QTreeViewPrivate30renderTreeToPixmapForAnimationERK5QRect
	_ZNK16QTreeViewPrivate6pageUpEi
	_ZNK16QTreeViewPrivate8columnAtEi
	_ZNK16QTreeViewPrivate8pageDownEi
	_ZNK16QTreeViewPrivate9viewIndexERK11QModelIndex
	_ZNK16QWindowContainer10metaObjectEv
	_ZNK16QWindowContainer15containedWindowEv
	_ZNK17QAbstractItemView10metaObjectEv
	_ZNK17QAbstractItemView11dragEnabledEv
	_ZNK17QAbstractItemView11indexWidgetERK11QModelIndex
	_ZNK17QAbstractItemView11viewOptionsEv
	_ZNK17QAbstractItemView12currentIndexEv
	_ZNK17QAbstractItemView12dragDropModeEv
	_ZNK17QAbstractItemView12editTriggersEv
	_ZNK17QAbstractItemView12itemDelegateERK11QModelIndex
	_ZNK17QAbstractItemView12itemDelegateEv
	_ZNK17QAbstractItemView13hasAutoScrollEv
	_ZNK17QAbstractItemView13selectionModeEv
	_ZNK17QAbstractItemView13textElideModeEv
	_ZNK17QAbstractItemView14selectionModelEv
	_ZNK17QAbstractItemView14sizeHintForRowEi
	_ZNK17QAbstractItemView15selectedIndexesEv
	_ZNK17QAbstractItemView16autoScrollMarginEv
	_ZNK17QAbstractItemView16inputMethodQueryEN2Qt16InputMethodQueryE
	_ZNK17QAbstractItemView16selectionCommandERK11QModelIndexPK6QEvent
	_ZNK17QAbstractItemView16sizeHintForIndexERK11QModelIndex
	_ZNK17QAbstractItemView16tabKeyNavigationEv
	_ZNK17QAbstractItemView16viewportSizeHintEv
	_ZNK17QAbstractItemView17defaultDropActionEv
	_ZNK17QAbstractItemView17dirtyRegionOffsetEv
	_ZNK17QAbstractItemView17selectionBehaviorEv
	_ZNK17QAbstractItemView17showDropIndicatorEv
	_ZNK17QAbstractItemView17sizeHintForColumnEi
	_ZNK17QAbstractItemView18itemDelegateForRowEi
	_ZNK17QAbstractItemView18verticalScrollModeEv
	_ZNK17QAbstractItemView20alternatingRowColorsEv
	_ZNK17QAbstractItemView20horizontalScrollModeEv
	_ZNK17QAbstractItemView20verticalStepsPerItemEv
	_ZNK17QAbstractItemView21dragDropOverwriteModeEv
	_ZNK17QAbstractItemView21dropIndicatorPositionEv
	_ZNK17QAbstractItemView21itemDelegateForColumnEi
	_ZNK17QAbstractItemView22horizontalStepsPerItemEv
	_ZNK17QAbstractItemView5modelEv
	_ZNK17QAbstractItemView5stateEv
	_ZNK17QAbstractItemView8iconSizeEv
	_ZNK17QAbstractItemView9rootIndexEv
	_ZNK17QAccessibleWidget10childCountEv
	_ZNK17QAccessibleWidget10focusChildEv
	_ZNK17QAccessibleWidget11actionNamesEv
	_ZNK17QAccessibleWidget12indexOfChildEPK20QAccessibleInterface
	_ZNK17QAccessibleWidget12parentObjectEv
	_ZNK17QAccessibleWidget15backgroundColorEv
	_ZNK17QAccessibleWidget15foregroundColorEv
	_ZNK17QAccessibleWidget20keyBindingsForActionERK7QString
	_ZNK17QAccessibleWidget4rectEv
	_ZNK17QAccessibleWidget4roleEv
	_ZNK17QAccessibleWidget4textEN11QAccessible4TextE
	_ZNK17QAccessibleWidget5childEi
	_ZNK17QAccessibleWidget5stateEv
	_ZNK17QAccessibleWidget6parentEv
	_ZNK17QAccessibleWidget6widgetEv
	_ZNK17QAccessibleWidget6windowEv
	_ZNK17QAccessibleWidget7isValidEv
	_ZNK17QAccessibleWidget9relationsE6QFlagsIN11QAccessible12RelationFlagEE
	_ZNK17QDataWidgetMapper10metaObjectEv
	_ZNK17QDataWidgetMapper11orientationEv
	_ZNK17QDataWidgetMapper12currentIndexEv
	_ZNK17QDataWidgetMapper12itemDelegateEv
	_ZNK17QDataWidgetMapper12submitPolicyEv
	_ZNK17QDataWidgetMapper13mappedSectionEP7QWidget
	_ZNK17QDataWidgetMapper14mappedWidgetAtEi
	_ZNK17QDataWidgetMapper18mappedPropertyNameEP7QWidget
	_ZNK17QDataWidgetMapper5modelEv
	_ZNK17QDataWidgetMapper9rootIndexEv
	_ZNK17QDockWidgetLayout10metaObjectEv
	_ZNK17QDockWidgetLayout11itemForRoleENS_4RoleE
	_ZNK17QDockWidgetLayout11maximumSizeEv
	_ZNK17QDockWidgetLayout11minimumSizeEv
	_ZNK17QDockWidgetLayout11titleHeightEv
	_ZNK17QDockWidgetLayout13widgetForRoleENS_4RoleE
	_ZNK17QDockWidgetLayout15sizeFromContentERK5QSizeb
	_ZNK17QDockWidgetLayout16nativeWindowDecoEb
	_ZNK17QDockWidgetLayout16nativeWindowDecoEv
	_ZNK17QDockWidgetLayout17minimumTitleWidthEv
	_ZNK17QDockWidgetLayout5countEv
	_ZNK17QDockWidgetLayout6itemAtEi
	_ZNK17QDockWidgetLayout8sizeHintEv
	_ZNK17QFileIconProvider4iconENS_8IconTypeE
	_ZNK17QFileIconProvider4iconERK9QFileInfo
	_ZNK17QFileIconProvider4typeERK9QFileInfo
	_ZNK17QFileIconProvider7optionsEv
	_ZNK17QGraphicsLineItem10opaqueAreaEv
	_ZNK17QGraphicsLineItem12boundingRectEv
	_ZNK17QGraphicsLineItem12isObscuredByEPK13QGraphicsItem
	_ZNK17QGraphicsLineItem17supportsExtensionEN13QGraphicsItem9ExtensionE
	_ZNK17QGraphicsLineItem3penEv
	_ZNK17QGraphicsLineItem4lineEv
	_ZNK17QGraphicsLineItem4typeEv
	_ZNK17QGraphicsLineItem5shapeEv
	_ZNK17QGraphicsLineItem8containsERK7QPointF
	_ZNK17QGraphicsLineItem9extensionERK8QVariant
	_ZNK17QGraphicsPathItem10opaqueAreaEv
	_ZNK17QGraphicsPathItem12boundingRectEv
	_ZNK17QGraphicsPathItem12isObscuredByEPK13QGraphicsItem
	_ZNK17QGraphicsPathItem17supportsExtensionEN13QGraphicsItem9ExtensionE
	_ZNK17QGraphicsPathItem4pathEv
	_ZNK17QGraphicsPathItem4typeEv
	_ZNK17QGraphicsPathItem5shapeEv
	_ZNK17QGraphicsPathItem8containsERK7QPointF
	_ZNK17QGraphicsPathItem9extensionERK8QVariant
	_ZNK17QGraphicsRectItem10opaqueAreaEv
	_ZNK17QGraphicsRectItem12boundingRectEv
	_ZNK17QGraphicsRectItem12isObscuredByEPK13QGraphicsItem
	_ZNK17QGraphicsRectItem17supportsExtensionEN13QGraphicsItem9ExtensionE
	_ZNK17QGraphicsRectItem4rectEv
	_ZNK17QGraphicsRectItem4typeEv
	_ZNK17QGraphicsRectItem5shapeEv
	_ZNK17QGraphicsRectItem8containsERK7QPointF
	_ZNK17QGraphicsRectItem9extensionERK8QVariant
	_ZNK17QGraphicsRotation10metaObjectEv
	_ZNK17QGraphicsRotation4axisEv
	_ZNK17QGraphicsRotation5angleEv
	_ZNK17QGraphicsRotation6originEv
	_ZNK17QGraphicsRotation7applyToEP10QMatrix4x4
	_ZNK17QGraphicsTextItem10metaObjectEv
	_ZNK17QGraphicsTextItem10opaqueAreaEv
	_ZNK17QGraphicsTextItem10textCursorEv
	_ZNK17QGraphicsTextItem11toPlainTextEv
	_ZNK17QGraphicsTextItem12boundingRectEv
	_ZNK17QGraphicsTextItem12isObscuredByEPK13QGraphicsItem
	_ZNK17QGraphicsTextItem15tabChangesFocusEv
	_ZNK17QGraphicsTextItem16defaultTextColorEv
	_ZNK17QGraphicsTextItem16inputMethodQueryEN2Qt16InputMethodQueryE
	_ZNK17QGraphicsTextItem17openExternalLinksEv
	_ZNK17QGraphicsTextItem17supportsExtensionEN13QGraphicsItem9ExtensionE
	_ZNK17QGraphicsTextItem20textInteractionFlagsEv
	_ZNK17QGraphicsTextItem4fontEv
	_ZNK17QGraphicsTextItem4typeEv
	_ZNK17QGraphicsTextItem5shapeEv
	_ZNK17QGraphicsTextItem6toHtmlEv
	_ZNK17QGraphicsTextItem8containsERK7QPointF
	_ZNK17QGraphicsTextItem8documentEv
	_ZNK17QGraphicsTextItem9extensionERK8QVariant
	_ZNK17QGraphicsTextItem9textWidthEv
	_ZNK17QPixmapBlurFilter10metaObjectEv
	_ZNK17QPixmapBlurFilter15boundingRectForERK6QRectF
	_ZNK17QPixmapBlurFilter4drawEP8QPainterRK7QPointFRK7QPixmapRK6QRectF
	_ZNK17QPixmapBlurFilter6radiusEv
	_ZNK17QPixmapBlurFilter9blurHintsEv
	_ZNK18QCommandLinkButton10metaObjectEv
	_ZNK18QCommandLinkButton11descriptionEv
	_ZNK18QCommandLinkButton14heightForWidthEi
	_ZNK18QCommandLinkButton15minimumSizeHintEv
	_ZNK18QCommandLinkButton8sizeHintEv
	_ZNK18QFileDialogPrivate10typedFilesEv
	_ZNK18QFileDialogPrivate11currentViewEv
	_ZNK18QFileDialogPrivate17canBeNativeDialogEv
	_ZNK18QFileDialogPrivate17userSelectedFilesEv
	_ZNK18QFileDialogPrivate22addDefaultSuffixToUrlsERK5QListI4QUrlE
	_ZNK18QFileDialogPrivate23addDefaultSuffixToFilesE11QStringList
	_ZNK18QFileDialogPrivate8lineEditEv
	_ZNK18QGraphicsItemGroup10opaqueAreaEv
	_ZNK18QGraphicsItemGroup12boundingRectEv
	_ZNK18QGraphicsItemGroup12isObscuredByEPK13QGraphicsItem
	_ZNK18QGraphicsItemGroup4typeEv
	_ZNK18QGraphicsTransform10metaObjectEv
	_ZNK18QItemEditorFactory12createEditorEiP7QWidget
	_ZNK18QItemEditorFactory17valuePropertyNameEi
	_ZNK18QTapAndHoldGesture10metaObjectEv
	_ZNK18QTapAndHoldGesture8positionEv
	_ZNK18QWidgetLineControl10cursorRectEv
	_ZNK18QWidgetLineControl10findInMaskEibb5QChar
	_ZNK18QWidgetLineControl10maskStringEjRK7QStringb
	_ZNK18QWidgetLineControl10metaObjectEv
	_ZNK18QWidgetLineControl11clearStringEjj
	_ZNK18QWidgetLineControl11stripStringERK7QString
	_ZNK18QWidgetLineControl12isValidInputE5QCharS0_
	_ZNK18QWidgetLineControl14redoTextLayoutEv
	_ZNK18QWidgetLineControl15isRedoAvailableEv
	_ZNK18QWidgetLineControl15isUndoAvailableEv
	_ZNK18QWidgetLineControl15layoutDirectionEv
	_ZNK18QWidgetLineControl18hasAcceptableInputERK7QString
	_ZNK18QWidgetLineControl4copyEN10QClipboard4ModeE
	_ZNK18QWidgetLineControl4textEv
	_ZNK18QWidgetLineControl6xToPosEiN9QTextLine14CursorPositionE
	_ZNK18QWidgetTextControl10cursorRectERK11QTextCursor
	_ZNK18QWidgetTextControl10cursorRectEv
	_ZNK18QWidgetTextControl10metaObjectEv
	_ZNK18QWidgetTextControl10textCursorEv
	_ZNK18QWidgetTextControl11cursorWidthEv
	_ZNK18QWidgetTextControl11toPlainTextEv
	_ZNK18QWidgetTextControl13isDragEnabledEv
	_ZNK18QWidgetTextControl13overwriteModeEv
	_ZNK18QWidgetTextControl13selectionRectERK11QTextCursor
	_ZNK18QWidgetTextControl13selectionRectEv
	_ZNK18QWidgetTextControl14acceptRichTextEv
	_ZNK18QWidgetTextControl14anchorAtCursorEv
	_ZNK18QWidgetTextControl14anchorPositionERK7QString
	_ZNK18QWidgetTextControl15extraSelectionsEv
	_ZNK18QWidgetTextControl15getPaintContextEP7QWidget
	_ZNK18QWidgetTextControl16inputMethodQueryEN2Qt16InputMethodQueryE8QVariant
	_ZNK18QWidgetTextControl17blockBoundingRectERK10QTextBlock
	_ZNK18QWidgetTextControl17currentCharFormatEv
	_ZNK18QWidgetTextControl17cursorForPositionERK7QPointF
	_ZNK18QWidgetTextControl17openExternalLinksEv
	_ZNK18QWidgetTextControl20textInteractionFlagsEv
	_ZNK18QWidgetTextControl21canInsertFromMimeDataEPK9QMimeData
	_ZNK18QWidgetTextControl22cursorIsFocusIndicatorEv
	_ZNK18QWidgetTextControl22isWordSelectionEnabledEv
	_ZNK18QWidgetTextControl27createMimeDataFromSelectionEv
	_ZNK18QWidgetTextControl28ignoreUnusedNavigationEventsEv
	_ZNK18QWidgetTextControl4sizeEv
	_ZNK18QWidgetTextControl5printEP17QPagedPaintDevice
	_ZNK18QWidgetTextControl6toHtmlEv
	_ZNK18QWidgetTextControl7hitTestERK7QPointFN2Qt15HitTestAccuracyE
	_ZNK18QWidgetTextControl7paletteEv
	_ZNK18QWidgetTextControl8anchorAtERK7QPointF
	_ZNK18QWidgetTextControl8canPasteEv
	_ZNK18QWidgetTextControl8documentEv
	_ZNK18QWidgetTextControl9textWidthEv
	_ZNK19QAbstractScrollArea10metaObjectEv
	_ZNK19QAbstractScrollArea12cornerWidgetEv
	_ZNK19QAbstractScrollArea15minimumSizeHintEv
	_ZNK19QAbstractScrollArea16sizeAdjustPolicyEv
	_ZNK19QAbstractScrollArea16viewportSizeHintEv
	_ZNK19QAbstractScrollArea17verticalScrollBarEv
	_ZNK19QAbstractScrollArea19horizontalScrollBarEv
	_ZNK19QAbstractScrollArea19maximumViewportSizeEv
	_ZNK19QAbstractScrollArea23verticalScrollBarPolicyEv
	_ZNK19QAbstractScrollArea25horizontalScrollBarPolicyEv
	_ZNK19QAbstractScrollArea8sizeHintEv
	_ZNK19QAbstractScrollArea8viewportEv
	_ZNK19QApplicationPrivate15isWindowBlockedEP7QWindowPS1_
	_ZNK19QApplicationPrivate21applyQIconStyleHelperEN5QIcon4ModeERK7QPixmap
	_ZNK19QGraphicsBlurEffect10blurRadiusEv
	_ZNK19QGraphicsBlurEffect10metaObjectEv
	_ZNK19QGraphicsBlurEffect15boundingRectForERK6QRectF
	_ZNK19QGraphicsBlurEffect9blurHintsEv
	_ZNK19QGraphicsGridLayout10rowSpacingEi
	_ZNK19QGraphicsGridLayout11columnCountEv
	_ZNK19QGraphicsGridLayout12rowAlignmentEi
	_ZNK19QGraphicsGridLayout13columnSpacingEi
	_ZNK19QGraphicsGridLayout15columnAlignmentEi
	_ZNK19QGraphicsGridLayout15verticalSpacingEv
	_ZNK19QGraphicsGridLayout16rowMaximumHeightEi
	_ZNK19QGraphicsGridLayout16rowMinimumHeightEi
	_ZNK19QGraphicsGridLayout16rowStretchFactorEi
	_ZNK19QGraphicsGridLayout17horizontalSpacingEv
	_ZNK19QGraphicsGridLayout18columnMaximumWidthEi
	_ZNK19QGraphicsGridLayout18columnMinimumWidthEi
	_ZNK19QGraphicsGridLayout18rowPreferredHeightEi
	_ZNK19QGraphicsGridLayout19columnStretchFactorEi
	_ZNK19QGraphicsGridLayout20columnPreferredWidthEi
	_ZNK19QGraphicsGridLayout5countEv
	_ZNK19QGraphicsGridLayout6itemAtEi
	_ZNK19QGraphicsGridLayout6itemAtEii
	_ZNK19QGraphicsGridLayout8rowCountEv
	_ZNK19QGraphicsGridLayout8sizeHintEN2Qt8SizeHintERK6QSizeF
	_ZNK19QGraphicsGridLayout9alignmentEP19QGraphicsLayoutItem
	_ZNK19QGraphicsLayoutItem10sizePolicyEv
	_ZNK19QGraphicsLayoutItem11maximumSizeEv
	_ZNK19QGraphicsLayoutItem11minimumSizeEv
	_ZNK19QGraphicsLayoutItem12contentsRectEv
	_ZNK19QGraphicsLayoutItem12graphicsItemEv
	_ZNK19QGraphicsLayoutItem13ownedByLayoutEv
	_ZNK19QGraphicsLayoutItem13preferredSizeEv
	_ZNK19QGraphicsLayoutItem16parentLayoutItemEv
	_ZNK19QGraphicsLayoutItem17effectiveSizeHintEN2Qt8SizeHintERK6QSizeF
	_ZNK19QGraphicsLayoutItem18getContentsMarginsEPdS0_S0_S0_
	_ZNK19QGraphicsLayoutItem8geometryEv
	_ZNK19QGraphicsLayoutItem8isLayoutEv
	_ZNK19QGraphicsPixmapItem10opaqueAreaEv
	_ZNK19QGraphicsPixmapItem12boundingRectEv
	_ZNK19QGraphicsPixmapItem12isObscuredByEPK13QGraphicsItem
	_ZNK19QGraphicsPixmapItem17supportsExtensionEN13QGraphicsItem9ExtensionE
	_ZNK19QGraphicsPixmapItem18transformationModeEv
	_ZNK19QGraphicsPixmapItem4typeEv
	_ZNK19QGraphicsPixmapItem5shapeEv
	_ZNK19QGraphicsPixmapItem6offsetEv
	_ZNK19QGraphicsPixmapItem6pixmapEv
	_ZNK19QGraphicsPixmapItem8containsERK7QPointF
	_ZNK19QGraphicsPixmapItem9extensionERK8QVariant
	_ZNK19QGraphicsPixmapItem9shapeModeEv
	_ZNK19QGraphicsSceneEvent6widgetEv
	_ZNK19QKeyEventTransition10metaObjectEv
	_ZNK19QKeyEventTransition12modifierMaskEv
	_ZNK19QKeyEventTransition3keyEv
	_ZNK19QScrollerProperties12scrollMetricENS_12ScrollMetricE
	_ZNK19QScrollerPropertieseqERKS_
	_ZNK19QScrollerPropertiesneERKS_
	_ZNK19QStyledItemDelegate10metaObjectEv
	_ZNK19QStyledItemDelegate11displayTextERK8QVariantRK7QLocale
	_ZNK19QStyledItemDelegate12createEditorEP7QWidgetRK20QStyleOptionViewItemRK11QModelIndex
	_ZNK19QStyledItemDelegate12setModelDataEP7QWidgetP18QAbstractItemModelRK11QModelIndex
	_ZNK19QStyledItemDelegate13setEditorDataEP7QWidgetRK11QModelIndex
	_ZNK19QStyledItemDelegate15initStyleOptionEP20QStyleOptionViewItemRK11QModelIndex
	_ZNK19QStyledItemDelegate17itemEditorFactoryEv
	_ZNK19QStyledItemDelegate20updateEditorGeometryEP7QWidgetRK20QStyleOptionViewItemRK11QModelIndex
	_ZNK19QStyledItemDelegate5paintEP8QPainterRK20QStyleOptionViewItemRK11QModelIndex
	_ZNK19QStyledItemDelegate8sizeHintERK20QStyleOptionViewItemRK11QModelIndex
	_ZNK20QGraphicsEllipseItem10opaqueAreaEv
	_ZNK20QGraphicsEllipseItem10startAngleEv
	_ZNK20QGraphicsEllipseItem12boundingRectEv
	_ZNK20QGraphicsEllipseItem12isObscuredByEPK13QGraphicsItem
	_ZNK20QGraphicsEllipseItem17supportsExtensionEN13QGraphicsItem9ExtensionE
	_ZNK20QGraphicsEllipseItem4rectEv
	_ZNK20QGraphicsEllipseItem4typeEv
	_ZNK20QGraphicsEllipseItem5shapeEv
	_ZNK20QGraphicsEllipseItem8containsERK7QPointF
	_ZNK20QGraphicsEllipseItem9extensionERK8QVariant
	_ZNK20QGraphicsEllipseItem9spanAngleEv
	_ZNK20QGraphicsItemPrivate13isProxyWidgetEv
	_ZNK20QGraphicsItemPrivate14extraItemCacheEv
	_ZNK20QGraphicsItemPrivate15initStyleOptionEP24QStyleOptionGraphicsItemRK10QTransformRK7QRegionb
	_ZNK20QGraphicsItemPrivate19genericMapFromSceneERK7QPointFPK7QWidget
	_ZNK20QGraphicsItemPrivate19maybeExtraItemCacheEv
	_ZNK20QGraphicsItemPrivate20discardUpdateRequestEbbb
	_ZNK20QGraphicsItemPrivate21effectiveBoundingRectEP13QGraphicsItem
	_ZNK20QGraphicsItemPrivate21effectiveBoundingRectERK6QRectF
	_ZNK20QGraphicsItemPrivate24combineTransformToParentEP10QTransformPKS0_
	_ZNK20QGraphicsItemPrivate26combineTransformFromParentEP10QTransformPKS0_
	_ZNK20QGraphicsItemPrivate26sceneEffectiveBoundingRectEv
	_ZNK20QGraphicsItemPrivate5depthEv
	_ZNK20QGraphicsItemPrivate5widthEv
	_ZNK20QGraphicsItemPrivate6heightEv
	_ZNK20QGraphicsPolygonItem10opaqueAreaEv
	_ZNK20QGraphicsPolygonItem12boundingRectEv
	_ZNK20QGraphicsPolygonItem12isObscuredByEPK13QGraphicsItem
	_ZNK20QGraphicsPolygonItem17supportsExtensionEN13QGraphicsItem9ExtensionE
	_ZNK20QGraphicsPolygonItem4typeEv
	_ZNK20QGraphicsPolygonItem5shapeEv
	_ZNK20QGraphicsPolygonItem7polygonEv
	_ZNK20QGraphicsPolygonItem8containsERK7QPointF
	_ZNK20QGraphicsPolygonItem8fillRuleEv
	_ZNK20QGraphicsPolygonItem9extensionERK8QVariant
	_ZNK20QGraphicsProxyWidget10metaObjectEv
	_ZNK20QGraphicsProxyWidget13subWidgetRectEPK7QWidget
	_ZNK20QGraphicsProxyWidget16inputMethodQueryEN2Qt16InputMethodQueryE
	_ZNK20QGraphicsProxyWidget4typeEv
	_ZNK20QGraphicsProxyWidget6widgetEv
	_ZNK20QGraphicsProxyWidget8sizeHintEN2Qt8SizeHintERK6QSizeF
	_ZNK20QGraphicsViewPrivate10mapToSceneERK6QRectF
	_ZNK20QGraphicsViewPrivate10mapToSceneERK7QPointF
	_ZNK20QGraphicsViewPrivate13mapToViewRectEPK13QGraphicsItemRK6QRectF
	_ZNK20QGraphicsViewPrivate14mapRectToSceneERK5QRect
	_ZNK20QGraphicsViewPrivate14verticalScrollEv
	_ZNK20QGraphicsViewPrivate15mapToViewRegionEPK13QGraphicsItemRK6QRectF
	_ZNK20QGraphicsViewPrivate16horizontalScrollEv
	_ZNK20QGraphicsViewPrivate16mapRectFromSceneERK6QRectF
	_ZNK20QGraphicsViewPrivate16rubberBandRegionEPK7QWidgetRK5QRect
	_ZNK20QGraphicsViewPrivate9findItemsERK7QRegionPbRK10QTransform
	_ZNK20QWidgetResizeHandler10metaObjectEv
	_ZNK20QWidgetResizeHandler8isActiveENS_6ActionE
	_ZNK21QAbstractItemDelegate10metaObjectEv
	_ZNK21QAbstractItemDelegate12createEditorEP7QWidgetRK20QStyleOptionViewItemRK11QModelIndex
	_ZNK21QAbstractItemDelegate12setModelDataEP7QWidgetP18QAbstractItemModelRK11QModelIndex
	_ZNK21QAbstractItemDelegate13destroyEditorEP7QWidgetRK11QModelIndex
	_ZNK21QAbstractItemDelegate13paintingRolesEv
	_ZNK21QAbstractItemDelegate13setEditorDataEP7QWidgetRK11QModelIndex
	_ZNK21QAbstractItemDelegate20updateEditorGeometryEP7QWidgetRK20QStyleOptionViewItemRK11QModelIndex
	_ZNK21QGraphicsAnchorLayout15verticalSpacingEv
	_ZNK21QGraphicsAnchorLayout17horizontalSpacingEv
	_ZNK21QGraphicsAnchorLayout5countEv
	_ZNK21QGraphicsAnchorLayout6itemAtEi
	_ZNK21QGraphicsAnchorLayout8sizeHintEN2Qt8SizeHintERK6QSizeF
	_ZNK21QGraphicsEffectSource10metaObjectEv
	_ZNK21QGraphicsEffectSource11styleOptionEv
	_ZNK21QGraphicsEffectSource12boundingRectEN2Qt16CoordinateSystemE
	_ZNK21QGraphicsEffectSource12graphicsItemEv
	_ZNK21QGraphicsEffectSource6pixmapEN2Qt16CoordinateSystemEP6QPointN15QGraphicsEffect13PixmapPadModeE
	_ZNK21QGraphicsEffectSource6widgetEv
	_ZNK21QGraphicsEffectSource8isPixmapEv
	_ZNK21QGraphicsLinearLayout11itemSpacingEi
	_ZNK21QGraphicsLinearLayout11orientationEv
	_ZNK21QGraphicsLinearLayout13stretchFactorEP19QGraphicsLayoutItem
	_ZNK21QGraphicsLinearLayout4dumpEi
	_ZNK21QGraphicsLinearLayout5countEv
	_ZNK21QGraphicsLinearLayout6itemAtEi
	_ZNK21QGraphicsLinearLayout7spacingEv
	_ZNK21QGraphicsLinearLayout8sizeHintEN2Qt8SizeHintERK6QSizeF
	_ZNK21QGraphicsLinearLayout9alignmentEP19QGraphicsLayoutItem
	_ZNK21QMouseEventTransition10metaObjectEv
	_ZNK21QMouseEventTransition11hitTestPathEv
	_ZNK21QMouseEventTransition12modifierMaskEv
	_ZNK21QMouseEventTransition6buttonEv
	_ZNK21QPixmapColorizeFilter10metaObjectEv
	_ZNK21QPixmapColorizeFilter4drawEP8QPainterRK7QPointFRK7QPixmapRK6QRectF
	_ZNK21QPixmapColorizeFilter5colorEv
	_ZNK21QPixmapColorizeFilter8strengthEv
	_ZNK22QGraphicsItemAnimation10metaObjectEv
	_ZNK22QGraphicsItemAnimation10rotationAtEd
	_ZNK22QGraphicsItemAnimation12rotationListEv
	_ZNK22QGraphicsItemAnimation14xTranslationAtEd
	_ZNK22QGraphicsItemAnimation14yTranslationAtEd
	_ZNK22QGraphicsItemAnimation15translationListEv
	_ZNK22QGraphicsItemAnimation15verticalScaleAtEd
	_ZNK22QGraphicsItemAnimation15verticalShearAtEd
	_ZNK22QGraphicsItemAnimation17horizontalScaleAtEd
	_ZNK22QGraphicsItemAnimation17horizontalShearAtEd
	_ZNK22QGraphicsItemAnimation4itemEv
	_ZNK22QGraphicsItemAnimation5posAtEd
	_ZNK22QGraphicsItemAnimation7posListEv
	_ZNK22QGraphicsItemAnimation8matrixAtEd
	_ZNK22QGraphicsItemAnimation8timeLineEv
	_ZNK22QGraphicsItemAnimation9scaleListEv
	_ZNK22QGraphicsItemAnimation9shearListEv
	_ZNK22QGraphicsOpacityEffect10metaObjectEv
	_ZNK22QGraphicsOpacityEffect11opacityMaskEv
	_ZNK22QGraphicsOpacityEffect7opacityEv
	_ZNK23QGraphicsColorizeEffect10metaObjectEv
	_ZNK23QGraphicsColorizeEffect5colorEv
	_ZNK23QGraphicsColorizeEffect8strengthEv
	_ZNK23QGraphicsSceneHelpEvent8scenePosEv
	_ZNK23QGraphicsSceneHelpEvent9screenPosEv
	_ZNK23QGraphicsSceneMoveEvent6newPosEv
	_ZNK23QGraphicsSceneMoveEvent6oldPosEv
	_ZNK23QGraphicsSimpleTextItem10opaqueAreaEv
	_ZNK23QGraphicsSimpleTextItem12boundingRectEv
	_ZNK23QGraphicsSimpleTextItem12isObscuredByEPK13QGraphicsItem
	_ZNK23QGraphicsSimpleTextItem17supportsExtensionEN13QGraphicsItem9ExtensionE
	_ZNK23QGraphicsSimpleTextItem4fontEv
	_ZNK23QGraphicsSimpleTextItem4textEv
	_ZNK23QGraphicsSimpleTextItem4typeEv
	_ZNK23QGraphicsSimpleTextItem5shapeEv
	_ZNK23QGraphicsSimpleTextItem8containsERK7QPointF
	_ZNK23QGraphicsSimpleTextItem9extensionERK8QVariant
	_ZNK23QPixmapDropShadowFilter10blurRadiusEv
	_ZNK23QPixmapDropShadowFilter10metaObjectEv
	_ZNK23QPixmapDropShadowFilter15boundingRectForERK6QRectF
	_ZNK23QPixmapDropShadowFilter4drawEP8QPainterRK7QPointFRK7QPixmapRK6QRectF
	_ZNK23QPixmapDropShadowFilter5colorEv
	_ZNK23QPixmapDropShadowFilter6offsetEv
	_ZNK23QTreeWidgetItemIterator12matchesFlagsEPK15QTreeWidgetItem
	_ZNK24QGraphicsSceneHoverEvent12lastScenePosEv
	_ZNK24QGraphicsSceneHoverEvent13lastScreenPosEv
	_ZNK24QGraphicsSceneHoverEvent3posEv
	_ZNK24QGraphicsSceneHoverEvent7lastPosEv
	_ZNK24QGraphicsSceneHoverEvent8scenePosEv
	_ZNK24QGraphicsSceneHoverEvent9modifiersEv
	_ZNK24QGraphicsSceneHoverEvent9screenPosEv
	_ZNK24QGraphicsSceneMouseEvent12lastScenePosEv
	_ZNK24QGraphicsSceneMouseEvent13buttonDownPosEN2Qt11MouseButtonE
	_ZNK24QGraphicsSceneMouseEvent13lastScreenPosEv
	_ZNK24QGraphicsSceneMouseEvent18buttonDownScenePosEN2Qt11MouseButtonE
	_ZNK24QGraphicsSceneMouseEvent19buttonDownScreenPosEN2Qt11MouseButtonE
	_ZNK24QGraphicsSceneMouseEvent3posEv
	_ZNK24QGraphicsSceneMouseEvent6buttonEv
	_ZNK24QGraphicsSceneMouseEvent7buttonsEv
	_ZNK24QGraphicsSceneMouseEvent7lastPosEv
	_ZNK24QGraphicsSceneMouseEvent8scenePosEv
	_ZNK24QGraphicsSceneMouseEvent9modifiersEv
	_ZNK24QGraphicsSceneMouseEvent9screenPosEv
	_ZNK24QGraphicsSceneWheelEvent11orientationEv
	_ZNK24QGraphicsSceneWheelEvent3posEv
	_ZNK24QGraphicsSceneWheelEvent5deltaEv
	_ZNK24QGraphicsSceneWheelEvent7buttonsEv
	_ZNK24QGraphicsSceneWheelEvent8scenePosEv
	_ZNK24QGraphicsSceneWheelEvent9modifiersEv
	_ZNK24QGraphicsSceneWheelEvent9screenPosEv
	_ZNK24QPixmapConvolutionFilter10metaObjectEv
	_ZNK24QPixmapConvolutionFilter15boundingRectForERK6QRectF
	_ZNK24QPixmapConvolutionFilter17convolutionKernelEv
	_ZNK24QPixmapConvolutionFilter4drawEP8QPainterRK7QPointFRK7QPixmapRK6QRectF
	_ZNK24QPixmapConvolutionFilter4rowsEv
	_ZNK24QPixmapConvolutionFilter7columnsEv
	_ZNK24QPlainTextDocumentLayout10metaObjectEv
	_ZNK24QPlainTextDocumentLayout11cursorWidthEv
	_ZNK24QPlainTextDocumentLayout12documentSizeEv
	_ZNK24QPlainTextDocumentLayout17blockBoundingRectERK10QTextBlock
	_ZNK24QPlainTextDocumentLayout17ensureBlockLayoutERK10QTextBlock
	_ZNK24QPlainTextDocumentLayout17frameBoundingRectEP10QTextFrame
	_ZNK24QPlainTextDocumentLayout4privEv
	_ZNK24QPlainTextDocumentLayout7hitTestERK7QPointFN2Qt15HitTestAccuracyE
	_ZNK24QPlainTextDocumentLayout9pageCountEv
	_ZNK24QPlainTextDocumentLayout9textWidthEv
	_ZNK25QGraphicsDropShadowEffect10blurRadiusEv
	_ZNK25QGraphicsDropShadowEffect10metaObjectEv
	_ZNK25QGraphicsDropShadowEffect15boundingRectForERK6QRectF
	_ZNK25QGraphicsDropShadowEffect5colorEv
	_ZNK25QGraphicsDropShadowEffect6offsetEv
	_ZNK25QGraphicsSceneResizeEvent7newSizeEv
	_ZNK25QGraphicsSceneResizeEvent7oldSizeEv
	_ZNK26QAbstractGraphicsShapeItem10opaqueAreaEv
	_ZNK26QAbstractGraphicsShapeItem12isObscuredByEPK13QGraphicsItem
	_ZNK26QAbstractGraphicsShapeItem3penEv
	_ZNK26QAbstractGraphicsShapeItem5brushEv
	_ZNK26QAbstractScrollAreaPrivate14contentsOffsetEv
	_ZNK27QGraphicsSceneDragDropEvent10dropActionEv
	_ZNK27QGraphicsSceneDragDropEvent14proposedActionEv
	_ZNK27QGraphicsSceneDragDropEvent15possibleActionsEv
	_ZNK27QGraphicsSceneDragDropEvent3posEv
	_ZNK27QGraphicsSceneDragDropEvent6sourceEv
	_ZNK27QGraphicsSceneDragDropEvent7buttonsEv
	_ZNK27QGraphicsSceneDragDropEvent8mimeDataEv
	_ZNK27QGraphicsSceneDragDropEvent8scenePosEv
	_ZNK27QGraphicsSceneDragDropEvent9modifiersEv
	_ZNK27QGraphicsSceneDragDropEvent9screenPosEv
	_ZNK30QGraphicsSceneContextMenuEvent3posEv
	_ZNK30QGraphicsSceneContextMenuEvent6reasonEv
	_ZNK30QGraphicsSceneContextMenuEvent8scenePosEv
	_ZNK30QGraphicsSceneContextMenuEvent9modifiersEv
	_ZNK30QGraphicsSceneContextMenuEvent9screenPosEv
	_ZNK5QDial10metaObjectEv
	_ZNK5QDial11notchTargetEv
	_ZNK5QDial14notchesVisibleEv
	_ZNK5QDial15initStyleOptionEP18QStyleOptionSlider
	_ZNK5QDial15minimumSizeHintEv
	_ZNK5QDial8sizeHintEv
	_ZNK5QDial8wrappingEv
	_ZNK5QDial9notchSizeEv
	_ZNK5QMenu10menuActionEv
	_ZNK5QMenu10metaObjectEv
	_ZNK5QMenu11columnCountEv
	_ZNK5QMenu12activeActionEv
	_ZNK5QMenu13defaultActionEv
	_ZNK5QMenu14actionGeometryEP7QAction
	_ZNK5QMenu15initStyleOptionEP20QStyleOptionMenuItemPK7QAction
	_ZNK5QMenu15toolTipsVisibleEv
	_ZNK5QMenu16isTearOffEnabledEv
	_ZNK5QMenu20isTearOffMenuVisibleEv
	_ZNK5QMenu21separatorsCollapsibleEv
	_ZNK5QMenu4iconEv
	_ZNK5QMenu5titleEv
	_ZNK5QMenu7isEmptyEv
	_ZNK5QMenu8actionAtERK6QPoint
	_ZNK5QMenu8sizeHintEv
	_ZNK6QFrame10frameShapeEv
	_ZNK6QFrame10frameStyleEv
	_ZNK6QFrame10frameWidthEv
	_ZNK6QFrame10metaObjectEv
	_ZNK6QFrame11frameShadowEv
	_ZNK6QFrame12midLineWidthEv
	_ZNK6QFrame8sizeHintEv
	_ZNK6QFrame9frameRectEv
	_ZNK6QFrame9lineWidthEv
	_ZNK6QLabel10metaObjectEv
	_ZNK6QLabel10textFormatEv
	_ZNK6QLabel12selectedTextEv
	_ZNK6QLabel14heightForWidthEi
	_ZNK6QLabel14selectionStartEv
	_ZNK6QLabel15hasSelectedTextEv
	_ZNK6QLabel15minimumSizeHintEv
	_ZNK6QLabel17hasScaledContentsEv
	_ZNK6QLabel17openExternalLinksEv
	_ZNK6QLabel20textInteractionFlagsEv
	_ZNK6QLabel4textEv
	_ZNK6QLabel5buddyEv
	_ZNK6QLabel5movieEv
	_ZNK6QLabel6indentEv
	_ZNK6QLabel6marginEv
	_ZNK6QLabel6pixmapEv
	_ZNK6QLabel7pictureEv
	_ZNK6QLabel8sizeHintEv
	_ZNK6QLabel8wordWrapEv
	_ZNK6QLabel9alignmentEv
	_ZNK6QStyle10metaObjectEv
	_ZNK6QStyle12drawItemTextEP8QPainterRK5QRectiRK8QPalettebRK7QStringNS5_9ColorRoleE
	_ZNK6QStyle12itemTextRectERK12QFontMetricsRK5QRectibRK7QString
	_ZNK6QStyle14drawItemPixmapEP8QPainterRK5QRectiRK7QPixmap
	_ZNK6QStyle14itemPixmapRectERK5QRectiRK7QPixmap
	_ZNK6QStyle15standardPaletteEv
	_ZNK6QStyle21combinedLayoutSpacingE6QFlagsIN11QSizePolicy11ControlTypeEES3_N2Qt11OrientationEP12QStyleOptionP7QWidget
	_ZNK6QStyle5proxyEv
	_ZNK7QAction10autoRepeatEv
	_ZNK7QAction10metaObjectEv
	_ZNK7QAction11actionGroupEv
	_ZNK7QAction11isCheckableEv
	_ZNK7QAction11isSeparatorEv
	_ZNK7QAction12parentWidgetEv
	_ZNK7QAction15shortcutContextEv
	_ZNK7QAction17associatedWidgetsEv
	_ZNK7QAction19isIconVisibleInMenuEv
	_ZNK7QAction25associatedGraphicsWidgetsEv
	_ZNK7QAction4dataEv
	_ZNK7QAction4fontEv
	_ZNK7QAction4iconEv
	_ZNK7QAction4menuEv
	_ZNK7QAction4textEv
	_ZNK7QAction7toolTipEv
	_ZNK7QAction8iconTextEv
	_ZNK7QAction8menuRoleEv
	_ZNK7QAction8priorityEv
	_ZNK7QAction8shortcutEv
	_ZNK7QAction9isCheckedEv
	_ZNK7QAction9isEnabledEv
	_ZNK7QAction9isVisibleEv
	_ZNK7QAction9shortcutsEv
	_ZNK7QAction9statusTipEv
	_ZNK7QAction9whatsThisEv
	_ZNK7QDialog10metaObjectEv
	_ZNK7QDialog11orientationEv
	_ZNK7QDialog15minimumSizeHintEv
	_ZNK7QDialog17isSizeGripEnabledEv
	_ZNK7QDialog6resultEv
	_ZNK7QDialog8sizeHintEv
	_ZNK7QDialog9extensionEv
	_ZNK7QLayout10metaObjectEv
	_ZNK7QLayout11maximumSizeEv
	_ZNK7QLayout11minimumSizeEv
	_ZNK7QLayout12contentsRectEv
	_ZNK7QLayout12controlTypesEv
	_ZNK7QLayout12parentWidgetEv
	_ZNK7QLayout13alignmentRectERK5QRect
	_ZNK7QLayout13totalSizeHintEv
	_ZNK7QLayout14sizeConstraintEv
	_ZNK7QLayout15contentsMarginsEv
	_ZNK7QLayout16totalMaximumSizeEv
	_ZNK7QLayout16totalMinimumSizeEv
	_ZNK7QLayout18getContentsMarginsEPiS0_S0_S0_
	_ZNK7QLayout19expandingDirectionsEv
	_ZNK7QLayout19totalHeightForWidthEi
	_ZNK7QLayout6marginEv
	_ZNK7QLayout7indexOfEP7QWidget
	_ZNK7QLayout7isEmptyEv
	_ZNK7QLayout7menuBarEv
	_ZNK7QLayout7spacingEv
	_ZNK7QLayout8geometryEv
	_ZNK7QLayout9isEnabledEv
	_ZNK7QSlider10metaObjectEv
	_ZNK7QSlider12tickIntervalEv
	_ZNK7QSlider12tickPositionEv
	_ZNK7QSlider15initStyleOptionEP18QStyleOptionSlider
	_ZNK7QSlider15minimumSizeHintEv
	_ZNK7QSlider8sizeHintEv
	_ZNK7QTabBar10metaObjectEv
	_ZNK7QTabBar10tabToolTipEi
	_ZNK7QTabBar11tabSizeHintEi
	_ZNK7QTabBar12currentIndexEv
	_ZNK7QTabBar12documentModeEv
	_ZNK7QTabBar12isTabEnabledEi
	_ZNK7QTabBar12tabTextColorEi
	_ZNK7QTabBar12tabWhatsThisEi
	_ZNK7QTabBar12tabsClosableEv
	_ZNK7QTabBar15initStyleOptionEP15QStyleOptionTabi
	_ZNK7QTabBar15minimumSizeHintEv
	_ZNK7QTabBar17usesScrollButtonsEv
	_ZNK7QTabBar18minimumTabSizeHintEi
	_ZNK7QTabBar25selectionBehaviorOnRemoveEv
	_ZNK7QTabBar5countEv
	_ZNK7QTabBar5shapeEv
	_ZNK7QTabBar5tabAtERK6QPoint
	_ZNK7QTabBar7tabDataEi
	_ZNK7QTabBar7tabIconEi
	_ZNK7QTabBar7tabRectEi
	_ZNK7QTabBar7tabTextEi
	_ZNK7QTabBar8drawBaseEv
	_ZNK7QTabBar8iconSizeEv
	_ZNK7QTabBar8sizeHintEv
	_ZNK7QTabBar9elideModeEv
	_ZNK7QTabBar9expandingEv
	_ZNK7QTabBar9isMovableEv
	_ZNK7QTabBar9tabButtonEiNS_14ButtonPositionE
	_ZNK7QWidget10focusProxyEv
	_ZNK7QWidget10metaObjectEv
	_ZNK7QWidget10redirectedEP6QPoint
	_ZNK7QWidget10sizePolicyEv
	_ZNK7QWidget10styleSheetEv
	_ZNK7QWidget10windowIconEv
	_ZNK7QWidget10windowRoleEv
	_ZNK7QWidget11acceptDropsEv
	_ZNK7QWidget11focusPolicyEv
	_ZNK7QWidget11focusWidgetEv
	_ZNK7QWidget11initPainterEP8QPainter
	_ZNK7QWidget11isEnabledToEPKS_
	_ZNK7QWidget11isMaximizedEv
	_ZNK7QWidget11isMinimizedEv
	_ZNK7QWidget11isVisibleToEPKS_
	_ZNK7QWidget11mapToGlobalERK6QPoint
	_ZNK7QWidget11mapToParentERK6QPoint
	_ZNK7QWidget11maximumSizeEv
	_ZNK7QWidget11minimumSizeEv
	_ZNK7QWidget11paintEngineEv
	_ZNK7QWidget11windowStateEv
	_ZNK7QWidget11windowTitleEv
	_ZNK7QWidget12backingStoreEv
	_ZNK7QWidget12childrenRectEv
	_ZNK7QWidget12contentsRectEv
	_ZNK7QWidget12isAncestorOfEPKS_
	_ZNK7QWidget12isFullScreenEv
	_ZNK7QWidget12saveGeometryEv
	_ZNK7QWidget12windowHandleEv
	_ZNK7QWidget13frameGeometryEv
	_ZNK7QWidget13mapFromGlobalERK6QPoint
	_ZNK7QWidget13mapFromParentERK6QPoint
	_ZNK7QWidget13sharedPainterEv
	_ZNK7QWidget13sizeIncrementEv
	_ZNK7QWidget13testAttributeEN2Qt15WidgetAttributeE
	_ZNK7QWidget13visibleRegionEv
	_ZNK7QWidget13windowOpacityEv
	_ZNK7QWidget14accessibleNameEv
	_ZNK7QWidget14backgroundRoleEv
	_ZNK7QWidget14childrenRegionEv
	_ZNK7QWidget14effectiveWinIdEv
	_ZNK7QWidget14ensurePolishedEv
	_ZNK7QWidget14foregroundRoleEv
	_ZNK7QWidget14graphicsEffectEv
	_ZNK7QWidget14heightForWidthEi
	_ZNK7QWidget14isActiveWindowEv
	_ZNK7QWidget14normalGeometryEv
	_ZNK7QWidget14windowFilePathEv
	_ZNK7QWidget14windowIconTextEv
	_ZNK7QWidget14windowModalityEv
	_ZNK7QWidget15contentsMarginsEv
	_ZNK7QWidget15layoutDirectionEv
	_ZNK7QWidget15minimumSizeHintEv
	_ZNK7QWidget15toolTipDurationEv
	_ZNK7QWidget16inputMethodHintsEv
	_ZNK7QWidget16inputMethodQueryEN2Qt16InputMethodQueryE
	_ZNK7QWidget16isWindowModifiedEv
	_ZNK7QWidget16nextInFocusChainEv
	_ZNK7QWidget17contextMenuPolicyEv
	_ZNK7QWidget17hasHeightForWidthEv
	_ZNK7QWidget18autoFillBackgroundEv
	_ZNK7QWidget18getContentsMarginsEPiS0_S0_S0_
	_ZNK7QWidget18nativeParentWidgetEv
	_ZNK7QWidget19graphicsProxyWidgetEv
	_ZNK7QWidget1xEv
	_ZNK7QWidget1yEv
	_ZNK7QWidget20previousInFocusChainEv
	_ZNK7QWidget20testAttribute_helperEN2Qt15WidgetAttributeE
	_ZNK7QWidget21accessibleDescriptionEv
	_ZNK7QWidget3posEv
	_ZNK7QWidget4maskEv
	_ZNK7QWidget5mapToEPKS_RK6QPoint
	_ZNK7QWidget5styleEv
	_ZNK7QWidget5winIdEv
	_ZNK7QWidget6cursorEv
	_ZNK7QWidget6layoutEv
	_ZNK7QWidget6localeEv
	_ZNK7QWidget6metricEN12QPaintDevice17PaintDeviceMetricE
	_ZNK7QWidget6windowEv
	_ZNK7QWidget7actionsEv
	_ZNK7QWidget7childAtERK6QPoint
	_ZNK7QWidget7devTypeEv
	_ZNK7QWidget7mapFromEPKS_RK6QPoint
	_ZNK7QWidget7paletteEv
	_ZNK7QWidget7toolTipEv
	_ZNK7QWidget8baseSizeEv
	_ZNK7QWidget8hasFocusEv
	_ZNK7QWidget8sizeHintEv
	_ZNK7QWidget9frameSizeEv
	_ZNK7QWidget9statusTipEv
	_ZNK7QWidget9whatsThisEv
	_ZNK7QWizard10buttonTextENS_12WizardButtonE
	_ZNK7QWizard10metaObjectEv
	_ZNK7QWizard10sideWidgetEv
	_ZNK7QWizard10testOptionENS_12WizardOptionE
	_ZNK7QWizard11currentPageEv
	_ZNK7QWizard11titleFormatEv
	_ZNK7QWizard11wizardStyleEv
	_ZNK7QWizard12visitedPagesEv
	_ZNK7QWizard14hasVisitedPageEi
	_ZNK7QWizard14subTitleFormatEv
	_ZNK7QWizard4pageEi
	_ZNK7QWizard5fieldERK7QString
	_ZNK7QWizard6buttonENS_12WizardButtonE
	_ZNK7QWizard6nextIdEv
	_ZNK7QWizard6pixmapENS_12WizardPixmapE
	_ZNK7QWizard7optionsEv
	_ZNK7QWizard7pageIdsEv
	_ZNK7QWizard7startIdEv
	_ZNK7QWizard8sizeHintEv
	_ZNK7QWizard9currentIdEv
	_ZNK8QGesture10hasHotSpotEv
	_ZNK8QGesture10metaObjectEv
	_ZNK8QGesture11gestureTypeEv
	_ZNK8QGesture19gestureCancelPolicyEv
	_ZNK8QGesture5stateEv
	_ZNK8QGesture7hotSpotEv
	_ZNK8QMdiArea10backgroundEv
	_ZNK8QMdiArea10metaObjectEv
	_ZNK8QMdiArea10testOptionENS_10AreaOptionE
	_ZNK8QMdiArea11tabPositionEv
	_ZNK8QMdiArea11tabsMovableEv
	_ZNK8QMdiArea12documentModeEv
	_ZNK8QMdiArea12tabsClosableEv
	_ZNK8QMdiArea13subWindowListENS_11WindowOrderE
	_ZNK8QMdiArea15activationOrderEv
	_ZNK8QMdiArea15activeSubWindowEv
	_ZNK8QMdiArea15minimumSizeHintEv
	_ZNK8QMdiArea16currentSubWindowEv
	_ZNK8QMdiArea8sizeHintEv
	_ZNK8QMdiArea8tabShapeEv
	_ZNK8QMdiArea8viewModeEv
	_ZNK8QMenuBar10metaObjectEv
	_ZNK8QMenuBar11isDefaultUpEv
	_ZNK8QMenuBar12activeActionEv
	_ZNK8QMenuBar12cornerWidgetEN2Qt6CornerE
	_ZNK8QMenuBar14actionGeometryEP7QAction
	_ZNK8QMenuBar14heightForWidthEi
	_ZNK8QMenuBar15initStyleOptionEP20QStyleOptionMenuItemPK7QAction
	_ZNK8QMenuBar15isNativeMenuBarEv
	_ZNK8QMenuBar15minimumSizeHintEv
	_ZNK8QMenuBar8actionAtERK6QPoint
	_ZNK8QMenuBar8sizeHintEv
	_ZNK8QSpinBox10metaObjectEv
	_ZNK8QSpinBox10singleStepEv
	_ZNK8QSpinBox13textFromValueEi
	_ZNK8QSpinBox13valueFromTextERK7QString
	_ZNK8QSpinBox18displayIntegerBaseEv
	_ZNK8QSpinBox5fixupER7QString
	_ZNK8QSpinBox5valueEv
	_ZNK8QSpinBox6prefixEv
	_ZNK8QSpinBox6suffixEv
	_ZNK8QSpinBox7maximumEv
	_ZNK8QSpinBox7minimumEv
	_ZNK8QSpinBox8validateER7QStringRi
	_ZNK8QSpinBox9cleanTextEv
	_ZNK8QToolBar10isFloatingEv
	_ZNK8QToolBar10metaObjectEv
	_ZNK8QToolBar11isFloatableEv
	_ZNK8QToolBar11orientationEv
	_ZNK8QToolBar12allowedAreasEv
	_ZNK8QToolBar14actionGeometryEP7QAction
	_ZNK8QToolBar15initStyleOptionEP19QStyleOptionToolBar
	_ZNK8QToolBar15toolButtonStyleEv
	_ZNK8QToolBar15widgetForActionEP7QAction
	_ZNK8QToolBar16toggleViewActionEv
	_ZNK8QToolBar8actionAtERK6QPoint
	_ZNK8QToolBar8iconSizeEv
	_ZNK8QToolBar9isMovableEv
	_ZNK8QToolBox10metaObjectEv
	_ZNK8QToolBox11itemToolTipEi
	_ZNK8QToolBox12currentIndexEv
	_ZNK8QToolBox13currentWidgetEv
	_ZNK8QToolBox13isItemEnabledEi
	_ZNK8QToolBox5countEv
	_ZNK8QToolBox6widgetEi
	_ZNK8QToolBox7indexOfEP7QWidget
	_ZNK8QToolBox8itemIconEi
	_ZNK8QToolBox8itemTextEi
	_ZNK9QCheckBox10checkStateEv
	_ZNK9QCheckBox10isTristateEv
	_ZNK9QCheckBox10metaObjectEv
	_ZNK9QCheckBox15initStyleOptionEP18QStyleOptionButton
	_ZNK9QCheckBox15minimumSizeHintEv
	_ZNK9QCheckBox8sizeHintEv
	_ZNK9QCheckBox9hitButtonERK6QPoint
	_ZNK9QColormap4modeEv
	_ZNK9QColormap4sizeEv
	_ZNK9QColormap5depthEv
	_ZNK9QColormap5pixelERK6QColor
	_ZNK9QColormap7colorAtEj
	_ZNK9QColormap8colormapEv
	_ZNK9QComboBox10isEditableEv
	_ZNK9QComboBox10metaObjectEv
	_ZNK9QComboBox11currentDataEi
	_ZNK9QComboBox11currentTextEv
	_ZNK9QComboBox11modelColumnEv
	_ZNK9QComboBox12currentIndexEv
	_ZNK9QComboBox12insertPolicyEv
	_ZNK9QComboBox12itemDelegateEv
	_ZNK9QComboBox14autoCompletionEv
	_ZNK9QComboBox14rootModelIndexEv
	_ZNK9QComboBox15initStyleOptionEP20QStyleOptionComboBox
	_ZNK9QComboBox15maxVisibleItemsEv
	_ZNK9QComboBox15minimumSizeHintEv
	_ZNK9QComboBox16inputMethodQueryEN2Qt16InputMethodQueryE
	_ZNK9QComboBox16sizeAdjustPolicyEv
	_ZNK9QComboBox17duplicatesEnabledEv
	_ZNK9QComboBox21minimumContentsLengthEv
	_ZNK9QComboBox29autoCompletionCaseSensitivityEv
	_ZNK9QComboBox4viewEv
	_ZNK9QComboBox5countEv
	_ZNK9QComboBox5modelEv
	_ZNK9QComboBox8findDataERK8QVarianti6QFlagsIN2Qt9MatchFlagEE
	_ZNK9QComboBox8hasFrameEv
	_ZNK9QComboBox8iconSizeEv
	_ZNK9QComboBox8itemDataEii
	_ZNK9QComboBox8itemIconEi
	_ZNK9QComboBox8itemTextEi
	_ZNK9QComboBox8lineEditEv
	_ZNK9QComboBox8maxCountEv
	_ZNK9QComboBox8sizeHintEv
	_ZNK9QComboBox9completerEv
	_ZNK9QComboBox9validatorEv
	_ZNK9QDateEdit10metaObjectEv
	_ZNK9QDirModel10headerDataEiN2Qt11OrientationEi
	_ZNK9QDirModel10isReadOnlyEv
	_ZNK9QDirModel10metaObjectEv
	_ZNK9QDirModel11columnCountERK11QModelIndex
	_ZNK9QDirModel11hasChildrenERK11QModelIndex
	_ZNK9QDirModel11nameFiltersEv
	_ZNK9QDirModel12iconProviderEv
	_ZNK9QDirModel14lazyChildCountEv
	_ZNK9QDirModel15resolveSymlinksEv
	_ZNK9QDirModel20supportedDropActionsEv
	_ZNK9QDirModel4dataERK11QModelIndexi
	_ZNK9QDirModel5flagsERK11QModelIndex
	_ZNK9QDirModel5indexERK7QStringi
	_ZNK9QDirModel5indexEiiRK11QModelIndex
	_ZNK9QDirModel5isDirERK11QModelIndex
	_ZNK9QDirModel6filterEv
	_ZNK9QDirModel6parentERK11QModelIndex
	_ZNK9QDirModel7sortingEv
	_ZNK9QDirModel8fileIconERK11QModelIndex
	_ZNK9QDirModel8fileInfoERK11QModelIndex
	_ZNK9QDirModel8fileNameERK11QModelIndex
	_ZNK9QDirModel8filePathERK11QModelIndex
	_ZNK9QDirModel8mimeDataERK5QListI11QModelIndexE
	_ZNK9QDirModel8rowCountERK11QModelIndex
	_ZNK9QDirModel9mimeTypesEv
	_ZNK9QGroupBox10metaObjectEv
	_ZNK9QGroupBox11isCheckableEv
	_ZNK9QGroupBox15initStyleOptionEP20QStyleOptionGroupBox
	_ZNK9QGroupBox15minimumSizeHintEv
	_ZNK9QGroupBox5titleEv
	_ZNK9QGroupBox6isFlatEv
	_ZNK9QGroupBox9alignmentEv
	_ZNK9QGroupBox9isCheckedEv
	_ZNK9QLineEdit10cursorRectEv
	_ZNK9QLineEdit10isModifiedEv
	_ZNK9QLineEdit10isReadOnlyEv
	_ZNK9QLineEdit10metaObjectEv
	_ZNK9QLineEdit11displayTextEv
	_ZNK9QLineEdit11dragEnabledEv
	_ZNK9QLineEdit11textMarginsEv
	_ZNK9QLineEdit12selectedTextEv
	_ZNK9QLineEdit14cursorPositionEv
	_ZNK9QLineEdit14getTextMarginsEPiS0_S0_S0_
	_ZNK9QLineEdit14selectionStartEv
	_ZNK9QLineEdit15cursorMoveStyleEv
	_ZNK9QLineEdit15hasSelectedTextEv
	_ZNK9QLineEdit15initStyleOptionEP17QStyleOptionFrame
	_ZNK9QLineEdit15isRedoAvailableEv
	_ZNK9QLineEdit15isUndoAvailableEv
	_ZNK9QLineEdit15minimumSizeHintEv
	_ZNK9QLineEdit15placeholderTextEv
	_ZNK9QLineEdit16inputMethodQueryEN2Qt16InputMethodQueryE
	_ZNK9QLineEdit18hasAcceptableInputEv
	_ZNK9QLineEdit20isClearButtonEnabledEv
	_ZNK9QLineEdit4copyEv
	_ZNK9QLineEdit4textEv
	_ZNK9QLineEdit8echoModeEv
	_ZNK9QLineEdit8hasFrameEv
	_ZNK9QLineEdit8sizeHintEv
	_ZNK9QLineEdit9alignmentEv
	_ZNK9QLineEdit9completerEv
	_ZNK9QLineEdit9inputMaskEv
	_ZNK9QLineEdit9maxLengthEv
	_ZNK9QLineEdit9validatorEv
	_ZNK9QListView10isWrappingEv
	_ZNK9QListView10layoutModeEv
	_ZNK9QListView10metaObjectEv
	_ZNK9QListView10resizeModeEv
	_ZNK9QListView10visualRectERK11QModelIndex
	_ZNK9QListView11isRowHiddenEi
	_ZNK9QListView11modelColumnEv
	_ZNK9QListView11viewOptionsEv
	_ZNK9QListView11visualIndexERK11QModelIndex
	_ZNK9QListView12contentsSizeEv
	_ZNK9QListView12rectForIndexERK11QModelIndex
	_ZNK9QListView13isIndexHiddenERK11QModelIndex
	_ZNK9QListView14verticalOffsetEv
	_ZNK9QListView15selectedIndexesEv
	_ZNK9QListView16horizontalOffsetEv
	_ZNK9QListView16uniformItemSizesEv
	_ZNK9QListView16viewportSizeHintEv
	_ZNK9QListView22isSelectionRectVisibleEv
	_ZNK9QListView24visualRegionForSelectionERK14QItemSelection
	_ZNK9QListView4flowEv
	_ZNK9QListView7indexAtERK6QPoint
	_ZNK9QListView7spacingEv
	_ZNK9QListView8gridSizeEv
	_ZNK9QListView8movementEv
	_ZNK9QListView8viewModeEv
	_ZNK9QListView8wordWrapEv
	_ZNK9QListView9batchSizeEv
	_ZNK9QScroller10metaObjectEv
	_ZNK9QScroller13finalPositionEv
	_ZNK9QScroller13pixelPerMeterEv
	_ZNK9QScroller18scrollerPropertiesEv
	_ZNK9QScroller5stateEv
	_ZNK9QScroller6targetEv
	_ZNK9QScroller8velocityEv
	_ZNK9QShortcut10autoRepeatEv
	_ZNK9QShortcut10metaObjectEv
	_ZNK9QShortcut2idEv
	_ZNK9QShortcut3keyEv
	_ZNK9QShortcut7contextEv
	_ZNK9QShortcut9isEnabledEv
	_ZNK9QShortcut9whatsThisEv
	_ZNK9QSizeGrip10metaObjectEv
	_ZNK9QSizeGrip8sizeHintEv
	_ZNK9QSplitter10metaObjectEv
	_ZNK9QSplitter11handleWidthEv
	_ZNK9QSplitter11orientationEv
	_ZNK9QSplitter12opaqueResizeEv
	_ZNK9QSplitter13isCollapsibleEi
	_ZNK9QSplitter15minimumSizeHintEv
	_ZNK9QSplitter19childrenCollapsibleEv
	_ZNK9QSplitter5countEv
	_ZNK9QSplitter5sizesEv
	_ZNK9QSplitter6handleEi
	_ZNK9QSplitter6widgetEi
	_ZNK9QSplitter7indexOfEP7QWidget
	_ZNK9QSplitter8getRangeEiPiS0_
	_ZNK9QSplitter8sizeHintEv
	_ZNK9QSplitter9saveStateEv
	_ZNK9QTextEdit10cursorRectERK11QTextCursor
	_ZNK9QTextEdit10cursorRectEv
	_ZNK9QTextEdit10fontFamilyEv
	_ZNK9QTextEdit10fontItalicEv
	_ZNK9QTextEdit10fontWeightEv
	_ZNK9QTextEdit10isReadOnlyEv
	_ZNK9QTextEdit10metaObjectEv
	_ZNK9QTextEdit10textCursorEv
	_ZNK9QTextEdit11currentFontEv
	_ZNK9QTextEdit11cursorWidthEv
	_ZNK9QTextEdit11toPlainTextEv
	_ZNK9QTextEdit12lineWrapModeEv
	_ZNK9QTextEdit12tabStopWidthEv
	_ZNK9QTextEdit12wordWrapModeEv
	_ZNK9QTextEdit13fontPointSizeEv
	_ZNK9QTextEdit13fontUnderlineEv
	_ZNK9QTextEdit13overwriteModeEv
	_ZNK9QTextEdit14acceptRichTextEv
	_ZNK9QTextEdit14autoFormattingEv
	_ZNK9QTextEdit15extraSelectionsEv
	_ZNK9QTextEdit15placeholderTextEv
	_ZNK9QTextEdit15tabChangesFocusEv
	_ZNK9QTextEdit16inputMethodQueryEN2Qt16InputMethodQueryE
	_ZNK9QTextEdit16inputMethodQueryEN2Qt16InputMethodQueryE8QVariant
	_ZNK9QTextEdit17currentCharFormatEv
	_ZNK9QTextEdit17cursorForPositionERK6QPoint
	_ZNK9QTextEdit19textBackgroundColorEv
	_ZNK9QTextEdit20textInteractionFlagsEv
	_ZNK9QTextEdit21canInsertFromMimeDataEPK9QMimeData
	_ZNK9QTextEdit21lineWrapColumnOrWidthEv
	_ZNK9QTextEdit27createMimeDataFromSelectionEv
	_ZNK9QTextEdit5printEP17QPagedPaintDevice
	_ZNK9QTextEdit6toHtmlEv
	_ZNK9QTextEdit8anchorAtERK6QPoint
	_ZNK9QTextEdit8canPasteEv
	_ZNK9QTextEdit8documentEv
	_ZNK9QTextEdit9alignmentEv
	_ZNK9QTextEdit9textColorEv
	_ZNK9QTimeEdit10metaObjectEv
	_ZNK9QTreeView10indexAboveERK11QModelIndex
	_ZNK9QTreeView10indexBelowERK11QModelIndex
	_ZNK9QTreeView10isAnimatedEv
	_ZNK9QTreeView10isExpandedERK11QModelIndex
	_ZNK9QTreeView10metaObjectEv
	_ZNK9QTreeView10visualRectERK11QModelIndex
	_ZNK9QTreeView11columnWidthEi
	_ZNK9QTreeView11indentationEv
	_ZNK9QTreeView11isRowHiddenEiRK11QModelIndex
	_ZNK9QTreeView11visualIndexERK11QModelIndex
	_ZNK9QTreeView12drawBranchesEP8QPainterRK5QRectRK11QModelIndex
	_ZNK9QTreeView12treePositionEv
	_ZNK9QTreeView13isIndexHiddenERK11QModelIndex
	_ZNK9QTreeView14isColumnHiddenEi
	_ZNK9QTreeView14isHeaderHiddenEv
	_ZNK9QTreeView14verticalOffsetEv
	_ZNK9QTreeView15autoExpandDelayEv
	_ZNK9QTreeView15itemsExpandableEv
	_ZNK9QTreeView15rootIsDecoratedEv
	_ZNK9QTreeView15selectedIndexesEv
	_ZNK9QTreeView16horizontalOffsetEv
	_ZNK9QTreeView16indexRowSizeHintERK11QModelIndex
	_ZNK9QTreeView16isSortingEnabledEv
	_ZNK9QTreeView16viewportSizeHintEv
	_ZNK9QTreeView17sizeHintForColumnEi
	_ZNK9QTreeView17uniformRowHeightsEv
	_ZNK9QTreeView19allColumnsShowFocusEv
	_ZNK9QTreeView20expandsOnDoubleClickEv
	_ZNK9QTreeView20isFirstColumnSpannedEiRK11QModelIndex
	_ZNK9QTreeView22columnViewportPositionEi
	_ZNK9QTreeView24visualRegionForSelectionERK14QItemSelection
	_ZNK9QTreeView6headerEv
	_ZNK9QTreeView7drawRowEP8QPainterRK20QStyleOptionViewItemRK11QModelIndex
	_ZNK9QTreeView7indexAtERK6QPoint
	_ZNK9QTreeView8columnAtEi
	_ZNK9QTreeView8drawTreeEP8QPainterRK7QRegion
	_ZNK9QTreeView8wordWrapEv
	_ZNK9QTreeView9rowHeightERK11QModelIndex
	_ZNK9QUndoView10emptyLabelEv
	_ZNK9QUndoView10metaObjectEv
	_ZNK9QUndoView5groupEv
	_ZNK9QUndoView5stackEv
	_ZNK9QUndoView9cleanIconEv
	_ZTI10QBoxLayout
	_ZTI10QCompleter
	_ZTI10QLCDNumber
	_ZTI10QScrollBar
	_ZTI10QStatusBar
	_ZTI10QTabWidget
	_ZTI10QTableView
	_ZTI10QUndoGroup
	_ZTI10QUndoStack
	_ZTI11QColumnView
	_ZTI11QDockWidget
	_ZTI11QFileDialog
	_ZTI11QFocusFrame
	_ZTI11QFontDialog
	_ZTI11QFormLayout
	_ZTI11QGridLayout
	_ZTI11QHBoxLayout
	_ZTI11QHeaderView
	_ZTI11QLayoutItem
	_ZTI11QListWidget
	_ZTI11QMainWindow
	_ZTI11QMessageBox
	_ZTI11QPanGesture
	_ZTI11QProxyStyle
	_ZTI11QPushButton
	_ZTI11QRubberBand
	_ZTI11QScrollArea
	_ZTI11QSpacerItem
	_ZTI11QTapGesture
	_ZTI11QToolButton
	_ZTI11QTreeWidget
	_ZTI11QVBoxLayout
	_ZTI11QWidgetItem
	_ZTI11QWizardPage
	_ZTI12QActionGroup
	_ZTI12QApplication
	_ZTI12QButtonGroup
	_ZTI12QColorDialog
	_ZTI12QCommonStyle
	_ZTI12QFSCompleter
	_ZTI12QInputDialog
	_ZTI12QProgressBar
	_ZTI12QRadioButton
	_ZTI12QStylePlugin
	_ZTI12QTableWidget
	_ZTI12QTextBrowser
	_ZTI12QUndoCommand
	_ZTI13QDateTimeEdit
	_ZTI13QErrorMessage
	_ZTI13QFlickGesture
	_ZTI13QFontComboBox
	_ZTI13QGestureEvent
	_ZTI13QGraphicsItem
	_ZTI13QGraphicsView
	_ZTI13QItemDelegate
	_ZTI13QMdiSubWindow
	_ZTI13QOpenGLWidget
	_ZTI13QPinchGesture
	_ZTI13QPixmapFilter
	_ZTI13QSplashScreen
	_ZTI13QSwipeGesture
	_ZTI13QWidgetAction
	_ZTI13QWidgetItemV2
	_ZTI14QActionPrivate
	_ZTI14QDesktopWidget
	_ZTI14QDialogPrivate
	_ZTI14QDoubleSpinBox
	_ZTI14QGraphicsScale
	_ZTI14QGraphicsScene
	_ZTI14QLayoutPrivate
	_ZTI14QPlainTextEdit
	_ZTI14QStackedLayout
	_ZTI14QStackedWidget
	_ZTI14QWidgetPrivate
	_ZTI15QAbstractButton
	_ZTI15QAbstractSlider
	_ZTI15QCalendarWidget
	_ZTI15QGraphicsAnchor
	_ZTI15QGraphicsEffect
	_ZTI15QGraphicsLayout
	_ZTI15QGraphicsObject
	_ZTI15QGraphicsWidget
	_ZTI15QListWidgetItem
	_ZTI15QProgressDialog
	_ZTI15QSplitterHandle
	_ZTI15QSystemTrayIcon
	_ZTI15QTreeWidgetItem
	_ZTI16QAbstractSpinBox
	_ZTI16QDialogButtonBox
	_ZTI16QFileSystemModel
	_ZTI16QKeySequenceEdit
	_ZTI16QTableWidgetItem
	_ZTI16QTreeViewPrivate
	_ZTI16QWindowContainer
	_ZTI17QAbstractItemView
	_ZTI17QAccessibleWidget
	_ZTI17QDataWidgetMapper
	_ZTI17QDockWidgetLayout
	_ZTI17QFileIconProvider
	_ZTI17QGraphicsLineItem
	_ZTI17QGraphicsPathItem
	_ZTI17QGraphicsRectItem
	_ZTI17QGraphicsRotation
	_ZTI17QGraphicsTextItem
	_ZTI17QPixmapBlurFilter
	_ZTI18QCommandLinkButton
	_ZTI18QFileDialogPrivate
	_ZTI18QGestureRecognizer
	_ZTI18QGraphicsItemGroup
	_ZTI18QGraphicsTransform
	_ZTI18QItemEditorFactory
	_ZTI18QTapAndHoldGesture
	_ZTI18QWidgetLineControl
	_ZTI18QWidgetTextControl
	_ZTI19QAbstractScrollArea
	_ZTI19QApplicationPrivate
	_ZTI19QGraphicsBlurEffect
	_ZTI19QGraphicsGridLayout
	_ZTI19QGraphicsLayoutItem
	_ZTI19QGraphicsPixmapItem
	_ZTI19QGraphicsSceneEvent
	_ZTI19QKeyEventTransition
	_ZTI19QScrollerProperties
	_ZTI19QStyledItemDelegate
	_ZTI20QGraphicsEllipseItem
	_ZTI20QGraphicsItemPrivate
	_ZTI20QGraphicsPolygonItem
	_ZTI20QGraphicsProxyWidget
	_ZTI20QGraphicsViewPrivate
	_ZTI20QWidgetResizeHandler
	_ZTI21QAbstractItemDelegate
	_ZTI21QGraphicsAnchorLayout
	_ZTI21QGraphicsEffectSource
	_ZTI21QGraphicsLinearLayout
	_ZTI21QMouseEventTransition
	_ZTI21QPixmapColorizeFilter
	_ZTI22QGraphicsEffectPrivate
	_ZTI22QGraphicsItemAnimation
	_ZTI22QGraphicsOpacityEffect
	_ZTI22QItemEditorCreatorBase
	_ZTI23QGraphicsColorizeEffect
	_ZTI23QGraphicsSceneHelpEvent
	_ZTI23QGraphicsSceneMoveEvent
	_ZTI23QGraphicsSimpleTextItem
	_ZTI23QPixmapDropShadowFilter
	_ZTI24QGraphicsSceneHoverEvent
	_ZTI24QGraphicsSceneMouseEvent
	_ZTI24QGraphicsSceneWheelEvent
	_ZTI24QPixmapConvolutionFilter
	_ZTI24QPlainTextDocumentLayout
	_ZTI25QGraphicsDropShadowEffect
	_ZTI25QGraphicsSceneResizeEvent
	_ZTI26QAbstractGraphicsShapeItem
	_ZTI26QAbstractScrollAreaPrivate
	_ZTI27QGraphicsSceneDragDropEvent
	_ZTI30QGraphicsSceneContextMenuEvent
	_ZTI5QDial
	_ZTI5QMenu
	_ZTI6QFrame
	_ZTI6QLabel
	_ZTI6QStyle
	_ZTI7QAction
	_ZTI7QDialog
	_ZTI7QLayout
	_ZTI7QSlider
	_ZTI7QTabBar
	_ZTI7QWidget
	_ZTI7QWizard
	_ZTI8QGesture
	_ZTI8QMdiArea
	_ZTI8QMenuBar
	_ZTI8QSpinBox
	_ZTI8QToolBar
	_ZTI8QToolBox
	_ZTI9QCheckBox
	_ZTI9QComboBox
	_ZTI9QDateEdit
	_ZTI9QDirModel
	_ZTI9QGroupBox
	_ZTI9QLineEdit
	_ZTI9QListView
	_ZTI9QScroller
	_ZTI9QShortcut
	_ZTI9QSizeGrip
	_ZTI9QSplitter
	_ZTI9QTextEdit
	_ZTI9QTimeEdit
	_ZTI9QTreeView
	_ZTI9QUndoView
	_ZTV10QBoxLayout
	_ZTV10QCompleter
	_ZTV10QLCDNumber
	_ZTV10QScrollBar
	_ZTV10QStatusBar
	_ZTV10QTabWidget
	_ZTV10QTableView
	_ZTV10QUndoGroup
	_ZTV10QUndoStack
	_ZTV11QColumnView
	_ZTV11QDockWidget
	_ZTV11QFileDialog
	_ZTV11QFocusFrame
	_ZTV11QFontDialog
	_ZTV11QFormLayout
	_ZTV11QGridLayout
	_ZTV11QHBoxLayout
	_ZTV11QHeaderView
	_ZTV11QLayoutItem
	_ZTV11QListWidget
	_ZTV11QMainWindow
	_ZTV11QMessageBox
	_ZTV11QPanGesture
	_ZTV11QProxyStyle
	_ZTV11QPushButton
	_ZTV11QRubberBand
	_ZTV11QScrollArea
	_ZTV11QSpacerItem
	_ZTV11QTapGesture
	_ZTV11QToolButton
	_ZTV11QTreeWidget
	_ZTV11QVBoxLayout
	_ZTV11QWidgetItem
	_ZTV11QWizardPage
	_ZTV12QActionGroup
	_ZTV12QApplication
	_ZTV12QButtonGroup
	_ZTV12QColorDialog
	_ZTV12QCommonStyle
	_ZTV12QFSCompleter
	_ZTV12QInputDialog
	_ZTV12QProgressBar
	_ZTV12QRadioButton
	_ZTV12QStylePlugin
	_ZTV12QTableWidget
	_ZTV12QTextBrowser
	_ZTV12QUndoCommand
	_ZTV13QDateTimeEdit
	_ZTV13QErrorMessage
	_ZTV13QFlickGesture
	_ZTV13QFontComboBox
	_ZTV13QGestureEvent
	_ZTV13QGraphicsItem
	_ZTV13QGraphicsView
	_ZTV13QItemDelegate
	_ZTV13QMdiSubWindow
	_ZTV13QOpenGLWidget
	_ZTV13QPinchGesture
	_ZTV13QPixmapFilter
	_ZTV13QSplashScreen
	_ZTV13QSwipeGesture
	_ZTV13QWidgetAction
	_ZTV13QWidgetItemV2
	_ZTV14QActionPrivate
	_ZTV14QDesktopWidget
	_ZTV14QDialogPrivate
	_ZTV14QDoubleSpinBox
	_ZTV14QGraphicsScale
	_ZTV14QGraphicsScene
	_ZTV14QLayoutPrivate
	_ZTV14QPlainTextEdit
	_ZTV14QStackedLayout
	_ZTV14QStackedWidget
	_ZTV14QWidgetPrivate
	_ZTV15QAbstractButton
	_ZTV15QAbstractSlider
	_ZTV15QCalendarWidget
	_ZTV15QGraphicsAnchor
	_ZTV15QGraphicsEffect
	_ZTV15QGraphicsLayout
	_ZTV15QGraphicsObject
	_ZTV15QGraphicsWidget
	_ZTV15QListWidgetItem
	_ZTV15QProgressDialog
	_ZTV15QSplitterHandle
	_ZTV15QSystemTrayIcon
	_ZTV15QTreeWidgetItem
	_ZTV16QAbstractSpinBox
	_ZTV16QDialogButtonBox
	_ZTV16QFileSystemModel
	_ZTV16QKeySequenceEdit
	_ZTV16QTableWidgetItem
	_ZTV16QTreeViewPrivate
	_ZTV16QWindowContainer
	_ZTV17QAbstractItemView
	_ZTV17QAccessibleWidget
	_ZTV17QDataWidgetMapper
	_ZTV17QDockWidgetLayout
	_ZTV17QFileIconProvider
	_ZTV17QGraphicsLineItem
	_ZTV17QGraphicsPathItem
	_ZTV17QGraphicsRectItem
	_ZTV17QGraphicsRotation
	_ZTV17QGraphicsTextItem
	_ZTV17QPixmapBlurFilter
	_ZTV18QCommandLinkButton
	_ZTV18QFileDialogPrivate
	_ZTV18QGestureRecognizer
	_ZTV18QGraphicsItemGroup
	_ZTV18QGraphicsTransform
	_ZTV18QItemEditorFactory
	_ZTV18QTapAndHoldGesture
	_ZTV18QWidgetLineControl
	_ZTV18QWidgetTextControl
	_ZTV19QAbstractScrollArea
	_ZTV19QApplicationPrivate
	_ZTV19QGraphicsBlurEffect
	_ZTV19QGraphicsGridLayout
	_ZTV19QGraphicsLayoutItem
	_ZTV19QGraphicsPixmapItem
	_ZTV19QGraphicsSceneEvent
	_ZTV19QKeyEventTransition
	_ZTV19QScrollerProperties
	_ZTV19QStyledItemDelegate
	_ZTV20QGraphicsEllipseItem
	_ZTV20QGraphicsItemPrivate
	_ZTV20QGraphicsPolygonItem
	_ZTV20QGraphicsProxyWidget
	_ZTV20QGraphicsViewPrivate
	_ZTV20QWidgetResizeHandler
	_ZTV21QAbstractItemDelegate
	_ZTV21QGraphicsAnchorLayout
	_ZTV21QGraphicsEffectSource
	_ZTV21QGraphicsLinearLayout
	_ZTV21QMouseEventTransition
	_ZTV21QPixmapColorizeFilter
	_ZTV22QGraphicsEffectPrivate
	_ZTV22QGraphicsItemAnimation
	_ZTV22QGraphicsOpacityEffect
	_ZTV22QItemEditorCreatorBase
	_ZTV23QGraphicsColorizeEffect
	_ZTV23QGraphicsSceneHelpEvent
	_ZTV23QGraphicsSceneMoveEvent
	_ZTV23QGraphicsSimpleTextItem
	_ZTV23QPixmapDropShadowFilter
	_ZTV24QGraphicsSceneHoverEvent
	_ZTV24QGraphicsSceneMouseEvent
	_ZTV24QGraphicsSceneWheelEvent
	_ZTV24QPixmapConvolutionFilter
	_ZTV24QPlainTextDocumentLayout
	_ZTV25QGraphicsDropShadowEffect
	_ZTV25QGraphicsSceneResizeEvent
	_ZTV26QAbstractGraphicsShapeItem
	_ZTV26QAbstractScrollAreaPrivate
	_ZTV27QGraphicsSceneDragDropEvent
	_ZTV30QGraphicsSceneContextMenuEvent
	_ZTV5QDial
	_ZTV5QMenu
	_ZTV6QFrame
	_ZTV6QLabel
	_ZTV6QStyle
	_ZTV7QAction
	_ZTV7QDialog
	_ZTV7QLayout
	_ZTV7QSlider
	_ZTV7QTabBar
	_ZTV7QWidget
	_ZTV7QWizard
	_ZTV8QGesture
	_ZTV8QMdiArea
	_ZTV8QMenuBar
	_ZTV8QSpinBox
	_ZTV8QToolBar
	_ZTV8QToolBox
	_ZTV9QCheckBox
	_ZTV9QComboBox
	_ZTV9QDateEdit
	_ZTV9QDirModel
	_ZTV9QGroupBox
	_ZTV9QLineEdit
	_ZTV9QListView
	_ZTV9QScroller
	_ZTV9QShortcut
	_ZTV9QSizeGrip
	_ZTV9QSplitter
	_ZTV9QTextEdit
	_ZTV9QTimeEdit
	_ZTV9QTreeView
	_ZTV9QUndoView
	_ZThn16_N10QBoxLayout10invalidateEv
	_ZThn16_N10QBoxLayout11setGeometryERK5QRect
	_ZThn16_N10QBoxLayoutD0Ev
	_ZThn16_N10QBoxLayoutD1Ev
	_ZThn16_N10QLCDNumberD0Ev
	_ZThn16_N10QLCDNumberD1Ev
	_ZThn16_N10QScrollBarD0Ev
	_ZThn16_N10QScrollBarD1Ev
	_ZThn16_N10QStatusBarD0Ev
	_ZThn16_N10QStatusBarD1Ev
	_ZThn16_N10QTabWidgetD0Ev
	_ZThn16_N10QTabWidgetD1Ev
	_ZThn16_N10QTableViewD0Ev
	_ZThn16_N10QTableViewD1Ev
	_ZThn16_N11QColumnViewD0Ev
	_ZThn16_N11QColumnViewD1Ev
	_ZThn16_N11QDockWidgetD0Ev
	_ZThn16_N11QDockWidgetD1Ev
	_ZThn16_N11QFileDialogD0Ev
	_ZThn16_N11QFileDialogD1Ev
	_ZThn16_N11QFocusFrameD0Ev
	_ZThn16_N11QFocusFrameD1Ev
	_ZThn16_N11QFontDialogD0Ev
	_ZThn16_N11QFontDialogD1Ev
	_ZThn16_N11QFormLayout10invalidateEv
	_ZThn16_N11QFormLayout11setGeometryERK5QRect
	_ZThn16_N11QFormLayoutD0Ev
	_ZThn16_N11QFormLayoutD1Ev
	_ZThn16_N11QGridLayout10invalidateEv
	_ZThn16_N11QGridLayout11setGeometryERK5QRect
	_ZThn16_N11QGridLayoutD0Ev
	_ZThn16_N11QGridLayoutD1Ev
	_ZThn16_N11QHBoxLayoutD0Ev
	_ZThn16_N11QHBoxLayoutD1Ev
	_ZThn16_N11QHeaderViewD0Ev
	_ZThn16_N11QHeaderViewD1Ev
	_ZThn16_N11QListWidgetD0Ev
	_ZThn16_N11QListWidgetD1Ev
	_ZThn16_N11QMainWindowD0Ev
	_ZThn16_N11QMainWindowD1Ev
	_ZThn16_N11QMessageBoxD0Ev
	_ZThn16_N11QMessageBoxD1Ev
	_ZThn16_N11QPushButtonD0Ev
	_ZThn16_N11QPushButtonD1Ev
	_ZThn16_N11QRubberBandD0Ev
	_ZThn16_N11QRubberBandD1Ev
	_ZThn16_N11QScrollAreaD0Ev
	_ZThn16_N11QScrollAreaD1Ev
	_ZThn16_N11QToolButtonD0Ev
	_ZThn16_N11QToolButtonD1Ev
	_ZThn16_N11QTreeWidgetD0Ev
	_ZThn16_N11QTreeWidgetD1Ev
	_ZThn16_N11QVBoxLayoutD0Ev
	_ZThn16_N11QVBoxLayoutD1Ev
	_ZThn16_N11QWizardPageD0Ev
	_ZThn16_N11QWizardPageD1Ev
	_ZThn16_N12QColorDialogD0Ev
	_ZThn16_N12QColorDialogD1Ev
	_ZThn16_N12QInputDialogD0Ev
	_ZThn16_N12QInputDialogD1Ev
	_ZThn16_N12QProgressBarD0Ev
	_ZThn16_N12QProgressBarD1Ev
	_ZThn16_N12QRadioButtonD0Ev
	_ZThn16_N12QRadioButtonD1Ev
	_ZThn16_N12QTableWidgetD0Ev
	_ZThn16_N12QTableWidgetD1Ev
	_ZThn16_N12QTextBrowserD0Ev
	_ZThn16_N12QTextBrowserD1Ev
	_ZThn16_N13QDateTimeEditD0Ev
	_ZThn16_N13QDateTimeEditD1Ev
	_ZThn16_N13QErrorMessageD0Ev
	_ZThn16_N13QErrorMessageD1Ev
	_ZThn16_N13QFontComboBoxD0Ev
	_ZThn16_N13QFontComboBoxD1Ev
	_ZThn16_N13QGraphicsViewD0Ev
	_ZThn16_N13QGraphicsViewD1Ev
	_ZThn16_N13QMdiSubWindowD0Ev
	_ZThn16_N13QMdiSubWindowD1Ev
	_ZThn16_N13QOpenGLWidgetD0Ev
	_ZThn16_N13QOpenGLWidgetD1Ev
	_ZThn16_N13QSplashScreenD0Ev
	_ZThn16_N13QSplashScreenD1Ev
	_ZThn16_N14QDesktopWidgetD0Ev
	_ZThn16_N14QDesktopWidgetD1Ev
	_ZThn16_N14QDoubleSpinBoxD0Ev
	_ZThn16_N14QDoubleSpinBoxD1Ev
	_ZThn16_N14QPlainTextEditD0Ev
	_ZThn16_N14QPlainTextEditD1Ev
	_ZThn16_N14QStackedLayout11setGeometryERK5QRect
	_ZThn16_N14QStackedLayoutD0Ev
	_ZThn16_N14QStackedLayoutD1Ev
	_ZThn16_N14QStackedWidgetD0Ev
	_ZThn16_N14QStackedWidgetD1Ev
	_ZThn16_N15QAbstractButtonD0Ev
	_ZThn16_N15QAbstractButtonD1Ev
	_ZThn16_N15QAbstractSliderD0Ev
	_ZThn16_N15QAbstractSliderD1Ev
	_ZThn16_N15QCalendarWidgetD0Ev
	_ZThn16_N15QCalendarWidgetD1Ev
	_ZThn16_N15QGraphicsObjectD0Ev
	_ZThn16_N15QGraphicsObjectD1Ev
	_ZThn16_N15QGraphicsWidget10itemChangeEN13QGraphicsItem18GraphicsItemChangeERK8QVariant
	_ZThn16_N15QGraphicsWidget10sceneEventEP6QEvent
	_ZThn16_N15QGraphicsWidget12focusInEventEP11QFocusEvent
	_ZThn16_N15QGraphicsWidget13focusOutEventEP11QFocusEvent
	_ZThn16_N15QGraphicsWidget14hoverMoveEventEP24QGraphicsSceneHoverEvent
	_ZThn16_N15QGraphicsWidget15hoverLeaveEventEP24QGraphicsSceneHoverEvent
	_ZThn16_N15QGraphicsWidget5paintEP8QPainterPK24QStyleOptionGraphicsItemP7QWidget
	_ZThn16_N15QGraphicsWidgetD0Ev
	_ZThn16_N15QGraphicsWidgetD1Ev
	_ZThn16_N15QProgressDialogD0Ev
	_ZThn16_N15QProgressDialogD1Ev
	_ZThn16_N15QSplitterHandleD0Ev
	_ZThn16_N15QSplitterHandleD1Ev
	_ZThn16_N16QAbstractSpinBoxD0Ev
	_ZThn16_N16QAbstractSpinBoxD1Ev
	_ZThn16_N16QDialogButtonBoxD0Ev
	_ZThn16_N16QDialogButtonBoxD1Ev
	_ZThn16_N16QKeySequenceEditD0Ev
	_ZThn16_N16QKeySequenceEditD1Ev
	_ZThn16_N16QWindowContainerD0Ev
	_ZThn16_N16QWindowContainerD1Ev
	_ZThn16_N17QAbstractItemViewD0Ev
	_ZThn16_N17QAbstractItemViewD1Ev
	_ZThn16_N17QAccessibleWidget8doActionERK7QString
	_ZThn16_N17QAccessibleWidgetD0Ev
	_ZThn16_N17QAccessibleWidgetD1Ev
	_ZThn16_N17QDockWidgetLayout11setGeometryERK5QRect
	_ZThn16_N17QDockWidgetLayoutD0Ev
	_ZThn16_N17QDockWidgetLayoutD1Ev
	_ZThn16_N17QGraphicsTextItem10sceneEventEP6QEvent
	_ZThn16_N17QGraphicsTextItem12focusInEventEP11QFocusEvent
	_ZThn16_N17QGraphicsTextItem12setExtensionEN13QGraphicsItem9ExtensionERK8QVariant
	_ZThn16_N17QGraphicsTextItem13dragMoveEventEP27QGraphicsSceneDragDropEvent
	_ZThn16_N17QGraphicsTextItem13focusOutEventEP11QFocusEvent
	_ZThn16_N17QGraphicsTextItem13keyPressEventEP9QKeyEvent
	_ZThn16_N17QGraphicsTextItem14dragEnterEventEP27QGraphicsSceneDragDropEvent
	_ZThn16_N17QGraphicsTextItem14dragLeaveEventEP27QGraphicsSceneDragDropEvent
	_ZThn16_N17QGraphicsTextItem14hoverMoveEventEP24QGraphicsSceneHoverEvent
	_ZThn16_N17QGraphicsTextItem14mouseMoveEventEP24QGraphicsSceneMouseEvent
	_ZThn16_N17QGraphicsTextItem15hoverEnterEventEP24QGraphicsSceneHoverEvent
	_ZThn16_N17QGraphicsTextItem15hoverLeaveEventEP24QGraphicsSceneHoverEvent
	_ZThn16_N17QGraphicsTextItem15keyReleaseEventEP9QKeyEvent
	_ZThn16_N17QGraphicsTextItem15mousePressEventEP24QGraphicsSceneMouseEvent
	_ZThn16_N17QGraphicsTextItem16contextMenuEventEP30QGraphicsSceneContextMenuEvent
	_ZThn16_N17QGraphicsTextItem16inputMethodEventEP17QInputMethodEvent
	_ZThn16_N17QGraphicsTextItem17mouseReleaseEventEP24QGraphicsSceneMouseEvent
	_ZThn16_N17QGraphicsTextItem21mouseDoubleClickEventEP24QGraphicsSceneMouseEvent
	_ZThn16_N17QGraphicsTextItem5paintEP8QPainterPK24QStyleOptionGraphicsItemP7QWidget
	_ZThn16_N17QGraphicsTextItem9dropEventEP27QGraphicsSceneDragDropEvent
	_ZThn16_N17QGraphicsTextItemD0Ev
	_ZThn16_N17QGraphicsTextItemD1Ev
	_ZThn16_N18QCommandLinkButtonD0Ev
	_ZThn16_N18QCommandLinkButtonD1Ev
	_ZThn16_N19QAbstractScrollAreaD0Ev
	_ZThn16_N19QAbstractScrollAreaD1Ev
	_ZThn16_N20QGraphicsProxyWidget10itemChangeEN13QGraphicsItem18GraphicsItemChangeERK8QVariant
	_ZThn16_N20QGraphicsProxyWidget10wheelEventEP24QGraphicsSceneWheelEvent
	_ZThn16_N20QGraphicsProxyWidget12focusInEventEP11QFocusEvent
	_ZThn16_N20QGraphicsProxyWidget13dragMoveEventEP27QGraphicsSceneDragDropEvent
	_ZThn16_N20QGraphicsProxyWidget13focusOutEventEP11QFocusEvent
	_ZThn16_N20QGraphicsProxyWidget13keyPressEventEP9QKeyEvent
	_ZThn16_N20QGraphicsProxyWidget14dragEnterEventEP27QGraphicsSceneDragDropEvent
	_ZThn16_N20QGraphicsProxyWidget14dragLeaveEventEP27QGraphicsSceneDragDropEvent
	_ZThn16_N20QGraphicsProxyWidget14hoverMoveEventEP24QGraphicsSceneHoverEvent
	_ZThn16_N20QGraphicsProxyWidget14mouseMoveEventEP24QGraphicsSceneMouseEvent
	_ZThn16_N20QGraphicsProxyWidget15hoverEnterEventEP24QGraphicsSceneHoverEvent
	_ZThn16_N20QGraphicsProxyWidget15hoverLeaveEventEP24QGraphicsSceneHoverEvent
	_ZThn16_N20QGraphicsProxyWidget15keyReleaseEventEP9QKeyEvent
	_ZThn16_N20QGraphicsProxyWidget15mousePressEventEP24QGraphicsSceneMouseEvent
	_ZThn16_N20QGraphicsProxyWidget16contextMenuEventEP30QGraphicsSceneContextMenuEvent
	_ZThn16_N20QGraphicsProxyWidget16inputMethodEventEP17QInputMethodEvent
	_ZThn16_N20QGraphicsProxyWidget17mouseReleaseEventEP24QGraphicsSceneMouseEvent
	_ZThn16_N20QGraphicsProxyWidget21mouseDoubleClickEventEP24QGraphicsSceneMouseEvent
	_ZThn16_N20QGraphicsProxyWidget5paintEP8QPainterPK24QStyleOptionGraphicsItemP7QWidget
	_ZThn16_N20QGraphicsProxyWidget9dropEventEP27QGraphicsSceneDragDropEvent
	_ZThn16_N20QGraphicsProxyWidgetD0Ev
	_ZThn16_N20QGraphicsProxyWidgetD1Ev
	_ZThn16_N5QDialD0Ev
	_ZThn16_N5QDialD1Ev
	_ZThn16_N5QMenuD0Ev
	_ZThn16_N5QMenuD1Ev
	_ZThn16_N6QFrameD0Ev
	_ZThn16_N6QFrameD1Ev
	_ZThn16_N6QLabelD0Ev
	_ZThn16_N6QLabelD1Ev
	_ZThn16_N7QDialogD0Ev
	_ZThn16_N7QDialogD1Ev
	_ZThn16_N7QLayout10invalidateEv
	_ZThn16_N7QLayout11setGeometryERK5QRect
	_ZThn16_N7QLayout6layoutEv
	_ZThn16_N7QLayoutD0Ev
	_ZThn16_N7QLayoutD1Ev
	_ZThn16_N7QSliderD0Ev
	_ZThn16_N7QSliderD1Ev
	_ZThn16_N7QTabBarD0Ev
	_ZThn16_N7QTabBarD1Ev
	_ZThn16_N7QWidgetD0Ev
	_ZThn16_N7QWidgetD1Ev
	_ZThn16_N7QWizardD0Ev
	_ZThn16_N7QWizardD1Ev
	_ZThn16_N8QMdiAreaD0Ev
	_ZThn16_N8QMdiAreaD1Ev
	_ZThn16_N8QMenuBarD0Ev
	_ZThn16_N8QMenuBarD1Ev
	_ZThn16_N8QSpinBoxD0Ev
	_ZThn16_N8QSpinBoxD1Ev
	_ZThn16_N8QToolBarD0Ev
	_ZThn16_N8QToolBarD1Ev
	_ZThn16_N8QToolBoxD0Ev
	_ZThn16_N8QToolBoxD1Ev
	_ZThn16_N9QCheckBoxD0Ev
	_ZThn16_N9QCheckBoxD1Ev
	_ZThn16_N9QComboBoxD0Ev
	_ZThn16_N9QComboBoxD1Ev
	_ZThn16_N9QDateEditD0Ev
	_ZThn16_N9QDateEditD1Ev
	_ZThn16_N9QGroupBoxD0Ev
	_ZThn16_N9QGroupBoxD1Ev
	_ZThn16_N9QLineEditD0Ev
	_ZThn16_N9QLineEditD1Ev
	_ZThn16_N9QListViewD0Ev
	_ZThn16_N9QListViewD1Ev
	_ZThn16_N9QSizeGripD0Ev
	_ZThn16_N9QSizeGripD1Ev
	_ZThn16_N9QSplitterD0Ev
	_ZThn16_N9QSplitterD1Ev
	_ZThn16_N9QTextEditD0Ev
	_ZThn16_N9QTextEditD1Ev
	_ZThn16_N9QTimeEditD0Ev
	_ZThn16_N9QTimeEditD1Ev
	_ZThn16_N9QTreeViewD0Ev
	_ZThn16_N9QTreeViewD1Ev
	_ZThn16_N9QUndoViewD0Ev
	_ZThn16_N9QUndoViewD1Ev
	_ZThn16_NK10QBoxLayout11maximumSizeEv
	_ZThn16_NK10QBoxLayout11minimumSizeEv
	_ZThn16_NK10QBoxLayout14heightForWidthEi
	_ZThn16_NK10QBoxLayout17hasHeightForWidthEv
	_ZThn16_NK10QBoxLayout19expandingDirectionsEv
	_ZThn16_NK10QBoxLayout21minimumHeightForWidthEi
	_ZThn16_NK10QBoxLayout8sizeHintEv
	_ZThn16_NK11QFormLayout11minimumSizeEv
	_ZThn16_NK11QFormLayout14heightForWidthEi
	_ZThn16_NK11QFormLayout17hasHeightForWidthEv
	_ZThn16_NK11QFormLayout19expandingDirectionsEv
	_ZThn16_NK11QFormLayout8sizeHintEv
	_ZThn16_NK11QGridLayout11maximumSizeEv
	_ZThn16_NK11QGridLayout11minimumSizeEv
	_ZThn16_NK11QGridLayout14heightForWidthEi
	_ZThn16_NK11QGridLayout17hasHeightForWidthEv
	_ZThn16_NK11QGridLayout19expandingDirectionsEv
	_ZThn16_NK11QGridLayout21minimumHeightForWidthEi
	_ZThn16_NK11QGridLayout8sizeHintEv
	_ZThn16_NK14QStackedLayout11minimumSizeEv
	_ZThn16_NK14QStackedLayout14heightForWidthEi
	_ZThn16_NK14QStackedLayout17hasHeightForWidthEv
	_ZThn16_NK14QStackedLayout8sizeHintEv
	_ZThn16_NK15QGraphicsWidget12boundingRectEv
	_ZThn16_NK15QGraphicsWidget4typeEv
	_ZThn16_NK15QGraphicsWidget5shapeEv
	_ZThn16_NK17QAccessibleWidget11actionNamesEv
	_ZThn16_NK17QAccessibleWidget20keyBindingsForActionERK7QString
	_ZThn16_NK17QDockWidgetLayout11maximumSizeEv
	_ZThn16_NK17QDockWidgetLayout11minimumSizeEv
	_ZThn16_NK17QDockWidgetLayout8sizeHintEv
	_ZThn16_NK17QGraphicsTextItem10opaqueAreaEv
	_ZThn16_NK17QGraphicsTextItem12boundingRectEv
	_ZThn16_NK17QGraphicsTextItem12isObscuredByEPK13QGraphicsItem
	_ZThn16_NK17QGraphicsTextItem16inputMethodQueryEN2Qt16InputMethodQueryE
	_ZThn16_NK17QGraphicsTextItem17supportsExtensionEN13QGraphicsItem9ExtensionE
	_ZThn16_NK17QGraphicsTextItem4typeEv
	_ZThn16_NK17QGraphicsTextItem5shapeEv
	_ZThn16_NK17QGraphicsTextItem8containsERK7QPointF
	_ZThn16_NK17QGraphicsTextItem9extensionERK8QVariant
	_ZThn16_NK20QGraphicsProxyWidget16inputMethodQueryEN2Qt16InputMethodQueryE
	_ZThn16_NK20QGraphicsProxyWidget4typeEv
	_ZThn16_NK7QLayout11maximumSizeEv
	_ZThn16_NK7QLayout11minimumSizeEv
	_ZThn16_NK7QLayout12controlTypesEv
	_ZThn16_NK7QLayout19expandingDirectionsEv
	_ZThn16_NK7QLayout7isEmptyEv
	_ZThn16_NK7QLayout8geometryEv
	_ZThn16_NK7QWidget10redirectedEP6QPoint
	_ZThn16_NK7QWidget11initPainterEP8QPainter
	_ZThn16_NK7QWidget11paintEngineEv
	_ZThn16_NK7QWidget13sharedPainterEv
	_ZThn16_NK7QWidget6metricEN12QPaintDevice17PaintDeviceMetricE
	_ZThn16_NK7QWidget7devTypeEv
	_ZThn32_N15QGraphicsWidget11setGeometryERK6QRectF
	_ZThn32_N15QGraphicsWidget14updateGeometryEv
	_ZThn32_N15QGraphicsWidgetD0Ev
	_ZThn32_N15QGraphicsWidgetD1Ev
	_ZThn32_N20QGraphicsProxyWidget11setGeometryERK6QRectF
	_ZThn32_N20QGraphicsProxyWidgetD0Ev
	_ZThn32_N20QGraphicsProxyWidgetD1Ev
	_ZThn32_NK15QGraphicsWidget18getContentsMarginsEPdS0_S0_S0_
	_ZThn32_NK15QGraphicsWidget8sizeHintEN2Qt8SizeHintERK6QSizeF
	_ZThn32_NK20QGraphicsProxyWidget8sizeHintEN2Qt8SizeHintERK6QSizeF
	_Zls6QDebug6QFlagsIN13QGraphicsItem16GraphicsItemFlagEE
	_Zls6QDebug6QFlagsIN6QStyle9StateFlagEE
	_Zls6QDebugN13QGraphicsItem16GraphicsItemFlagE
	_Zls6QDebugN13QGraphicsItem18GraphicsItemChangeE
	_Zls6QDebugP13QGraphicsItem
	_Zls6QDebugP15QGraphicsObject
	_Zls6QDebugRK11QSizePolicy
	_Zls6QDebugRK12QStyleOption
	_Zls6QDebugRKN12QStyleOption10OptionTypeE
	_ZlsR11QDataStreamRK11QSizePolicy
	_ZlsR11QDataStreamRK15QListWidgetItem
	_ZlsR11QDataStreamRK15QTreeWidgetItem
	_ZlsR11QDataStreamRK16QTableWidgetItem
	_ZlsR11QTextStreamRK9QSplitter
	_ZrsR11QDataStreamR11QSizePolicy
	_ZrsR11QDataStreamR15QListWidgetItem
	_ZrsR11QDataStreamR15QTreeWidgetItem
	_ZrsR11QDataStreamR16QTableWidgetItem
	_ZrsR11QTextStreamR9QSplitter